
advlib_aboutdlgg.o:
advlib_animatecmn.o:
advlib_animateg.o:
advlib_bmpcboxg.o:
advlib_calctrl.o:
advlib_datavcmn.o:
advlib_datavgen.o:
advlib_datectlg.o:
advlib_gridctrl.o:
advlib_grid.o:
advlib_gridsel.o:
advlib_helpext.o:
advlib_hyperlink.o:
advlib_laywin.o:
advlib_odcombo.o:
advlib_propdlg.o:
advlib_sashwin.o:
advlib_sound_sdl.o:
advlib_splash.o:
advlib_taskbarcmn.o:
advlib_taskbarx11.o:
advlib_tipdlg.o:
advlib_unix_joystick.o:
advlib_unix_sound.o:
advlib_wizard.o:
auilib_auibar.o:
auilib_auibook.o:
auilib_dockart.o:
auilib_floatpane.o:
auilib_framemanager.o:
auilib_tabmdi.o:
baselib_appbase.o:
baselib_arcall.o:
baselib_arcfind.o:
baselib_archive.o:
baselib_baseunix.o:
baselib_clntdata.o:
baselib_cmdline.o:
baselib_config.o:
baselib_convauto.o:
baselib_datetime.o:
baselib_datstrm.o:
baselib_dircmn.o:
baselib_dlunix.o:
baselib_dynarray.o:
baselib_dynlib.o:
baselib_dynload.o:
baselib_encconv.o:
baselib_event.o:
baselib_extended.o:
baselib_ffile.o:
baselib_fileback.o:
baselib_fileconf.o:
baselib_filefn.o:
baselib_filename.o:
baselib_file.o:
baselib_filesys.o:
baselib_filtall.o:
baselib_filtfind.o:
baselib_fmapbase.o:
baselib_fs_arc.o:
baselib_fs_filter.o:
baselib_fs_mem.o:
baselib_hashmap.o:
baselib_hash.o:
baselib_init.o:
baselib_intl.o:
baselib_ipcbase.o:
baselib_list.o:
baselib_log.o:
baselib_longlong.o:
baselib_memory.o:
baselib_mimecmn.o:
baselib_module.o:
baselib_msgout.o:
baselib_mstream.o:
baselib_object.o:
baselib_platinfo.o:
baselib_powercmn.o:
baselib_process.o:
baselib_regex.o:
baselib_sstream.o:
baselib_stdpbase.o:
baselib_stopwatch.o:
baselib_strconv.o:
baselib_stream.o:
baselib_string.o:
baselib_sysopt.o:
baselib_tarstrm.o:
baselib_textbuf.o:
baselib_textfile.o:
baselib_threadpsx.o:
baselib_tokenzr.o:
baselib_txtstrm.o:
baselib_unix_dir.o:
baselib_unix_mimetype.o:
baselib_unix_snglinst.o:
baselib_unix_stackwalk.o:
baselib_unix_stdpaths.o:
baselib_uri.o:
baselib_utilscmn.o:
baselib_utilsunx.o:
baselib_variant.o:
baselib_wfstream.o:
baselib_wxchar.o:
baselib_xti.o:
baselib_xtistrm.o:
baselib_zipstrm.o:
baselib_zstream.o:
CommentHnd
CompareCharsetItems
ConvertFromIeeeExtended
ConvertToIeeeExtended
corelib_accesscmn.o:
corelib_anidecod.o:
corelib_appcmn.o:
corelib_artprov.o:
corelib_artstd.o:
corelib_bmpbase.o:
corelib_bookctrl.o:
corelib_busyinfo.o:
corelib_buttonbar.o:
corelib_choicbkg.o:
corelib_choiccmn.o:
corelib_choicdgg.o:
corelib_clipcmn.o:
corelib_clrpickercmn.o:
corelib_clrpickerg.o:
corelib_cmdproc.o:
corelib_cmndata.o:
corelib_collpaneg.o:
corelib_colourcmn.o:
corelib_colrdlgg.o:
corelib_colschem.o:
corelib_combocmn.o:
corelib_combog.o:
corelib_containr.o:
corelib_cshelp.o:
corelib_ctrlcmn.o:
corelib_ctrlrend.o:
corelib_ctrlsub.o:
corelib_datacmn.o:
corelib_dcbase.o:
corelib_dcbufcmn.o:
corelib_dcgraph.o:
corelib_dcpsg.o:
corelib_dirctrlg.o:
corelib_dirdlgg.o:
corelib_displayx11.o:
corelib_dlgcmn.o:
corelib_dndcmn.o:
corelib_dobjcmn.o:
corelib_docmdi.o:
corelib_docview.o:
corelib_dpycmn.o:
corelib_dragimgg.o:
corelib_dseldlg.o:
corelib_effects.o:
corelib_event.o:
corelib_evtloopcmn.o:
corelib_fddlgcmn.o:
corelib_filedlgg.o:
corelib_filepickercmn.o:
corelib_filepickerg.o:
corelib_fldlgcmn.o:
corelib_fontcmn.o:
corelib_fontdlgg.o:
corelib_fontenumcmn.o:
corelib_fontmap.o:
corelib_fontpickercmn.o:
corelib_fontpickerg.o:
corelib_framecmn.o:
corelib_framuniv.o:
corelib_fs_mem.o:
corelib_gaugecmn.o:
corelib_gbsizer.o:
corelib_gdicmn.o:
corelib_generic_accel.o:
corelib_generic_caret.o:
corelib_generic_fdrepdlg.o:
corelib_generic_icon.o:
corelib_generic_imaglist.o:
corelib_generic_listctrl.o:
corelib_generic_timer.o:
corelib_geometry.o:
corelib_gifdecod.o:
corelib_graphcmn.o:
corelib_graphicc.o:
corelib_gtk.o:
corelib_helpbase.o:
corelib_iconbndl.o:
corelib_imagall.o:
corelib_imagbmp.o:
corelib_image.o:
corelib_imagfill.o:
corelib_imaggif.o:
corelib_imagiff.o:
corelib_imagjpeg.o:
corelib_imagpcx.o:
corelib_imagpng.o:
corelib_imagpnm.o:
corelib_imagtga.o:
corelib_imagtiff.o:
corelib_imagxpm.o:
corelib_inpcons.o:
corelib_inphand.o:
corelib_layout.o:
corelib_lboxcmn.o:
corelib_listbkg.o:
corelib_listctrlcmn.o:
corelib_logg.o:
corelib_matrix.o:
corelib_mdig.o:
corelib_menucmn.o:
corelib_metal.o:
corelib_mono.o:
corelib_msgdlgg.o:
corelib_msgout.o:
corelib_nanox.o:
corelib_nbkbase.o:
corelib_numdlgg.o:
corelib_overlaycmn.o:
corelib_panelg.o:
corelib_paper.o:
corelib_pickerbase.o:
corelib_popupcmn.o:
corelib_printps.o:
corelib_prntbase.o:
corelib_prntdlgg.o:
corelib_progdlgg.o:
corelib_quantize.o:
corelib_radiocmn.o:
corelib_rendcmn.o:
corelib_renderg.o:
corelib_reparent.o:
corelib_rgncmn.o:
corelib_scrarrow.o:
corelib_scrlwing.o:
corelib_scrthumb.o:
corelib_selstore.o:
corelib_settcmn.o:
corelib_sizer.o:
corelib_socketevtdispatch.o:
corelib_spinctlg.o:
corelib_splitter.o:
corelib_srchcmn.o:
corelib_srchctlg.o:
corelib_statbar.o:
corelib_stdrend.o:
corelib_stockitem.o:
corelib_tabg.o:
corelib_tbarbase.o:
corelib_textcmn.o:
corelib_textdlgg.o:
corelib_theme.o:
corelib_timercmn.o:
corelib_tipwin.o:
corelib_toolbkg.o:
corelib_topluniv.o:
corelib_toplvcmn.o:
corelib_treebase.o:
corelib_treebkg.o:
corelib_treectlg.o:
corelib_univ_bmpbuttn.o:
corelib_univ_button.o:
corelib_univ_checkbox.o:
corelib_univ_checklst.o:
corelib_univ_choice.o:
corelib_univ_combobox.o:
corelib_univ_control.o:
corelib_univ_dialog.o:
corelib_univ_gauge.o:
corelib_univ_listbox.o:
corelib_univ_menu.o:
corelib_univ_notebook.o:
corelib_univ_radiobox.o:
corelib_univ_radiobut.o:
corelib_univ_scrolbar.o:
corelib_univ_slider.o:
corelib_univ_spinbutt.o:
corelib_univ_statbmp.o:
corelib_univ_statbox.o:
corelib_univ_statline.o:
corelib_univ_stattext.o:
corelib_univ_statusbr.o:
corelib_univ_textctrl.o:
corelib_univ_tglbtn.o:
corelib_univ_toolbar.o:
corelib_unix_dialup.o:
corelib_unix_fontenum.o:
corelib_unix_fontutil.o:
corelib_utilscmn.o:
corelib_utilsunx.o:
corelib_utilsx11.o:
corelib_utilsx.o:
corelib_valgen.o:
corelib_validate.o:
corelib_valtext.o:
corelib_vlbox.o:
corelib_vscroll.o:
corelib_win32.o:
corelib_wincmn.o:
corelib_winuniv.o:
corelib_x11_app.o:
corelib_x11_bitmap.o:
corelib_x11_brush.o:
corelib_x11_clipbrd.o:
corelib_x11_colour.o:
corelib_x11_cursor.o:
corelib_x11_data.o:
corelib_x11_dataobj.o:
corelib_x11_dcclient.o:
corelib_x11_dcmemory.o:
corelib_x11_dc.o:
corelib_x11_dcscreen.o:
corelib_x11_evtloop.o:
corelib_x11_font.o:
corelib_x11_minifram.o:
corelib_x11_palette.o:
corelib_x11_pen.o:
corelib_x11_popupwin.o:
corelib_x11_region.o:
corelib_x11_settings.o:
corelib_x11_toplevel.o:
corelib_x11_utils.o:
corelib_x11_window.o:
corelib_xpmdecod.o:
DefaultHnd
DW.ref.__gxx_personality_v0
EndElementHnd
g_ActionInDo
GAddress_copy
GAddress_destroy
GAddress_GetFamily
GAddress_INET_GetHostAddress
GAddress_INET_GetHostName
GAddress_INET_GetPort
GAddress_INET_SetAnyAddress
GAddress_INET_SetHostAddress
GAddress_INET_SetHostName
GAddress_INET_SetPort
GAddress_INET_SetPortName
_GAddress_Init_INET
_GAddress_Init_UNIX
GAddress_new
GAddress_SetFamily
_GAddress_translate_from
_GAddress_translate_to
GAddress_UNIX_GetPath
GAddress_UNIX_SetPath
g_clipboardAtom
g_fileAtom
g_GettingFocus
g_globalCursor
g_GlobalPartialTextExtents
_GLOBAL__sub_I_accesscmn.cpp
_GLOBAL__sub_I_buttonbar.cpp
_GLOBAL__sub_I_chm.cpp
_GLOBAL__sub_I_datavcmn.cpp
_GLOBAL__sub_I_datavgen.cpp
_GLOBAL__sub_I_dcgraph.cpp
_GLOBAL__sub_I_dndcmn.cpp
_GLOBAL__sub_I_g_clipboardAtom
_GLOBAL__sub_I_graphcmn.cpp
_GLOBAL__sub_I_graphicc.cpp
_GLOBAL__sub_I_g_textAtom
_GLOBAL__sub_I_imagiff.cpp
_GLOBAL__sub_I_sound_sdl.cpp
_GLOBAL__sub_I_tabg.cpp
_GLOBAL__sub_I_wxAnimationCtrlNameStr
_GLOBAL__sub_I_wxBitmapComboBoxNameStr
_GLOBAL__sub_I_wxChoiceNameStr
_GLOBAL__sub_I_wxCollapsiblePaneNameStr
_GLOBAL__sub_I_wxColourPickerCtrlNameStr
_GLOBAL__sub_I_wxControlNameStr
_GLOBAL__sub_I_wxDefaultListKey
_GLOBAL__sub_I_wxDefaultValidator
_GLOBAL__sub_I_wxEVT_COMMAND_NOTEBOOK_PAGE_CHANGED
_GLOBAL__sub_I_wxEVT_COMMAND_RICHTEXT_LEFT_CLICK
_GLOBAL__sub_I_wxEVT_COMMAND_SPLITTER_SASH_POS_CHANGED
_GLOBAL__sub_I_wxEVT_COMMAND_TOGGLEBUTTON_CLICKED
_GLOBAL__sub_I_wxEVT_COMMAND_TREE_BEGIN_DRAG
_GLOBAL__sub_I_wxEVT_DATE_CHANGED
_GLOBAL__sub_I_wxEVT_DIALUP_CONNECTED
_GLOBAL__sub_I_wxEVT_END_PROCESS
_GLOBAL__sub_I_wxEVT_SASH_DRAGGED
_GLOBAL__sub_I_wxEVT_TASKBAR_MOVE
_GLOBAL__sub_I_wxEVT_WIZARD_PAGE_CHANGED
_GLOBAL__sub_I_wxFilePickerCtrlNameStr
_GLOBAL__sub_I_wxFontPickerCtrlNameStr
_GLOBAL__sub_I_wxGaugeNameStr
_GLOBAL__sub_I_wxGetTextFromUserPromptStr
_GLOBAL__sub_I_wxGridNameStr
_GLOBAL__sub_I_wxHtmlListBoxNameStr
_GLOBAL__sub_I_wxInvalidSize
_GLOBAL__sub_I_wxListCtrlNameStr
_GLOBAL__sub_I_wxNullAcceleratorTable
_GLOBAL__sub_I_wxPageNumber
_GLOBAL__sub_I_wxPendingDelete
_GLOBAL__sub_I_wxSearchCtrlNameStr
_GLOBAL__sub_I_wxThemeUsegtk
_GLOBAL__sub_I_wxThemeUseMetal
_GLOBAL__sub_I_wxTopLevelWindows
_GLOBAL__sub_I_wxTRACE_HTML_DEBUG
_GLOBAL__sub_I_wxWidgetHashTable
_GLOBAL__sub_I__Z10wxLoadFontRK8wxString
_GLOBAL__sub_I__Z11wxIsStockIDi
_GLOBAL__sub_I__Z12wxDoSetShapeP9_XDisplaymRK8wxRegion
_GLOBAL__sub_I__Z13wxDirSelectorRK8wxStringS1_lRK7wxPointP8wxWindow
_GLOBAL__sub_I__Z13wxDoFloodFillP4wxDCiiRK8wxColouri
_GLOBAL__sub_I__Z13wxFlushEventsv
_GLOBAL__sub_I__Z13wxSetIconsX11PvS_RK12wxIconBundle
_GLOBAL__sub_I__Z13wxVLogGenericmPKcP13__va_list_tag
_GLOBAL__sub_I__Z16prescan_quantizeP12j_decompressPPhS2_i
_GLOBAL__sub_I__Z16wxAuiBlendColourhhd
_GLOBAL__sub_I__Z17wxGetSingleChoiceRK8wxStringS1_iPS0_P8wxWindowiibii
_GLOBAL__sub_I__Z19wxClientDisplayRectPiS_S_S_
_GLOBAL__sub_I__Z20wxGetAvailableDrivesR13wxArrayStringS0_R10wxArrayInt
_GLOBAL__sub_I__Z22wxInitAllImageHandlersv
_GLOBAL__sub_I__Z25_wx_link_dummy_func_m_prev
_GLOBAL__sub_I__Z26_wx_link_dummy_func_m_listv
_GLOBAL__sub_I__Z27_wx_link_dummy_func_m_fontsv
_GLOBAL__sub_I__Z27_wx_link_dummy_func_m_hlinev
_GLOBAL__sub_I__Z27_wx_link_dummy_func_m_imagev
_GLOBAL__sub_I__Z27_wx_link_dummy_func_m_linksv
_GLOBAL__sub_I__Z27_wx_link_dummy_func_m_stylev
_GLOBAL__sub_I__Z28_wx_link_dummy_func_m_dflistv
_GLOBAL__sub_I__Z28_wx_link_dummy_func_m_layoutv
_GLOBAL__sub_I__Z28_wx_link_dummy_func_m_tablesv
_GLOBAL__sub_I__Z7wxNewIdv
_GLOBAL__sub_I__ZN10NoTransErr16ms_suppressCountE
_GLOBAL__sub_I__ZN10wxCheckBox12ms_classInfoE
_GLOBAL__sub_I__ZN10wxDateTime13TIME_T_FACTORE
_GLOBAL__sub_I__ZN10wxDocument12ms_classInfoE
_GLOBAL__sub_I__ZN10wxEventPtrD2Ev
_GLOBAL__sub_I__ZN10wxFileDataC2ERK8wxStringS2_NS_8fileTypeEi
_GLOBAL__sub_I__ZN10wxFontBase18ms_encodingDefaultE
_GLOBAL__sub_I__ZN10wxJoystick12ms_classInfoE
_GLOBAL__sub_I__ZN10wxListbook12ms_classInfoE
_GLOBAL__sub_I__ZN10wxListItem12ms_classInfoE
_GLOBAL__sub_I__ZN10wxMemoryDC12ms_classInfoE
_GLOBAL__sub_I__ZN10wxPathList3AddERK8wxString
_GLOBAL__sub_I__ZN10wxRadioBox12ms_classInfoE
_GLOBAL__sub_I__ZN10wxRendererD2Ev
_GLOBAL__sub_I__ZN10wxScreenDC16sm_overlayWindowE
_GLOBAL__sub_I__ZN10wxTarEntry12ms_classInfoE
_GLOBAL__sub_I__ZN10wxToolbook12ms_classInfoE
_GLOBAL__sub_I__ZN10wxTreebook12ms_classInfoE
_GLOBAL__sub_I__ZN10wxVListBox13sm_eventTableE
_GLOBAL__sub_I__ZN10wxWindowDC12ms_classInfoE
_GLOBAL__sub_I__ZN10wxZipEntry12ms_classInfoE
_GLOBAL__sub_I__ZN11wxFileProto12ms_classInfoE
_GLOBAL__sub_I__ZN11wxFrameBase13sm_eventTableE
_GLOBAL__sub_I__ZN11wxGDIObject12ms_classInfoE
_GLOBAL__sub_I__ZN11wxIconArrayD2Ev
_GLOBAL__sub_I__ZN11wxIdleEvent12ms_classInfoE
_GLOBAL__sub_I__ZN11wxInfoFrameC2EP8wxWindowRK8wxString
_GLOBAL__sub_I__ZN11wxLogDialog13sm_eventTableE
_GLOBAL__sub_I__ZN11wxMiniFrame12ms_classInfoE
_GLOBAL__sub_I__ZN11wxPrintData12ms_classInfoE
_GLOBAL__sub_I__ZN11wxProtoInfo12ms_classInfoE
_GLOBAL__sub_I__ZN11wxProtoInfoC2EPKcS1_bP11wxClassInfo
_GLOBAL__sub_I__ZN11wxScrollBar12ms_classInfoE
_GLOBAL__sub_I__ZN11wxSizerItem12ms_classInfoE
_GLOBAL__sub_I__ZN11wxSoundData6IncRefEv
_GLOBAL__sub_I__ZN11wxSpinEvent12ms_classInfoE
_GLOBAL__sub_I__ZN11wxStaticBox12ms_classInfoE
_GLOBAL__sub_I__ZN11wxStatusBar13sm_eventTableE
_GLOBAL__sub_I__ZN11wxStopWatch5StartEl
_GLOBAL__sub_I__ZN11wxTCPServer12ms_classInfoE
_GLOBAL__sub_I__ZN11wxTipWindow13sm_eventTableE
_GLOBAL__sub_I__ZN11wxWindowX1112ms_classInfoE
_GLOBAL__sub_I__ZN12wxANIDecoder10sm_handlerE
_GLOBAL__sub_I__ZN12wxAppPtrBaseD2Ev
_GLOBAL__sub_I__ZN12wxBMPHandler12ms_classInfoE
_GLOBAL__sub_I__ZN12wxCaretTimerC2EP7wxCaret
_GLOBAL__sub_I__ZN12wxChoicebook12ms_classInfoE
_GLOBAL__sub_I__ZN12wxDialogBase13sm_eventTableE
_GLOBAL__sub_I__ZN12wxFontMapperC2Ev
_GLOBAL__sub_I__ZN12wxGIFHandler12ms_classInfoE
_GLOBAL__sub_I__ZN12wxHtmlFilter12ms_classInfoE
_GLOBAL__sub_I__ZN12wxPCXHandler12ms_classInfoE
_GLOBAL__sub_I__ZN12wxPickerBase12ms_classInfoE
_GLOBAL__sub_I__ZN12wxPNGHandler12ms_classInfoE
_GLOBAL__sub_I__ZN12wxPNMHandler12ms_classInfoE
_GLOBAL__sub_I__ZN12wxServerBase12ms_classInfoE
_GLOBAL__sub_I__ZN12wxSocketBase12ms_classInfoE
_GLOBAL__sub_I__ZN12wxStackFrame9OnGetNameEv
_GLOBAL__sub_I__ZN12wxStaticLine12ms_classInfoE
_GLOBAL__sub_I__ZN12wxStaticText12ms_classInfoE
_GLOBAL__sub_I__ZN12wxStringBase4nposE
_GLOBAL__sub_I__ZN12wxTextBuffer11typeDefaultE
_GLOBAL__sub_I__ZN12wxTGAHandler12ms_classInfoE
_GLOBAL__sub_I__ZN12wxTimerEvent12ms_classInfoE
_GLOBAL__sub_I__ZN12wxXPMDecoder7CanReadER13wxInputStream
_GLOBAL__sub_I__ZN12wxXPMHandler12ms_classInfoE
_GLOBAL__sub_I__ZN13wxArtProvider15InitStdProviderEv
_GLOBAL__sub_I__ZN13wxContextHelp12ms_classInfoE
_GLOBAL__sub_I__ZN13wxGBSizerItem12ms_classInfoE
_GLOBAL__sub_I__ZN13wxJPEGHandler12ms_classInfoE
_GLOBAL__sub_I__ZN13wxListBoxBaseD2Ev
_GLOBAL__sub_I__ZN13wxPopupWindow12ms_classInfoE
_GLOBAL__sub_I__ZN13wxPopupWindow13sm_eventTableE
_GLOBAL__sub_I__ZN13wxRadioButton12ms_classInfoE
_GLOBAL__sub_I__ZN13wxScrollThumbC2EP18wxControlWithThumb
_GLOBAL__sub_I__ZN13wxSockAddress12ms_classInfoE
_GLOBAL__sub_I__ZN13wxStdRendererC2EPK14wxColourScheme
_GLOBAL__sub_I__ZN13wxTIFFHandler12ms_classInfoE
_GLOBAL__sub_I__ZN13wxToolBarBase13sm_eventTableE
_GLOBAL__sub_I__ZN13wxVariantData12ms_classInfoE
_GLOBAL__sub_I__ZN13wxXmlDocument12ms_classInfoE
_GLOBAL__sub_I__ZN13wxXmlResource15InitAllHandlersEv
_GLOBAL__sub_I__ZN14wxArchiveEntry12ms_classInfoE
_GLOBAL__sub_I__ZN14wxAuiRectArrayD2Ev
_GLOBAL__sub_I__ZN14wxBitmapButton12ms_classInfoE
_GLOBAL__sub_I__ZN14wxBookCtrlBase12ms_classInfoE
_GLOBAL__sub_I__ZN14wxCalendarCtrl13sm_eventTableE
_GLOBAL__sub_I__ZN14wxCheckListBox12ms_classInfoE
_GLOBAL__sub_I__ZN14wxColourSchemeD2Ev
_GLOBAL__sub_I__ZN14wxComboListBox13sm_eventTableE
_GLOBAL__sub_I__ZN14wxGUIAppTraits20CreateEndProcessPipeER13wxExecuteData
_GLOBAL__sub_I__ZN14wxInputHandler15HandleMouseMoveEP15wxInputConsumerRK12wxMouseEvent
_GLOBAL__sub_I__ZN14wxMonoRenderer16ms_xpmIndicatorsE
_GLOBAL__sub_I__ZN14wxPlatformInfoC2Ev
_GLOBAL__sub_I__ZN14wxPrintFactory9m_factoryE
_GLOBAL__sub_I__ZN14wxRadioBoxBase11SetMajorDimEjl
_GLOBAL__sub_I__ZN14wxScrollArrowsC2EP19wxControlWithArrows
_GLOBAL__sub_I__ZN14wxSpinCtrlText13sm_eventTableE
_GLOBAL__sub_I__ZN14wxSplashScreen12ms_classInfoE
_GLOBAL__sub_I__ZN14wxStaticBitmap12ms_classInfoE
_GLOBAL__sub_I__ZN14wxStreamBuffer8SetErrorE13wxStreamError
_GLOBAL__sub_I__ZN14wxTextUrlEvent12ms_classInfoE
_GLOBAL__sub_I__ZN14XmlStackWalker12OnStackFrameERK12wxStackFrame
_GLOBAL__sub_I__ZN15wxAdoptedWindowC2Ev
_GLOBAL__sub_I__ZN15wxClipboardBase3GetEv
_GLOBAL__sub_I__ZN15wxColourRefData18colMapAllocCounterE
_GLOBAL__sub_I__ZN15wxCursorRefDataC2Ev
_GLOBAL__sub_I__ZN15wxDisplayModule12ms_classInfoE
_GLOBAL__sub_I__ZN15wxEventLoopBase13ms_activeLoopE
_GLOBAL__sub_I__ZN15wxEventLoopImpl12ProcessEventEP7_XEvent
_GLOBAL__sub_I__ZN15wxFontPreviewer13sm_eventTableE
_GLOBAL__sub_I__ZN15wxGridSelectionC2EP6wxGridNS0_20wxGridSelectionModesE
_GLOBAL__sub_I__ZN15wxHtmlHelpFrame12ms_classInfoE
_GLOBAL__sub_I__ZN15wxHtmlLinkEvent12ms_classInfoE
_GLOBAL__sub_I__ZN15wxHtmlSelection3SetERK7wxPointPK10wxHtmlCellS2_S5_
_GLOBAL__sub_I__ZN15wxHtmlTagsCache12ms_classInfoE
_GLOBAL__sub_I__ZN15wxHyperlinkCtrl12ms_classInfoE
_GLOBAL__sub_I__ZN15wxInputConsumer7OnFocusER12wxFocusEvent
_GLOBAL__sub_I__ZN15wxMdiXmlHandler12ms_classInfoE
_GLOBAL__sub_I__ZN15wxMenuInfoArrayD2Ev
_GLOBAL__sub_I__ZN15wxMutexInternalC2E11wxMutexType
_GLOBAL__sub_I__ZN15wxPluginLibrary10ms_classesE
_GLOBAL__sub_I__ZN15wxSystemOptions9SetOptionERK8wxStringS2_
_GLOBAL__sub_I__ZN15wxTextValidator12ms_classInfoE
_GLOBAL__sub_I__ZN15wxWin32Renderer18ms_xpmFrameButtonsE
_GLOBAL__sub_I__ZN16wxDumpPreviewDlgC2EP8wxWindowRK8wxStringS4_
_GLOBAL__sub_I__ZN16wxFileDialogBase12ms_classInfoE
_GLOBAL__sub_I__ZN16wxFontEnumerator12GetFacenamesE14wxFontEncodingb
_GLOBAL__sub_I__ZN16wxFontEnumerator18EnumerateFacenamesE14wxFontEncodingb
_GLOBAL__sub_I__ZN16wxGridXmlHandler12ms_classInfoE
_GLOBAL__sub_I__ZN16wxHtmlDCRendererC2Ev
_GLOBAL__sub_I__ZN16wxHtmlHelpDialog12ms_classInfoE
_GLOBAL__sub_I__ZN16wxMenuXmlHandler12ms_classInfoE
_GLOBAL__sub_I__ZN16wxPrintPaperType12ms_classInfoE
_GLOBAL__sub_I__ZN16wxProgressDialog13sm_eventTableE
_GLOBAL__sub_I__ZN16wxSearchTextCtrl13sm_eventTableE
_GLOBAL__sub_I__ZN16wxSystemSettings9ms_screenE
_GLOBAL__sub_I__ZN16wxTimerScheduler10QueueTimerEP11wxTimerDesc16wxLongLongNative
_GLOBAL__sub_I__ZN16wxTopLevelWindow13sm_eventTableE
_GLOBAL__sub_I__ZN16wxwxMenuListNode10DeleteDataEv
_GLOBAL__sub_I__ZN17wxAutoScrollTimerC2EP8wxWindowP14wxScrollHelperiii
_GLOBAL__sub_I__ZN17wxFileTipProviderC2ERK8wxStringm
_GLOBAL__sub_I__ZN17wxFindDialogEvent12ms_classInfoE
_GLOBAL__sub_I__ZN17wxFrameXmlHandler12ms_classInfoE
_GLOBAL__sub_I__ZN17wxGaugeXmlHandler12ms_classInfoE
_GLOBAL__sub_I__ZN17wxMemoryFSHandler7AddFileERK8wxStringRK7wxImagel
_GLOBAL__sub_I__ZN17wxPanelXmlHandler12ms_classInfoE
_GLOBAL__sub_I__ZN17wxRendererGeneric12DoGetGenericEv
_GLOBAL__sub_I__ZN17wxRendererPtrBaseD2Ev
_GLOBAL__sub_I__ZN17wxSizerXmlHandler12ms_classInfoE
_GLOBAL__sub_I__ZN17wxTaskBarIconArea13sm_eventTableE
_GLOBAL__sub_I__ZN17wxTransformMatrixC2Ev
_GLOBAL__sub_I__ZN17wxTreeRenameTimerC2EP17wxGenericTreeCtrl
_GLOBAL__sub_I__ZN17wxVScrolledWindow13sm_eventTableE
_GLOBAL__sub_I__ZN17wxwxAccelListNode10DeleteDataEv
_GLOBAL__sub_I__ZN18wxAuiFloatingFrame12ms_classInfoE
_GLOBAL__sub_I__ZN18wxBitmapXmlHandler12ms_classInfoE
_GLOBAL__sub_I__ZN18wxButtonXmlHandler12ms_classInfoE
_GLOBAL__sub_I__ZN18wxChoiceXmlHandler12ms_classInfoE
_GLOBAL__sub_I__ZN18wxControlContainerC2EP8wxWindow
_GLOBAL__sub_I__ZN18wxControlWithItems12ms_classInfoE
_GLOBAL__sub_I__ZN18wxDialogXmlHandler12ms_classInfoE
_GLOBAL__sub_I__ZN18wxFontMapperModule12ms_classInfoE
_GLOBAL__sub_I__ZN18wxGenericComboCtrl13sm_eventTableE
_GLOBAL__sub_I__ZN18wxGenericDirDialog12ms_classInfoE
_GLOBAL__sub_I__ZN18wxGenericDragImage12ms_classInfoE
_GLOBAL__sub_I__ZN18wxGenericImageList12ms_classInfoE
_GLOBAL__sub_I__ZN18wxGenericValidator12ms_classInfoE
_GLOBAL__sub_I__ZN18wxHtmlBookRecArrayD2Ev
_GLOBAL__sub_I__ZN18wxImageVariantData12ms_classInfoE
_GLOBAL__sub_I__ZN18wxMimeTypeCommands16AddOrReplaceVerbERK8wxStringS2_
_GLOBAL__sub_I__ZN18wxRichTextFontPage12ms_classInfoE
_GLOBAL__sub_I__ZN18wxRichTextPrintoutC2ERK8wxString
_GLOBAL__sub_I__ZN18wxSliderXmlHandler12ms_classInfoE
_GLOBAL__sub_I__ZN18wxWizardXmlHandler12ms_classInfoE
_GLOBAL__sub_I__ZN18wxwxListStringNode10DeleteDataEv
_GLOBAL__sub_I__ZN18wxwxModuleListNode10DeleteDataEv
_GLOBAL__sub_I__ZN18wxZlibClassFactory12ms_classInfoE
_GLOBAL__sub_I__ZN19wxAuiMDIParentFrame12ms_classInfoE
_GLOBAL__sub_I__ZN19wxBitmapVariantData12ms_classInfoE
_GLOBAL__sub_I__ZN19wxColourVariantData12ms_classInfoE
_GLOBAL__sub_I__ZN19wxDocMDIParentFrame12ms_classInfoE
_GLOBAL__sub_I__ZN19wxExtHelpController12ms_classInfoE
_GLOBAL__sub_I__ZN19wxFileSystemHandler12ms_classInfoE
_GLOBAL__sub_I__ZN19wxFindReplaceDialog12ms_classInfoE
_GLOBAL__sub_I__ZN19wxGenericFileButton12ms_classInfoE
_GLOBAL__sub_I__ZN19wxGenericFontButton7ms_dataE
_GLOBAL__sub_I__ZN19wxInternetFSHandler7CanOpenERK8wxString
_GLOBAL__sub_I__ZN19wxListBoxXmlHandler12ms_classInfoE
_GLOBAL__sub_I__ZN19wxNumberEntryDialog13sm_eventTableE
_GLOBAL__sub_I__ZN19wxPostScriptPrinter12ms_classInfoE
_GLOBAL__sub_I__ZN19wxStandardPathsBase3GetEv
_GLOBAL__sub_I__ZN19wxToolBarXmlHandler12ms_classInfoE
_GLOBAL__sub_I__ZN19wxTopLevelWindowX114InitEv
_GLOBAL__sub_I__ZN20wxCheckBoxXmlHandler12ms_classInfoE
_GLOBAL__sub_I__ZN20wxComboBoxXmlHandler12ms_classInfoE
_GLOBAL__sub_I__ZN20wxDateCtrlXmlHandler12ms_classInfoE
_GLOBAL__sub_I__ZN20wxHelpControllerBase12ms_classInfoE
_GLOBAL__sub_I__ZN20wxHtmlHelpController12ms_classInfoE
_GLOBAL__sub_I__ZN20wxHtmlHelpHtmlWindow13sm_eventTableE
_GLOBAL__sub_I__ZN20wxListbookXmlHandler12ms_classInfoE
_GLOBAL__sub_I__ZN20wxListCtrlXmlHandler12ms_classInfoE
_GLOBAL__sub_I__ZN20wxNotebookXmlHandler12ms_classInfoE
_GLOBAL__sub_I__ZN20wxRadioBoxXmlHandler12ms_classInfoE
_GLOBAL__sub_I__ZN20wxRichTextXMLHandler12ms_classInfoE
_GLOBAL__sub_I__ZN20wxSymbolPickerDialog15sm_showToolTipsE
_GLOBAL__sub_I__ZN20wxTextCtrlXmlHandler12ms_classInfoE
_GLOBAL__sub_I__ZN20wxTopLevelWindowBase13sm_eventTableE
_GLOBAL__sub_I__ZN20wxTreebookXmlHandler12ms_classInfoE
_GLOBAL__sub_I__ZN20wxTreeCtrlXmlHandler12ms_classInfoE
_GLOBAL__sub_I__ZN20wxVListBoxComboPopup13sm_eventTableE
_GLOBAL__sub_I__ZN21wxAuiToolBarItemArrayD2Ev
_GLOBAL__sub_I__ZN21wxGenericColourButton7ms_dataE
_GLOBAL__sub_I__ZN21wxGenericColourDialog12ms_classInfoE
_GLOBAL__sub_I__ZN21wxPropertySheetDialog12ms_classInfoE
_GLOBAL__sub_I__ZN21wxRichTextHTMLHandler12ms_classInfoE
_GLOBAL__sub_I__ZN21wxScrollBarXmlHandler12ms_classInfoE
_GLOBAL__sub_I__ZN21wxStaticBoxXmlHandler12ms_classInfoE
_GLOBAL__sub_I__ZN21wxStatusBarXmlHandler12ms_classInfoE
_GLOBAL__sub_I__ZN22wxAuiNotebookPageArrayD2Ev
_GLOBAL__sub_I__ZN22wxChoicebookXmlHandler12ms_classInfoE
_GLOBAL__sub_I__ZN22wxGenericMessageDialog13sm_eventTableE
_GLOBAL__sub_I__ZN22wxHtmlWindowXmlHandler12ms_classInfoE
_GLOBAL__sub_I__ZN22wxQueryLayoutInfoEvent12ms_classInfoE
_GLOBAL__sub_I__ZN22wxSpinButtonXmlHandler12ms_classInfoE
_GLOBAL__sub_I__ZN22wxStaticLineXmlHandler12ms_classInfoE
_GLOBAL__sub_I__ZN22wxStaticTextXmlHandler12ms_classInfoE
_GLOBAL__sub_I__ZN22wxSystemSettingsNative9GetColourE14wxSystemColour
_GLOBAL__sub_I__ZN23wxArrayWrappedLinesDataD2Ev
_GLOBAL__sub_I__ZN23wxGenericMDIParentFrame12ms_classInfoE
_GLOBAL__sub_I__ZN23wxRadioButtonXmlHandler12ms_classInfoE
_GLOBAL__sub_I__ZN23wxSharedDCBufferManager9ms_bufferE
_GLOBAL__sub_I__ZN23wxSocketEventDispatcher11ms_instanceE
_GLOBAL__sub_I__ZN24wxArchiveFSCacheDataImplC2ERK21wxArchiveClassFactoryRK13wxBackingFile
_GLOBAL__sub_I__ZN24wxBitmapButtonXmlHandler12ms_classInfoE
_GLOBAL__sub_I__ZN24wxCalendarCtrlXmlHandler12ms_classInfoE
_GLOBAL__sub_I__ZN24wxCheckListBoxXmlHandler12ms_classInfoE
_GLOBAL__sub_I__ZN24wxStaticBitmapXmlHandler12ms_classInfoE
_GLOBAL__sub_I__ZN24wxToggleButtonXmlHandler12ms_classInfoE
_GLOBAL__sub_I__ZN24wxwxArtProvidersListNode10DeleteDataEv
_GLOBAL__sub_I__ZN24wxXmlResourceDataRecordsD2Ev
_GLOBAL__sub_I__ZN25wxAnimationCtrlXmlHandler12ms_classInfoE
_GLOBAL__sub_I__ZN25wxDirPickerCtrlXmlHandler12ms_classInfoE
_GLOBAL__sub_I__ZN25wxHyperlinkCtrlXmlHandler12ms_classInfoE
_GLOBAL__sub_I__ZN25wxMessageOutputMessageBox6PrintfEPKcz
_GLOBAL__sub_I__ZN25wxRichTextStyleDefinition12ms_classInfoE
_GLOBAL__sub_I__ZN25wxUnknownControlContainer8AddChildEP12wxWindowBase
_GLOBAL__sub_I__ZN26wxBitmapComboBoxXmlHandler12ms_classInfoE
_GLOBAL__sub_I__ZN26wxFilePickerCtrlXmlHandler12ms_classInfoE
_GLOBAL__sub_I__ZN26wxFontPickerCtrlXmlHandler12ms_classInfoE
_GLOBAL__sub_I__ZN26wxGenericDirCtrlXmlHandler12ms_classInfoE
_GLOBAL__sub_I__ZN26wxGridCellDateTimeRendererC2ERK8wxStringS2_
_GLOBAL__sub_I__ZN26wxScrolledWindowXmlHandler12ms_classInfoE
_GLOBAL__sub_I__ZN26wxSplitterWindowXmlHandler12ms_classInfoE
_GLOBAL__sub_I__ZN26wxwxRichTextObjectListNode10DeleteDataEv
_GLOBAL__sub_I__ZN27wxCollapsiblePaneXmlHandler12ms_classInfoE
_GLOBAL__sub_I__ZN27wxPostScriptPrintNativeData12ms_classInfoE
_GLOBAL__sub_I__ZN28wxColourPickerCtrlXmlHandler12ms_classInfoE
_GLOBAL__sub_I__ZN28wxComboPopupWindowEvtHandler13sm_eventTableE
_GLOBAL__sub_I__ZN28wxIndividualLayoutConstraint12ms_classInfoE
_GLOBAL__sub_I__ZN28wxwxAnimationDecoderListNode10DeleteDataEv
_GLOBAL__sub_I__ZN28wxwxSimpleDataObjectListNode10DeleteDataEv
_GLOBAL__sub_I__ZN29wxSimpleHtmlListBoxXmlHandler12ms_classInfoE
_GLOBAL__sub_I__ZN30wxOwnerDrawnComboBoxXmlHandler12ms_classInfoE
_GLOBAL__sub_I__ZN30wxRichTextStyleOrganiserDialog15sm_showToolTipsE
_GLOBAL__sub_I__ZN31wxPropertySheetDialogXmlHandler12ms_classInfoE
_GLOBAL__sub_I__ZN4wxDC12ms_classInfoE
_GLOBAL__sub_I__ZN5wxFTP12ms_classInfoE
_GLOBAL__sub_I__ZN5wxPen12ms_classInfoE
_GLOBAL__sub_I__ZN5wxURI12ms_classInfoE
_GLOBAL__sub_I__ZN6wxFont12ms_classInfoE
_GLOBAL__sub_I__ZN6wxHTTP12ms_classInfoE
_GLOBAL__sub_I__ZN6wxIcon12ms_classInfoE
_GLOBAL__sub_I__ZN6wxMask12ms_classInfoE
_GLOBAL__sub_I__ZN7wxBrush12ms_classInfoE
_GLOBAL__sub_I__ZN7wxFrame13sm_eventTableE
_GLOBAL__sub_I__ZN7wxGauge12ms_classInfoE
_GLOBAL__sub_I__ZN7wxPanel12ms_classInfoE
_GLOBAL__sub_I__ZN7wxTheme12ms_allThemesE
_GLOBAL__sub_I__ZN8GIFImageC2Ev
_GLOBAL__sub_I__ZN8wxButton12ms_classInfoE
_GLOBAL__sub_I__ZN8wxChoice12ms_classInfoE
_GLOBAL__sub_I__ZN8wxDCBase12ms_classInfoE
_GLOBAL__sub_I__ZN8wxDialog13sm_eventTableE
_GLOBAL__sub_I__ZN8wxObject12ms_classInfoE
_GLOBAL__sub_I__ZN8wxRegion12ms_classInfoE
_GLOBAL__sub_I__ZN8wxSlider12ms_classInfoE
_GLOBAL__sub_I__ZN8wxWindow12ms_classInfoE
_GLOBAL__sub_I__ZN9wxCommand12ms_classInfoE
_GLOBAL__sub_I__ZN9wxControl12ms_classInfoE
_GLOBAL__sub_I__ZN9wxEffects12ms_classInfoE
_GLOBAL__sub_I__ZN9wxListBox12ms_classInfoE
_GLOBAL__sub_I__ZN9wxOverlayC2Ev
_GLOBAL__sub_I__ZN9wxPalette12ms_classInfoE
_GLOBAL__sub_I__ZN9wxToolBar12ms_classInfoE
_GLOBAL__sub_I__ZNK12wxRegionBase7IsEqualERK8wxRegion
_GLOBAL__sub_I__ZNK14wxNotebookBase16CalcSizeFromPageERK6wxSize
_GLOBAL__sub_I__ZNK14wxRect2DDouble10IntersectsERKS_
_GLOBAL__sub_I__ZNK16wxLongLongNative7asArrayEv
_GLOBAL__sub_I__ZNK16wxSelectionStore10IsSelectedEm
_GLOBAL__sub_I__ZNK17wxAboutDialogInfo24GetDescriptionAndCreditsEv
_GLOBAL__sub_I__ZNK22wxHtmlWordWithTabsCell13ConvertToTextEP15wxHtmlSelection
_GLOBAL__sub_I__ZNK8wxMBConv7ToWCharEPwmPKcm
g_pngAtom
GSocket_Cleanup
GSocket_Init
GSocket_new
GSocket_SetGUIFunctions
gs_pfnXErrorHandler
gs_scheduler
g_targetsAtom
g_textAtom
g_UseGlobalPartialTextExtents
g_wxZipClassFactory
htmllib_chm.o:
htmllib_helpctrl.o:
htmllib_helpdata.o:
htmllib_helpdlg.o:
htmllib_helpfrm.o:
htmllib_helpwnd.o:
htmllib_htmlcell.o:
htmllib_htmlfilt.o:
htmllib_htmllbox.o:
htmllib_htmlpars.o:
htmllib_htmltag.o:
htmllib_htmlwin.o:
htmllib_htmprint.o:
htmllib_m_dflist.o:
htmllib_m_fonts.o:
htmllib_m_hline.o:
htmllib_m_image.o:
htmllib_m_layout.o:
htmllib_m_links.o:
htmllib_m_list.o:
htmllib_m_pre.o:
htmllib_m_style.o:
htmllib_m_tables.o:
htmllib_winpars.o:
list_ctrl_compare_data
list_ctrl_compare_func_2
netlib_fs_inet.o:
netlib_ftp.o:
netlib_http.o:
netlib_protocol.o:
netlib_sckaddr.o:
netlib_sckfile.o:
netlib_sckipc.o:
netlib_sckstrm.o:
netlib_socket.o:
netlib_unix_gsocket.o:
netlib_url.o:
qalib_dbgrptg.o:
qalib_debugrpt.o:
richtextlib_richtextbuffer.o:
richtextlib_richtextctrl.o:
richtextlib_richtextformatdlg.o:
richtextlib_richtexthtml.o:
richtextlib_richtextprint.o:
richtextlib_richtextstyledlg.o:
richtextlib_richtextstyles.o:
richtextlib_richtextsymboldlg.o:
richtextlib_richtextxml.o:
StartCdataHnd
StartElementHnd
__tcf_0
TextHnd
TIFFwxErrorHandler
TIFFwxWarningHandler
UnknownEncodingHnd
wxAnimationCtrlNameStr
wxAuiNullDockInfo
wxAuiNullPaneInfo
wxBitmapComboBoxNameStr
wxBitmapRadioButtonNameStr
wxButtonNameStr
wxCheckBoxNameStr
wxChoiceNameStr
wxClientWidgetHashTable
wxCollapsiblePaneNameStr
wxColourPickerCtrlNameStr
wxColourPickerWidgetNameStr
wxComboBoxNameStr
wx_comparestrings
wxControlNameStr
wxConvCurrent
wxConvFileName
wxConvISO8859_1
wxConvLibc
wxConvLocal
wxConvUI
wxConvUTF32BE
wxConvUTF32LE
wxConvUTF7
wxConvUTF8
wxDefaultDateTime
wxDefaultDateTimeFormat
wxDefaultListKey
wxDefaultPosition
wxDefaultSize
wxDefaultSpan
wxDefaultTimeSpanFormat
wxDefaultValidator
wxDialogNameStr
wxDirDialogDefaultFolderStr
wxDirDialogNameStr
wxDirPickerCtrlNameStr
wxDirPickerWidgetLabel
wxDirPickerWidgetNameStr
wxDirSelectorPromptStr
wxEmptyString
wxEVT_ACTIVATE
wxEVT_ACTIVATE_APP
wxEVT_AUI_FIND_MANAGER
wxEVT_AUI_PANE_BUTTON
wxEVT_AUI_PANE_CLOSE
wxEVT_AUI_PANE_MAXIMIZE
wxEVT_AUI_PANE_RESTORE
wxEVT_AUI_RENDER
wxEVT_CALCULATE_LAYOUT
wxEVT_CALENDAR_DAY_CHANGED
wxEVT_CALENDAR_DOUBLECLICKED
wxEVT_CALENDAR_MONTH_CHANGED
wxEVT_CALENDAR_SEL_CHANGED
wxEVT_CALENDAR_WEEKDAY_CLICKED
wxEVT_CALENDAR_YEAR_CHANGED
wxEVT_CHAR
wxEVT_CHAR_HOOK
wxEVT_CHILD_FOCUS
wxEVT_CLOSE_WINDOW
wxEVT_COMMAND_AUINOTEBOOK_ALLOW_DND
wxEVT_COMMAND_AUINOTEBOOK_BEGIN_DRAG
wxEVT_COMMAND_AUINOTEBOOK_BG_DCLICK
wxEVT_COMMAND_AUINOTEBOOK_BUTTON
wxEVT_COMMAND_AUINOTEBOOK_DRAG_DONE
wxEVT_COMMAND_AUINOTEBOOK_DRAG_MOTION
wxEVT_COMMAND_AUINOTEBOOK_END_DRAG
wxEVT_COMMAND_AUINOTEBOOK_PAGE_CHANGED
wxEVT_COMMAND_AUINOTEBOOK_PAGE_CHANGING
wxEVT_COMMAND_AUINOTEBOOK_PAGE_CLOSE
wxEVT_COMMAND_AUINOTEBOOK_PAGE_CLOSED
wxEVT_COMMAND_AUINOTEBOOK_TAB_MIDDLE_DOWN
wxEVT_COMMAND_AUINOTEBOOK_TAB_MIDDLE_UP
wxEVT_COMMAND_AUINOTEBOOK_TAB_RIGHT_DOWN
wxEVT_COMMAND_AUINOTEBOOK_TAB_RIGHT_UP
wxEVT_COMMAND_AUITOOLBAR_BEGIN_DRAG
wxEVT_COMMAND_AUITOOLBAR_MIDDLE_CLICK
wxEVT_COMMAND_AUITOOLBAR_OVERFLOW_CLICK
wxEVT_COMMAND_AUITOOLBAR_RIGHT_CLICK
wxEVT_COMMAND_AUITOOLBAR_TOOL_DROPDOWN
wxEVT_COMMAND_BUTTON_CLICKED
wxEVT_COMMAND_CHECKBOX_CLICKED
wxEVT_COMMAND_CHECKLISTBOX_TOGGLED
wxEVT_COMMAND_CHOICEBOOK_PAGE_CHANGED
wxEVT_COMMAND_CHOICEBOOK_PAGE_CHANGING
wxEVT_COMMAND_CHOICE_SELECTED
wxEVT_COMMAND_COLLPANE_CHANGED
wxEVT_COMMAND_COLOURPICKER_CHANGED
wxEVT_COMMAND_COMBOBOX_SELECTED
wxEVT_COMMAND_DIRPICKER_CHANGED
wxEVT_COMMAND_ENTER
wxEVT_COMMAND_FILEPICKER_CHANGED
wxEVT_COMMAND_FIND
wxEVT_COMMAND_FIND_CLOSE
wxEVT_COMMAND_FIND_NEXT
wxEVT_COMMAND_FIND_REPLACE
wxEVT_COMMAND_FIND_REPLACE_ALL
wxEVT_COMMAND_FONTPICKER_CHANGED
wxEVT_COMMAND_HTML_CELL_CLICKED
wxEVT_COMMAND_HTML_CELL_HOVER
wxEVT_COMMAND_HTML_LINK_CLICKED
wxEVT_COMMAND_HYPERLINK
wxEVT_COMMAND_KILL_FOCUS
wxEVT_COMMAND_LEFT_CLICK
wxEVT_COMMAND_LEFT_DCLICK
wxEVT_COMMAND_LIST_BEGIN_DRAG
wxEVT_COMMAND_LIST_BEGIN_LABEL_EDIT
wxEVT_COMMAND_LIST_BEGIN_RDRAG
wxEVT_COMMAND_LISTBOOK_PAGE_CHANGED
wxEVT_COMMAND_LISTBOOK_PAGE_CHANGING
wxEVT_COMMAND_LISTBOX_DOUBLECLICKED
wxEVT_COMMAND_LISTBOX_SELECTED
wxEVT_COMMAND_LIST_CACHE_HINT
wxEVT_COMMAND_LIST_COL_BEGIN_DRAG
wxEVT_COMMAND_LIST_COL_CLICK
wxEVT_COMMAND_LIST_COL_DRAGGING
wxEVT_COMMAND_LIST_COL_END_DRAG
wxEVT_COMMAND_LIST_COL_RIGHT_CLICK
wxEVT_COMMAND_LIST_DELETE_ALL_ITEMS
wxEVT_COMMAND_LIST_DELETE_ITEM
wxEVT_COMMAND_LIST_END_LABEL_EDIT
wxEVT_COMMAND_LIST_INSERT_ITEM
wxEVT_COMMAND_LIST_ITEM_ACTIVATED
wxEVT_COMMAND_LIST_ITEM_DESELECTED
wxEVT_COMMAND_LIST_ITEM_FOCUSED
wxEVT_COMMAND_LIST_ITEM_MIDDLE_CLICK
wxEVT_COMMAND_LIST_ITEM_RIGHT_CLICK
wxEVT_COMMAND_LIST_ITEM_SELECTED
wxEVT_COMMAND_LIST_KEY_DOWN
wxEVT_COMMAND_MENU_SELECTED
wxEVT_COMMAND_NOTEBOOK_PAGE_CHANGED
wxEVT_COMMAND_NOTEBOOK_PAGE_CHANGING
wxEVT_COMMAND_RADIOBOX_SELECTED
wxEVT_COMMAND_RADIOBUTTON_SELECTED
wxEVT_COMMAND_RICHTEXT_BUFFER_RESET
wxEVT_COMMAND_RICHTEXT_CHARACTER
wxEVT_COMMAND_RICHTEXT_CONTENT_DELETED
wxEVT_COMMAND_RICHTEXT_CONTENT_INSERTED
wxEVT_COMMAND_RICHTEXT_DELETE
wxEVT_COMMAND_RICHTEXT_LEFT_CLICK
wxEVT_COMMAND_RICHTEXT_LEFT_DCLICK
wxEVT_COMMAND_RICHTEXT_MIDDLE_CLICK
wxEVT_COMMAND_RICHTEXT_RETURN
wxEVT_COMMAND_RICHTEXT_RIGHT_CLICK
wxEVT_COMMAND_RICHTEXT_SELECTION_CHANGED
wxEVT_COMMAND_RICHTEXT_STYLE_CHANGED
wxEVT_COMMAND_RICHTEXT_STYLESHEET_CHANGED
wxEVT_COMMAND_RICHTEXT_STYLESHEET_CHANGING
wxEVT_COMMAND_RICHTEXT_STYLESHEET_REPLACED
wxEVT_COMMAND_RICHTEXT_STYLESHEET_REPLACING
wxEVT_COMMAND_RIGHT_CLICK
wxEVT_COMMAND_RIGHT_DCLICK
wxEVT_COMMAND_SCROLLBAR_UPDATED
wxEVT_COMMAND_SEARCHCTRL_CANCEL_BTN
wxEVT_COMMAND_SEARCHCTRL_SEARCH_BTN
wxEVT_COMMAND_SET_FOCUS
wxEVT_COMMAND_SLIDER_UPDATED
wxEVT_COMMAND_SPINCTRL_UPDATED
wxEVT_COMMAND_SPLITTER_DOUBLECLICKED
wxEVT_COMMAND_SPLITTER_SASH_POS_CHANGED
wxEVT_COMMAND_SPLITTER_SASH_POS_CHANGING
wxEVT_COMMAND_SPLITTER_UNSPLIT
wxEVT_COMMAND_TEXT_COPY
wxEVT_COMMAND_TEXT_CUT
wxEVT_COMMAND_TEXT_ENTER
wxEVT_COMMAND_TEXT_MAXLEN
wxEVT_COMMAND_TEXT_PASTE
wxEVT_COMMAND_TEXT_UPDATED
wxEVT_COMMAND_TEXT_URL
wxEVT_COMMAND_TOGGLEBUTTON_CLICKED
wxEVT_COMMAND_TOOLBOOK_PAGE_CHANGED
wxEVT_COMMAND_TOOLBOOK_PAGE_CHANGING
wxEVT_COMMAND_TOOL_ENTER
wxEVT_COMMAND_TOOL_RCLICKED
wxEVT_COMMAND_TREE_BEGIN_DRAG
wxEVT_COMMAND_TREE_BEGIN_LABEL_EDIT
wxEVT_COMMAND_TREE_BEGIN_RDRAG
wxEVT_COMMAND_TREEBOOK_NODE_COLLAPSED
wxEVT_COMMAND_TREEBOOK_NODE_EXPANDED
wxEVT_COMMAND_TREEBOOK_PAGE_CHANGED
wxEVT_COMMAND_TREEBOOK_PAGE_CHANGING
wxEVT_COMMAND_TREE_DELETE_ITEM
wxEVT_COMMAND_TREE_END_DRAG
wxEVT_COMMAND_TREE_END_LABEL_EDIT
wxEVT_COMMAND_TREE_GET_INFO
wxEVT_COMMAND_TREE_ITEM_ACTIVATED
wxEVT_COMMAND_TREE_ITEM_COLLAPSED
wxEVT_COMMAND_TREE_ITEM_COLLAPSING
wxEVT_COMMAND_TREE_ITEM_EXPANDED
wxEVT_COMMAND_TREE_ITEM_EXPANDING
wxEVT_COMMAND_TREE_ITEM_GETTOOLTIP
wxEVT_COMMAND_TREE_ITEM_MENU
wxEVT_COMMAND_TREE_ITEM_MIDDLE_CLICK
wxEVT_COMMAND_TREE_ITEM_RIGHT_CLICK
wxEVT_COMMAND_TREE_KEY_DOWN
wxEVT_COMMAND_TREE_SEL_CHANGED
wxEVT_COMMAND_TREE_SEL_CHANGING
wxEVT_COMMAND_TREE_SET_INFO
wxEVT_COMMAND_TREE_STATE_IMAGE_CLICK
wxEVT_COMMAND_VLBOX_SELECTED
wxEVT_COMPARE_ITEM
wxEVT_CONTEXT_MENU
wxEVT_CREATE
wxEVT_DATE_CHANGED
wxEVT_DESTROY
wxEVT_DETAILED_HELP
wxEVT_DIALUP_CONNECTED
wxEVT_DIALUP_DISCONNECTED
wxEVT_DISPLAY_CHANGED
wxEVT_DRAW_ITEM
wxEVT_DROP_FILES
wxEVT_END_PROCESS
wxEVT_END_SESSION
wxEVT_ENTER_WINDOW
wxEVT_ERASE_BACKGROUND
wxEVT_FIRST
wxEVT_GRID_CELL_BEGIN_DRAG
wxEVT_GRID_CELL_CHANGE
wxEVT_GRID_CELL_LEFT_CLICK
wxEVT_GRID_CELL_LEFT_DCLICK
wxEVT_GRID_CELL_RIGHT_CLICK
wxEVT_GRID_CELL_RIGHT_DCLICK
wxEVT_GRID_COL_MOVE
wxEVT_GRID_COL_SIZE
wxEVT_GRID_EDITOR_CREATED
wxEVT_GRID_EDITOR_HIDDEN
wxEVT_GRID_EDITOR_SHOWN
wxEVT_GRID_LABEL_LEFT_CLICK
wxEVT_GRID_LABEL_LEFT_DCLICK
wxEVT_GRID_LABEL_RIGHT_CLICK
wxEVT_GRID_LABEL_RIGHT_DCLICK
wxEVT_GRID_RANGE_SELECT
wxEVT_GRID_ROW_SIZE
wxEVT_GRID_SELECT_CELL
wxEVT_HELP
wxEVT_HIBERNATE
wxEVT_ICONIZE
wxEVT_IDLE
wxEVT_INIT_DIALOG
wxEVT_JOY_BUTTON_DOWN
wxEVT_JOY_BUTTON_UP
wxEVT_JOY_MOVE
wxEVT_JOY_ZMOVE
wxEVT_KEY_DOWN
wxEVT_KEY_UP
wxEVT_KILL_FOCUS
wxEVT_LEAVE_WINDOW
wxEVT_LEFT_DCLICK
wxEVT_LEFT_DOWN
wxEVT_LEFT_UP
wxEVT_MAXIMIZE
wxEVT_MEASURE_ITEM
wxEVT_MENU_CLOSE
wxEVT_MENU_HIGHLIGHT
wxEVT_MENU_OPEN
wxEVT_MIDDLE_DCLICK
wxEVT_MIDDLE_DOWN
wxEVT_MIDDLE_UP
wxEVT_MOTION
wxEVT_MOUSE_CAPTURE_CHANGED
wxEVT_MOUSE_CAPTURE_LOST
wxEVT_MOUSEWHEEL
wxEVT_MOVE
wxEVT_MOVING
wxEVT_NAVIGATION_KEY
wxEVT_NC_ENTER_WINDOW
wxEVT_NC_LEAVE_WINDOW
wxEVT_NC_LEFT_DCLICK
wxEVT_NC_LEFT_DOWN
wxEVT_NC_LEFT_UP
wxEVT_NC_MIDDLE_DCLICK
wxEVT_NC_MIDDLE_DOWN
wxEVT_NC_MIDDLE_UP
wxEVT_NC_MOTION
wxEVT_NC_PAINT
wxEVT_NC_RIGHT_DCLICK
wxEVT_NC_RIGHT_DOWN
wxEVT_NC_RIGHT_UP
wxEVT_NULL
wxEVT_PAINT
wxEVT_PAINT_ICON
wxEVT_PALETTE_CHANGED
wxEVT_QUERY_END_SESSION
wxEVT_QUERY_LAYOUT_INFO
wxEVT_QUERY_NEW_PALETTE
wxEVT_RIGHT_DCLICK
wxEVT_RIGHT_DOWN
wxEVT_RIGHT_UP
wxEVT_SASH_DRAGGED
wxEVT_SCROLL_BOTTOM
wxEVT_SCROLL_CHANGED
wxEVT_SCROLL_LINEDOWN
wxEVT_SCROLL_LINEUP
wxEVT_SCROLL_PAGEDOWN
wxEVT_SCROLL_PAGEUP
wxEVT_SCROLL_THUMBRELEASE
wxEVT_SCROLL_THUMBTRACK
wxEVT_SCROLL_TOP
wxEVT_SCROLLWIN_BOTTOM
wxEVT_SCROLLWIN_LINEDOWN
wxEVT_SCROLLWIN_LINEUP
wxEVT_SCROLLWIN_PAGEDOWN
wxEVT_SCROLLWIN_PAGEUP
wxEVT_SCROLLWIN_THUMBRELEASE
wxEVT_SCROLLWIN_THUMBTRACK
wxEVT_SCROLLWIN_TOP
wxEVT_SET_CURSOR
wxEVT_SET_FOCUS
wxEVT_SETTING_CHANGED
wxEVT_SHOW
wxEVT_SIZE
wxEVT_SIZING
wxEVT_SOCKET
wxEVT_SYS_COLOUR_CHANGED
wxEVT_TASKBAR_LEFT_DCLICK
wxEVT_TASKBAR_LEFT_DOWN
wxEVT_TASKBAR_LEFT_UP
wxEVT_TASKBAR_MOVE
wxEVT_TASKBAR_RIGHT_DCLICK
wxEVT_TASKBAR_RIGHT_DOWN
wxEVT_TASKBAR_RIGHT_UP
wxEVT_TIMER
wxEVT_UPDATE_UI
wxEVT_USER_FIRST
wxEVT_WIZARD_CANCEL
wxEVT_WIZARD_FINISHED
wxEVT_WIZARD_HELP
wxEVT_WIZARD_PAGE_CHANGED
wxEVT_WIZARD_PAGE_CHANGING
wxEVT_WIZARD_PAGE_SHOWN
wxFalse
wxFatalSignalHandler
wxFileDialogNameStr
wxFilePickerCtrlNameStr
wxFilePickerWidgetLabel
wxFilePickerWidgetNameStr
wxFileSelectorDefaultWildcardStr
wxFileSelectorPromptStr
wxFontPickerCtrlNameStr
wxFontPickerWidgetNameStr
wxFormatInvalid
wxFrameNameStr
wxGaugeNameStr
wxGetPasswordFromUserPromptStr
wxGetTextFromUserPromptStr
wxGridNameStr
wxGridNoCellCoords
wxGridNoCellRect
wxHtmlEntityCompare
wxHtmlListBoxNameStr
wxHyperlinkCtrlNameStr
wxInteger_compare
wxInvalidSize
wxListBoxNameStr
wxListCtrlNameStr
wxMessageBoxCaptionStr
wxNotebookNameStr
wxNullAcceleratorTable
wxNullAnimation
wxNullBitmap
wxNullBrush
wxNullColour
wxNullCursor
wxNullFont
wxNullIcon
wxNullImage
wxNullPalette
wxNullPen
wxNullVariant
wxPageNumber
wxPanelNameStr
wxPendingDelete
wxPendingEvents
wxPendingEventsLocker
wx_png_error
wx_PNG_stream_reader
wx_PNG_stream_writer
wx_png_warning
wxProtocolUsewxFileProto
wxProtocolUsewxFTP
wxProtocolUsewxHTTP
wxPthreadCleanup
wxPthreadStart
wxRadioBoxNameStr
wxRadioButtonNameStr
wxRichTextLineBreakChar
wxScrollBarNameStr
wxSearchCtrlNameStr
wxSimpleHtmlListBoxNameStr
wxSliderNameStr
wx_socket_callback
wx_spline_point_list
wxStaticBitmapNameStr
wxStaticBoxNameStr
wxStaticLineNameStr
wxStaticTextNameStr
wxStatusBarNameStr
wxStatusLineNameStr
wxStringCompareFunction
wxTextCtrlNameStr
wxTheBrushList
wxTheColourDatabase
wxTheFileIconsTable
wxTheFontList
wxThemeUsegtk
wxThemeUseMetal
wxThemeUsemono
wxThemeUsewin32
wxTheMimeTypesManager
wxThePenList
wxThePrintPaperDatabase
wxTIFFCloseIProc
wxTIFFCloseOProc
wxTIFFMapProc
wxTIFFNullProc
wxTIFFReadProc
wxTIFFSeekIProc
wxTIFFSeekOProc
wxTIFFSizeProc
wxTIFFUnmapProc
wxTIFFWriteProc
wxToolBarNameStr
wxTopLevelWindows
wxTRACE_HTML_DEBUG
wxTreeCtrlNameStr
wxWidgetHashTable
wxX11ErrorsSuspender_handler
wxX11ExposePredicate
xmllib_xml.o:
xmllib_xtixml.o:
xrclib_xh_animatctrl.o:
xrclib_xh_bmpbt.o:
xrclib_xh_bmpcbox.o:
xrclib_xh_bmp.o:
xrclib_xh_bttn.o:
xrclib_xh_cald.o:
xrclib_xh_chckb.o:
xrclib_xh_chckl.o:
xrclib_xh_choicbk.o:
xrclib_xh_choic.o:
xrclib_xh_clrpicker.o:
xrclib_xh_collpane.o:
xrclib_xh_combo.o:
xrclib_xh_datectrl.o:
xrclib_xh_dirpicker.o:
xrclib_xh_dlg.o:
xrclib_xh_filepicker.o:
xrclib_xh_fontpicker.o:
xrclib_xh_frame.o:
xrclib_xh_gauge.o:
xrclib_xh_gdctl.o:
xrclib_xh_grid.o:
xrclib_xh_htmllbox.o:
xrclib_xh_html.o:
xrclib_xh_hyperlink.o:
xrclib_xh_listbk.o:
xrclib_xh_listb.o:
xrclib_xh_listc.o:
xrclib_xh_mdi.o:
xrclib_xh_menu.o:
xrclib_xh_notbk.o:
xrclib_xh_odcombo.o:
xrclib_xh_panel.o:
xrclib_xh_propdlg.o:
xrclib_xh_radbt.o:
xrclib_xh_radbx.o:
xrclib_xh_scrol.o:
xrclib_xh_scwin.o:
xrclib_xh_sizer.o:
xrclib_xh_slidr.o:
xrclib_xh_spin.o:
xrclib_xh_split.o:
xrclib_xh_statbar.o:
xrclib_xh_stbmp.o:
xrclib_xh_stbox.o:
xrclib_xh_stlin.o:
xrclib_xh_sttxt.o:
xrclib_xh_text.o:
xrclib_xh_tglbtn.o:
xrclib_xh_toolb.o:
xrclib_xh_treebk.o:
xrclib_xh_tree.o:
xrclib_xh_unkwn.o:
xrclib_xh_wizrd.o:
xrclib_xmlres.o:
xrclib_xmlrsall.o:
_Z10DoWriteI64IxEvPKT_mP14wxOutputStreamb
_Z10DoWriteI64IyEvPKT_mP14wxOutputStreamb
_Z10median_cutP12j_decompressP3boxii
_Z10TIFFwxOpenR13wxInputStreamPKcS2_
_Z10TIFFwxOpenR14wxOutputStreamPKcS2_
_Z10update_boxP12j_decompressP3box
_Z10wxAboutBoxRK17wxAboutDialogInfo
_Z10wxCopyFileRK8wxStringS1_b
_Z10wxDecToHexi
_Z10wxDecToHexiPc
_Z10wxDoGetCwdPci
_Z10wxDumpDatePK10wxDateTime
_Z10wxFreeFontPv
_Z10wxHexToDecRK8wxString
_Z10wxLoadFontRK8wxString
_Z10wxLogDebugPKcz
_Z10wxLogErrorPKcz
_Z10wxLogTracemPKcz
_Z10wxLogTracePKcS0_z
_Z10wxLogTracePKcz
_Z10wxNextWDayRN10wxDateTime7WeekDayE
_Z10wxOnAssertPKciS0_S0_S0_
_Z10wxPathOnlyPc
_Z10wxPathOnlyRK8wxString
_Z10wxPrevWDayRN10wxDateTime7WeekDayE
_Z10wxRealPathPc
_Z10wxRealPathRK8wxString
_Z10wxShutdown15wxShutdownFlags
_Z10wxVLogInfoPKcP13__va_list_tag
_Z11wxCheckCastPv
_Z11wxContextIdi
_Z11wxDirExistsPKc
_Z11wxGetLocalev
_Z11wxGetUserIdPci
_Z11wxGetUserIdv
_Z11wxIsStockIDi
_Z11wxLogStatusP7wxFramePKcz
_Z11wxLogStatusPKcz
_Z11wxMakeGuardIPDoFvPvEPhE17wxScopeGuardImpl1IT_T0_ES5_S6_
_Z11wxMatchWildRK8wxStringS1_b
_Z11wxNextMonthRN10wxDateTime5MonthE
_Z11wxPostEventP12wxEvtHandlerR7wxEvent
_Z11wxPrevMonthRN10wxDateTime5MonthE
_Z11wxPtrToUIntPKv
_Z11wxSafeYieldP8wxWindowb
_Z11wxSetCursorRK8wxCursor
_Z11wxSnprintf_PcmPKcz
_Z11wxSplitPathPKcP8wxStringS2_S2_
_Z11wxSplitPathR13wxArrayStringPKc
_Z11wxUIntToPtrm
_Z11wxUnusedVarI11wxDirectionEvRKT_
_Z11wxUnusedVarI12wxEraseEventEvRKT_
_Z11wxUnusedVarI15wxWindowVariantEvRKT_
_Z11wxUnusedVarI8wxStringEvRKT_
_Z11wxUnusedVarIbEvRKT_
_Z11wxUnusedVarIcEvRKT_
_Z11wxUnusedVarIiEvRKT_
_Z11wxUnusedVarIP8wxFSFileEvRKT_
_Z11wxUnusedVarIP8wxWindowEvRKT_
_Z11wxUnusedVarIP9wxXmlNodeEvRKT_
_Z11wxUnusedVarIPK10wxDateTimeEvRKT_
_Z11wxUnusedVarIPvEvRKT_
_Z11wxVLogDebugPKcP13__va_list_tag
_Z11wxVLogErrorPKcP13__va_list_tag
_Z11wxVLogTracemPKcP13__va_list_tag
_Z11wxVLogTracePKcP13__va_list_tag
_Z11wxVLogTracePKcS0_P13__va_list_tag
_Z12finish_pass1P12j_decompress
_Z12finish_pass2P12j_decompress
_Z12IsDOSPathSepc
_Z12never_shrinkmm
_Z12Skip_CommentR13wxInputStream
_Z12wxAllocColorP9_XDisplaymP6XColor
_Z12wxCtorForgtkv
_Z12wxDoSetShapeP9_XDisplaymRK8wxRegion
_Z12wxEntryStartRiPPc
_Z12wxExpandPathPcPKc
_Z12wxFileExistsRK8wxString
_Z12wxGetDataDirv
_Z12wxGetDisplayv
_Z12wxGetHomeDirP8wxString
_Z12wxGetHomeDirv
_Z12wxGetUTCTimev
_Z12wxInitializeiPPc
_Z12wxIsReadableRK8wxString
_Z12wxIsWritableRK8wxString
_Z12wxLogGenericmPKcz
_Z12wxLogMessagePKcz
_Z12wxLogVerbosePKcz
_Z12wxLogWarningPKcz
_Z12wxMessageBoxRK8wxStringS1_lP8wxWindowii
_Z12wxMicroSleepm
_Z12wxMilliSleepm
_Z12wxPlatformIsi
_Z12wxRegisterIdl
_Z12wxRemoveFileRK8wxString
_Z12wxRenameFileRK8wxStringS1_b
_Z12wxSetDisplayRK8wxString
_Z12wxSizeTCmpFnmm
_Z12wxStartTimerv
_Z12wxTextAttrEqRK12wxTextAttrExRK14wxRichTextAttr
_Z12wxTextAttrEqRK12wxTextAttrExS1_
_Z12wxVLogStatusP7wxFramePKcP13__va_list_tag
_Z12wxVLogStatusPKcP13__va_list_tag
_Z12wxWakeUpIdlev
_Z13compute_colorP12j_decompressP3boxi
_Z13GetTableValuePKwwRb
_Z13wxAuiChopTextR4wxDCRK8wxStringi
_Z13wxCheckSetPenR4wxDCRK5wxPen
_Z13wxCompareIntsPiS_
_Z13wxConcatFilesRK8wxStringS1_S1_
_Z13wxCtorFormonov
_Z13wxDirSelectorRK8wxStringS1_lRK7wxPointP8wxWindow
_Z13wxDisplaySizePiS_
_Z13wxDoFloodFillP4wxDCiiRK8wxColouri
_Z13wxFlushEventsv
_Z13wxGetFileKindi
_Z13wxGetFileKindP8_IO_FILE
_Z13wxGetHostNamePci
_Z13wxGetHostNamev
_Z13wxGetKeyState9wxKeyCode
_Z13wxGetUserHomeRK8wxString
_Z13wxGetUserNamePci
_Z13wxGetUserNamev
_Z13wxHSVToXColorP6wx_hsvP6XColor
_Z13wxLogSysErrorlPKcz
_Z13wxLogSysErrorPKcz
_Z13wxSafeIsspacec
_Z13wxSetIconsX11PvS_RK12wxIconBundle
_Z13wx_spline_popPdS_S_S_S_S_S_S_
_Z13wxSysErrorMsgm
_Z13wxVLogGenericmPKcP13__va_list_tag
_Z13wxVLogMessagePKcP13__va_list_tag
_Z13wxVLogVerbosePKcP13__va_list_tag
_Z13wxVLogWarningPKcP13__va_list_tag
_Z13wxXColorToHSVP6wx_hsvP6XColor
_Z14wxCalculateDetdddd
_Z14wxCheckSetFontR4wxDCRK6wxFont
_Z14wx_clear_stackv
_Z14wxCloseDisplayv
_Z14wxContractPathRK8wxStringS1_S1_
_Z14wxCtorForMetalv
_Z14wxCtorForwin32v
_Z14wxDisplayDepthv
_Z14wxEntryCleanupv
_Z14wxFileSelectorPKcS0_S0_S0_S0_iP8wxWindowii
_Z14wxFindNextFilev
_Z14wxFontSetStyleR6wxFonti
_Z14wxGetCurrentIdv
_Z14wxGetDiskSpaceRK8wxStringP16wxLongLongNativeS3_
_Z14wxGetLocalTimev
_Z14wxGetOsVersionPiS_
_Z14wxGetPowerTypev
_Z14wxGetProcessIdv
_Z14wxIsExecutableRK8wxString
_Z14wxIsMainThreadv
_Z14wxIsNullDoubled
_Z14wxIsSameDoubledd
_Z14wxIsStockLabeliRK8wxString
_Z14wx_jpeg_io_srcP22jpeg_decompress_structR13wxInputStream
_Z14wxNewEventTypev
_Z14wx_spline_pushdddddddd
_Z14wxSysErrorCodev
_Z14wxUninitializev
_Z14wxVLogSysErrorlPKcP13__va_list_tag
_Z14wxVLogSysErrorPKcP13__va_list_tag
_Z15pass2_fs_ditherP12j_decompressPPhS2_i
_Z15pass2_no_ditherP12j_decompressPPhS2_i
_Z15wxAssertIsEqualii
_Z15wxAuiStepColourRK8wxColouri
_Z15wxCharCodeWXToXi
_Z15wxCharCodeXToWXm
_Z15wxCheckSetBrushR4wxDCRK7wxBrush
_Z15wxCollectStyle2R12wxTextAttrExRKS_RlRiS3_S4_
_Z15wxColourDisplayv
_Z15wxConvertFormatPKc
_Z15wxDisplaySizeMMPiS_
_Z15wxEndBusyCursorv
_Z15wxExpandEnvVarsRK8wxString
_Z15wxFindFirstFilePKci
_Z15wxFontSetWeightR6wxFonti
_Z15wxGetFreeMemoryv
_Z15wxGetMouseStateRiS_Rj
_Z15wxGetMouseStatev
_Z15wxGetStockLabelil
_Z15wxGetXEventNameR7_XEvent
_Z15wxGlobalDisplayv
_Z15wx_jpeg_io_destP20jpeg_compress_structR14wxOutputStream
_Z15wxLogFatalErrorPKcz
_Z15wxMutexGuiEnterv
_Z15wxMutexGuiLeavev
_Z15wxYieldIfNeededv
_Z16prescan_quantizeP12j_decompressPPhS2_i
_Z16wxAuiBlendColourhhd
_Z16wxCreateTempFileRK8wxStringP6wxFilePS_
_Z16wxCreateTempFileRK8wxStringP7wxFFilePS_
_Z16wxFileSelectorExPKcS0_S0_PiS0_iP8wxWindowii
_Z16wxFindFileInPathP8wxStringPKcS2_
_Z16wxFindMenuItemIdP7wxFrameRK8wxStringS3_
_Z16wxGetDisplayNamev
_Z16wxGetDisplaySizev
_Z16wxGetElapsedTimeb
_Z16wxGetEmptyStringv
_Z16wxGetOSDirectoryv
_Z16wxGetTranslationPKcS0_
_Z16wxGetTranslationPKcS0_mS0_
_Z16wxIsAbsolutePathRK8wxString
_Z16wxIsCDATAElementPKc
_Z16wxRichTextTabsEqRK10wxArrayIntS1_
_Z16wxStringTokenizeRK8wxStringS1_21wxStringTokenizerMode
_Z16wxStripExtensionPc
_Z16wxStripExtensionR8wxString
_Z16wxStripMenuCodesPKcPc
_Z16wxStripMenuCodesRK8wxStringi
_Z16wxVLogFatalErrorPKcP13__va_list_tag
_Z17wxBeginBusyCursorPK8wxCursor
_Z17wxFillXVisualInfoP13wxXVisualInfoP9_XDisplay
_Z17wxFontSetFaceNameR6wxFontRK8wxString
_Z17wxGenericAboutBoxRK17wxAboutDialogInfo
_Z17wxGetActiveWindowv
_Z17wxGetBatteryStatev
_Z17wxGetEmailAddressPci
_Z17wxGetEmailAddressv
_Z17wxGetFontFromUserP8wxWindowRK6wxFontRK8wxString
_Z17wxGetFullHostNamePci
_Z17wxGetFullHostNamev
_Z17wxGethostbyaddr_rPKciiP7hostentPviPi
_Z17wxGethostbyname_rPKcP7hostentPviPi
_Z17wxGetservbyname_rPKcS0_P7serventPvi
_Z17wxGetSingleChoiceRK8wxStringS1_iPS0_P8wxWindowiibii
_Z17wxGetSingleChoiceRK8wxStringS1_RK13wxArrayStringP8wxWindowiibii
_Z17wxGetTempFileNameRK8wxStringPc
_Z17wxGetTempFileNameRK8wxStringRS_
_Z17wxGetTextFromUserRK8wxStringS1_S1_P8wxWindowiib
_Z17wxGetWindowParentm
_Z17wxIsPathSeparatorc
_Z17wxIsPlatform64Bitv
_Z17wxSafeShowMessageRK8wxStringS1_
_Z17wxSetFocusToChildP8wxWindowPS0_
_Z17wxStringToIntTypeIlPDoFlPKcPPciEEbS1_PT_iT0_
_Z17wxStringToIntTypeImPDoFmPKcPPciEEbS1_PT_iT0_
_Z17wxStringToIntTypeIxPDoFxPKcPPciEEbS1_PT_iT0_
_Z17wxStringToIntTypeIyPDoFyPKcPPciEEbS1_PT_iT0_
_Z17wxWindowIsVisiblem
_Z18new_wxMBConv_iconvPKc
_Z18new_wxMBConv_wxwinPKc
_Z18start_pass_2_quantP12j_decompressb
_Z18wxAddWindowToTablemP8wxWindow
_Z18wxCheckDynamicCastP8wxObjectP11wxClassInfo
_Z18wxCopyAbsolutePathRK8wxString
_Z18wxDeleteStockListsv
_Z18wxDos2UnixFilenamePc
_Z18wxFileNameFromPathPc
_Z18wxFileNameFromPathRK8wxString
_Z18wxFindWindowByNameRK8wxStringP8wxWindow
_Z18wxFontSetPointSizeR6wxFonti
_Z18wxGetDisplaySizeMMv
_Z18wxGetInstallPrefixv
_Z18wxGetMousePositionPiS_
_Z18wxGetMousePositionv
_Z18wxGetOsDescriptionv
_Z18wxLoadFileSelectorPKcS0_S0_P8wxWindow
_Z18wxRichTextDecToHexiPc
_Z18wxRichTextHexToDecPKc
_Z18wxSaveFileSelectorPKcS0_S0_P8wxWindow
_Z18wxSetWMDecorationsml
_Z18wxTestFontEncodingRK20wxNativeEncodingInfo
_Z18wxTickGreaterEqual16wxLongLongNativeS_
_Z18wxUnix2DosFilenamePc
_Z18wxUseFilterClassesv
_Z19find_biggest_volumeP3boxi
_Z19wxAllocNearestColorP9_XDisplaymP6XColor
_Z19wxAuiBitmapFromBitsPKhiiRK8wxColour
_Z19wxCheckForInterruptP8wxWindow
_Z19wxClientDisplayRectPiS_S_S_
_Z19wxCreateGreyedImageRK7wxImageRS_
_Z19wxFindWindowAtPointP8wxWindowRK7wxPoint
_Z19wxFindWindowAtPointRK7wxPoint
_Z19wxFindWindowByLabelRK8wxStringP8wxWindow
_Z19wxFontSetUnderlinedR6wxFontb
_Z19wxGetColourFromUserP8wxWindowRK8wxColourRK8wxString
_Z19wxGetNumberFromUserRK8wxStringS1_S1_lllP8wxWindowRK7wxPoint
_Z19wxGetTopLevelParentP8wxWindow
_Z19wxListBoxSortNoCaseP8wxStringS0_
_Z19wx_quadratic_splinedddddddd
_Z19wxTextAttrEqPartialRK12wxTextAttrExRK14wxRichTextAttri
_Z19wxTextAttrEqPartialRK12wxTextAttrExS1_i
_Z19wxTranslateKeyEventR10wxKeyEventP8wxWindowmP7_XEventb
_Z19wxUseArchiveClassesv
_Z20wxAddProcessCallbackP16wxEndProcessDatai
_Z20wxCreateTempFileNameRK8wxStringP6wxFilePb
_Z20wxCreateTempFileNameRK8wxStringP7wxFFilePb
_Z20wxGetAccelFromStringRK8wxString
_Z20wxGetAvailableDrivesR13wxArrayStringS0_R10wxArrayInt
_Z20wxGetLocalTimeMillisv
_Z20wxGetMultipleChoicesR10wxArrayIntRK8wxStringS3_iPS2_P8wxWindowiibii
_Z20wxGetMultipleChoicesR10wxArrayIntRK8wxStringS3_RK13wxArrayStringP8wxWindowiibii
_Z20wxGetStockHelpStringi23wxStockHelpStringClient
_Z20wxGetWindowFromTablem
_Z20wxRichTextApplyStyleR12wxTextAttrExRK14wxRichTextAttrPS1_
_Z20wxRichTextApplyStyleR12wxTextAttrExRKS_
_Z20wxRichTextApplyStyleR14wxRichTextAttrRK12wxTextAttrEx
_Z20wxRichTextApplyStyleR14wxRichTextAttrRKS_PS_
_Z20wxRichTextModuleInitv
_Z21jinit_2pass_quantizerP12j_decompress
_Z21new_color_map_2_quantP12j_decompress
_Z21wxCreateDynamicObjectPKc
_Z21wxFindFocusDescendantP8wxWindow
_Z21wxFindWindowAtPointerR7wxPoint
_Z21wxGetPasswordFromUserRK8wxStringS1_S1_P8wxWindowiib
_Z21wxGetSingleChoiceDataRK8wxStringS1_iPS0_PPvP8wxWindowiibii
_Z21wxGetSingleChoiceDataRK8wxStringS1_RK13wxArrayStringPPvP8wxWindowiibii
_Z21wxGetStockAcceleratori
_Z21wxGetWorkingDirectoryPci
_Z21wxRichTextFixFaceNameR8wxString
_Z21wxRichTextRemoveStyleR12wxTextAttrExRK14wxRichTextAttr
_Z21wxSetWorkingDirectoryRK8wxString
_Z21wxStringSortAscendingP8wxStringS0_
_Z21wxTranslateMouseEventR12wxMouseEventP8wxWindowmP7_XEvent
_Z22find_biggest_color_popP3boxi
_Z22wxFileModificationTimeRK8wxString
_Z22wxFontStyleIntToStringi
_Z22wxFontStyleStringToIntPc
_Z22wxGetClientDisplayRectv
_Z22wxGetSingleChoiceIndexRK8wxStringS1_iPS0_P8wxWindowiibii
_Z22wxGetSingleChoiceIndexRK8wxStringS1_RK13wxArrayStringP8wxWindowiibii
_Z22wxInitAllImageHandlersv
_Z22wxInitializeStockListsv
_Z22wxLaunchDefaultBrowserRK8wxStringi
_Z22wxLoadQueryNearestFontiiiibRK8wxString14wxFontEncodingPS_
_Z22wxStringSortDescendingP8wxStringS0_
_Z22wxTransferFileToStreamRK8wxStringRSo
_Z22wxTransferStreamToFileRSiRK8wxString
_Z23wxCreateFileTipProviderRK8wxStringm
_Z23wxDeleteWindowFromTablem
_Z23wxEnableTopLevelWindowsb
_Z23wxEndsWithPathSeparatorPKc
_Z23wxFontFamilyIntToStringi
_Z23wxFontFamilyStringToIntPc
_Z23wxFontWeightIntToStringi
_Z23wxFontWeightStringToIntPc
_Z23wxGetNativeFontEncoding14wxFontEncodingP20wxNativeEncodingInfo
_Z23wxHandleFatalExceptionsb
_Z23wxResetIncompatibleBitsiiRiS_
_Z23wxSetFullScreenStateX11PvS_S_bP6wxRect21wxX11FullScreenMethod
_Z23wxXmlInitResourceModulev
_Z24list_ctrl_compare_func_1PP14wxListLineDataS1_
_Z24wxAddClientWindowToTablemP8wxWindow
_Z24wxAuiLightContrastColourRK8wxColour
_Z24wxGetFullScreenMethodX11PvS_
_Z24wxIsPlatformLittleEndianv
_Z24wxRichTextDecimalToRomanl
_Z25prepare_range_limit_tableP12j_decompress
_Z25_wx_link_dummy_func_m_prev
_Z25wxRichTextCombineBitlistsRiiS_i
_Z25wxSetDetectableAutoRepeatb
_Z25wxSetFontPreservingStylesR10wxTextAttrRK6wxFont
_Z26wxAuiManager_HasLiveResizeR12wxAuiManager
_Z26wxCheckForFinishedChildrenv
_Z26wxGenericFindWindowAtPointRK7wxPoint
_Z26wxGetClientWindowFromTablem
_Z26wxHandleProcessTerminationP16wxEndProcessData
_Z26_wx_link_dummy_func_m_listv
_Z26wxParseCommonDialogsFilterRK8wxStringR13wxArrayStringS3_
_Z27_wx_link_dummy_func_m_fontsv
_Z27_wx_link_dummy_func_m_hlinev
_Z27_wx_link_dummy_func_m_imagev
_Z27_wx_link_dummy_func_m_linksv
_Z27_wx_link_dummy_func_m_stylev
_Z27wxRichTextBitlistsEqPartialiii
_Z28_wx_link_dummy_func_m_dflistv
_Z28_wx_link_dummy_func_m_layoutv
_Z28_wx_link_dummy_func_m_tablesv
_Z29wxDeleteClientWindowFromTablem
_Z29wxRichTextSplitParaCharStylesRK12wxTextAttrExRS_S2_
_Z29wxSetLaunchDefaultBrowserImplPFbRK8wxStringiE
_Z33wxDefaultArtProvider_CreateBitmapRK8wxString
_Z39wxRichTextCtrlRefreshForSelectionChangeR14wxRichTextCtrlRK15wxRichTextRangeS3_
_Z3ABSi
_Z41__static_initialization_and_destruction_0ii
_Z4endlR18wxTextOutputStream
_Z5wxNowv
_Z6wxBellv
_Z6wxEndLR14wxOutputStream
_Z6wxExitv
_Z6wxKilll8wxSignalP11wxKillErrori
_Z6wxTrapv
_Z7GetLineP12wxSocketBaseR8wxString
_Z7InRangeiii
_Z7ReadPCXP7wxImageR13wxInputStream
_Z7SavePCXP7wxImageR14wxOutputStream
_Z7wxEntryRiPPc
_Z7wxMB2WCPwPKcm
_Z7wxMkdirRK8wxStringi
_Z7wxNewIdv
_Z7wxRmdirRK8wxStringi
_Z7wxRoundd
_Z7wxShellRK8wxString
_Z7wxShellRK8wxStringR13wxArrayString
_Z7wxSleepi
_Z7wxWC2MBPcPKwm
_Z7wxYieldv
_Z8DoReadLLI16wxLongLongNativeEvPT_mP13wxInputStreamb
_Z8DoReadLLI17wxULongLongNativeEvPT_mP13wxInputStreamb
_Z8wxGetCwdv
_Z8wxGetEnvRK8wxStringPS_
_Z8wxIsBusyv
_Z8wxIsWildRK8wxString
_Z8wxOKlibcv
_Z8wxSetEnvRK8wxStringPKc
_Z8wxStrlenPKc
_Z8wxUsleepm
_Z9DoReadI64IxEvPT_mP13wxInputStreamb
_Z9DoReadI64IyEvPT_mP13wxInputStreamb
_Z9DoWriteLLI16wxLongLongNativeEvPKT_mP14wxOutputStreamb
_Z9DoWriteLLI17wxULongLongNativeEvPKT_mP14wxOutputStreamb
_Z9grow_lf70mm
_Z9RLEdecodePhjR13wxInputStream
_Z9RLEencodePhjR14wxOutputStream
_Z9wxExecutePPciP9wxProcess
_Z9wxExecuteRK8wxStringiP9wxProcess
_Z9wxExecuteRK8wxStringR13wxArrayStringi
_Z9wxExecuteRK8wxStringR13wxArrayStringS3_i
_Z9wxGetAsIsP12wxWindowBasePiS1_
_Z9wxIsEmptyPKc
_Z9wxLogInfoPKcz
_Z9wxShowTipP8wxWindowP13wxTipProviderb
_Z9wxStrdupWPKw
_Z9wxTmemchrPKvim
_Z9wxTmemcmpPKvS0_m
_Z9wxTmemcpyPvPKvm
_ZeqcRK8wxString
_ZeqPKcRK8wxString
_ZeqRK12wxTreeItemIdS1_
_ZeqRK8wxStringc
_ZeqRK8wxStringPKc
_ZeqRK8wxStringS1_
_ZGVZ12GSocket_InitE5table
_ZGVZ19wxGetColourFromUserP8wxWindowRK8wxColourRK8wxStringE4data
_ZGVZ24wxRichTextDecimalToRomanlE12romanNumbers
_ZGVZ24wxRichTextDecimalToRomanlE14decimalNumbers
_ZGVZ6wxEndLR14wxOutputStreamE3eol
_ZGVZL12wxGetTarUservE2cs
_ZGVZL12wxGetTarUservE2tu
_ZGVZN10wxCheckBox21CreateStdInputHandlerEP14wxInputHandlerE9s_handler
_ZGVZN10wxComboBox18GetStdInputHandlerEP14wxInputHandlerE9s_handler
_ZGVZN10wxGTKTheme15GetInputHandlerERK8wxStringP15wxInputConsumerE12s_handlerDef
_ZGVZN10wxGTKTheme15GetInputHandlerERK8wxStringP15wxInputConsumerE9s_handler
_ZGVZN10wxGTKTheme15GetInputHandlerERK8wxStringP15wxInputConsumerE9s_handler_0
_ZGVZN10wxGTKTheme15GetInputHandlerERK8wxStringP15wxInputConsumerE9s_handler_1
_ZGVZN10wxNotebook18GetStdInputHandlerEP14wxInputHandlerE9s_handler
_ZGVZN10wxTextCtrl18GetStdInputHandlerEP14wxInputHandlerE9s_handler
_ZGVZN11wxScrollBar18GetStdInputHandlerEP14wxInputHandlerE9s_handler
_ZGVZN12wxAppConsole13OnInitCmdLineER15wxCmdLineParserE11cmdLineDesc
_ZGVZN12wxButtonBase14GetDefaultSizeEvE9s_sizeBtn
_ZGVZN12wxDialogBase13OnCloseWindowER12wxCloseEventE7closing
_ZGVZN12wxSpinButton18GetStdInputHandlerEP14wxInputHandlerE9s_handler
_ZGVZN12wxWin32Theme15GetInputHandlerERK8wxStringP15wxInputConsumerE12s_handlerDef
_ZGVZN12wxWin32Theme15GetInputHandlerERK8wxStringP15wxInputConsumerE9s_handler
_ZGVZN12wxWin32Theme15GetInputHandlerERK8wxStringP15wxInputConsumerE9s_handler_0
_ZGVZN12wxWin32Theme15GetInputHandlerERK8wxStringP15wxInputConsumerE9s_handler_1
_ZGVZN12wxWin32Theme15GetInputHandlerERK8wxStringP15wxInputConsumerE9s_handler_2
_ZGVZN12wxWin32Theme15GetInputHandlerERK8wxStringP15wxInputConsumerE9s_handler_3
_ZGVZN13wxRendererPtr3GetEvE10s_renderer
_ZGVZN14wxCheckListBox18GetStdInputHandlerEP14wxInputHandlerE9s_handler
_ZGVZN16wxColourDatabase10FindColourERK8wxStringE5s_col
_ZGVZN16wxFontEnumerator15IsValidFacenameERK8wxStringE5s_arr
_ZGVZN16wxTopLevelWindow18GetStdInputHandlerEP14wxInputHandlerE9s_handler
_ZGVZN18wxGUIAppTraitsBase26GetSocketGUIFunctionsTableEvE5table
_ZGVZN19wxFileSystemHandler18GetMimeTypeFromExtERK8wxStringE9fallbacks
_ZGVZN19wxFindReplaceDialog6CreateEP8wxWindowP17wxFindReplaceDataRK8wxStringiE16searchDirections
_ZGVZN20wxGenericAboutDialog18AddCollapsiblePaneERK8wxStringS2_E8maxWidth
_ZGVZN23wxGenericMDIParentFrame12ProcessEventER7wxEventE7inEvent
_ZGVZN8wxButton18GetStdInputHandlerEP14wxInputHandlerE12s_handlerBtn
_ZGVZN8wxDialog13OnCloseWindowER12wxCloseEventE9s_closing
_ZGVZN8wxSlider18GetStdInputHandlerEP14wxInputHandlerE9s_handler
_ZGVZN9wxAppBase13OnInitCmdLineER15wxCmdLineParserE14cmdLineGUIDesc
_ZGVZN9wxEffects10TileBitmapERK6wxRectR4wxDCRK8wxBitmapE8hiColour
_ZGVZN9wxListBox18GetStdInputHandlerEP14wxInputHandlerE9s_handler
_ZGVZN9wxToolBar18GetStdInputHandlerEP14wxInputHandlerE9s_handler
_ZGVZNK8wxMBConv6cWC2MBEPKwE8extraLen
_ZL10bdiag_bits
_ZL10cdiag_bits
_ZL10close_bits
_ZL10cross_bits
_ZL10delete_xpm
_ZL10dir_up_xpm
_ZL10DrawBorderP12wxWindowBaseRK6wxRectb
_ZL10DrawSizersP12wxWindowBase
_ZL10fdiag_bits
_ZL10floppy_xpm
_ZL10folder_xpm
_ZL10GetAppNameRK8wxString
_ZL10g_fontHash
_ZL10g_globalDC
_ZL10GNU_VERION
_ZL10gs_dirPath
_ZL10gs_factory
_ZL10gs_handler
_ZL10gs_keySelf
_ZL10gs_procmap
_ZL10gs_tidMain
_ZL10g_strEmpty
_ZL10horiz_bits
_ZL10ID_DIRCTRL
_ZL10ID_GO_HOME
_ZL10IsWordCharc
_ZL10JDN_0_YEAR
_ZL10JDN_OFFSET
_ZL10MatchPixelP7wxImageiiiiRK8wxColour
_ZL10MergeNodesR9wxXmlNodeS0_
_ZL10NotAllNULsPKcm
_ZL10OutputNodeR14wxOutputStreamP9wxXmlNodeiP8wxMBConvS4_i
_ZL10ParseColorPKc
_ZL10ReadStringR13wxInputStreamtR8wxMBConv
_ZL10ReadStringR8wxStringP13wxInputStreamR8wxMBConv
_ZL10right_bits
_ZL10utf7encode
_ZL10verti_bits
_ZL10WHITESPACEc
_ZL10_WIN_LAYER
_ZL10wxHasStylell
_ZL10wxKeyNames
_ZL10wxLockFilei13LockOperation
_ZL10wxTempOpenP7wxFFileRK8wxStringPb
_ZL10wxTempOpenRK8wxStringPb
_ZL10xpmChecked
_ZL10xpmUpArrow
_ZL11AllAsStringRK13wxArrayString
_ZL11CELL_BORDER
_ZL11checked_xpm
_ZL11CrackUint16PKc
_ZL11CrackUint32PKc
_ZL11csquery_xpm
_ZL11deffile_xpm
_ZL11DrawButtonsR4wxDCRK6wxRectRK8wxBitmapRK8wxColouri
_ZL11exefile_xpm
_ZL11ExtractLangRK8wxString
_ZL11EXTRA_WIDTH
_ZL11flags2Stylei
_ZL11forward_xpm
_ZL11GetDataSizeRK10wxTarEntry
_ZL11GetEncTable14wxFontEncoding
_ZL11GetKDEThemeRK13wxArrayString
_ZL11GetMaxLayerRK18wxAuiDockInfoArrayi
_ZL11GetTimeZonev
_ZL11GetTypeName18wxCmdLineParamType
_ZL11g_nextFocus
_ZL11g_prevFocus
_ZL11gs_initData
_ZL11gs_mutexGui
_ZL11gs_platInfo
_ZL11gs_stdPaths
_ZL11HexPropertyP9wxXmlNodePKcm
_ZL11htmbook_xpm
_ZL11htmpage_xpm
_ZL11ICON_MARGIN
_ZL11ICON_OFFSET
_ZL11ID_TEXTCTRL
_ZL11ITEM_MARGIN
_ZL11JDN_0_MONTH
_ZL11LEN_SUBLANG
_ZL11missimg_xpm
_ZL11new_dir_xpm
_ZL11NumPropertyP9wxXmlNodePKcm
_ZL11OpenLogFileR6wxFileP8wxStringP8wxWindow
_ZL11repview_xpm
_ZL11RoundUpSizeli
_ZL11SEC_PER_MIN
_ZL11spline_cubed
_ZL11TextElementP9wxXmlNodePKcRK8wxString
_ZL11tipicon_xpm
_ZL11USTAR_MAGIC
_ZL11warning_xpm
_ZL11wxCurrentId
_ZL11wxEVT_POWER
_ZL11wxGetPoolGCm12wxPoolGCType
_ZL11wxIsNumericRK8wxString
_ZL11wxSetLocaleP8wxLocale
_ZL11wxStartTime
_ZL12addbookm_xpm
_ZL12BOX_BORDER_X
_ZL12BOX_BORDER_Y
_ZL12CallStrftimePKcPK2tm
_ZL12CallStrptimePKcS0_P2tm
_ZL12CharToStringP8wxMBConvPKcm
_ZL12decode_utf16PKtRj
_ZL12delbookm_xpm
_ZL12DeleteThreadP8wxThread
_ZL12DoInsertPaneR18wxAuiPaneInfoArrayiiii
_ZL12encode_utf16jPt
_ZL12ErrorHandlerP9_XDisplayP11XErrorEvent
_ZL12EXTRA_HEIGHT
_ZL12fileopen_xpm
_ZL12filesave_xpm
_ZL12FindEncodingRK19wxFontEncodingArray14wxFontEncoding
_ZL12findrepl_xpm
_ZL12flags2Weighti
_ZL12GetBaseColorv
_ZL12gs_blinkTime
_ZL12gs_busyCount
_ZL12gs_clipboard
_ZL12gs_encodings
_ZL12g_showIconic
_ZL12gs_nameCache
_ZL12harddisk_xpm
_ZL12hatch_bitmap
_ZL12helpicon_xpm
_ZL12htmfoldr_xpm
_ZL12htmoptns_xpm
_ZL12htmsidep_xpm
_ZL12INVALID_PAGE
_ZL12KWIN_RUNNING
_ZL12LINE_SPACING
_ZL12listview_xpm
_ZL12MIN_PER_HOUR
_ZL12MYcopystringPKc
_ZL12MYcopystringRK8wxString
_ZL12_NET_WM_ICON
_ZL12OutputStringR14wxOutputStreamRK8wxStringP8wxMBConvS5_
_ZL12PaneSortFuncPP13wxAuiPaneInfoS1_
_ZL12question_xpm
_ZL12SafeFileNameRK8wxString
_ZL12SetTimeLabelmP12wxStaticText
_ZL12SetToTheWeekitN10wxDateTime7WeekDayENS_9WeekFlagsE
_ZL12ShowToolTipsv
_ZL12toparent_xpm
_ZL12wxFreePoolGCP4_XGC
_ZL12wxGetTarUserv
_ZL12wxInitGCPoolv
_ZL12wx_stack_top
_ZL12wxStepColourRK8wxColouri
_ZL12wxUnicodePUA
_ZL12xpmDownArrow
_ZL12xpmLeftArrow
_ZL12xpmUnchecked
_ZL12XRCID_LookupPKci
_ZL13CompareGroupsP17wxFileConfigGroupS0_
_ZL13DAYS_PER_WEEK
_ZL13DoRegionUnionR12wxRegionBaseRK7wxImagehhhi
_ZL13DrawFocusRectP8wxWindowR4wxDCRK6wxRecti
_ZL13FilterInValueRK8wxString
_ZL13FindExtensionPKc
_ZL13GetAlphaTokenRPKc
_ZL13GetMultiplierv
_ZL13GetOptionNamePKcS0_
_ZL13GetSystemFontRK8wxString
_ZL13g_initialSize
_ZL13gs_allThreads
_ZL13gs_soundMutex
_ZL13HOURS_PER_DAY
_ZL13ignoreChanges
_ZL13INVALID_WIDTH
_ZL13IsTransparenth
_ZL13_NET_WM_STATE
_ZL13removable_xpm
_ZL13SCROLL_UNIT_X
_ZL13select_colorsP12j_decompressi
_ZL13SetActivePaneR18wxAuiPaneInfoArrayP8wxWindow
_ZL13SetTraceMasksv
_ZL13SLIDER_MARGIN
_ZL13spline_weightd
_ZL13TEXT_MARGIN_X
_ZL13TEXT_MARGIN_Y
_ZL13theRGBRecords
_ZL13unchecked_xpm
_ZL13USTAR_VERSION
_ZL13wxApplyResizeR21wxInteractiveMoveDataRK7wxPoint
_ZL13wxBlendColourddd
_ZL13wxConvLibcObj
_ZL13wxConvUTF7Obj
_ZL13wxConvUTF8Obj
_ZL13wxDoCmpNoCasePKcmS0_m
_ZL13wx_error_exitP18jpeg_common_struct
_ZL13wxID_NEXT_TIP
_ZL13wxIsWhiteOnlyPKc
_ZL13wxKwinRunningP9_XDisplaym
_ZL13wxPortIdNames
_ZL13wxRotatePointddddRK11wxRealPoint
_ZL13wxRotatePointRK11wxRealPointddS1_
_ZL13wxTabSortFuncPiS_
_ZL13wxTarUserNamei
_ZL13xpmRightArrow
_ZL13XRCID_Records
_ZL14AdjustFontSizeR6wxFontR4wxDCRK6wxSize
_ZL14AttributeToXMLRK8wxString
_ZL14CacheReadInt32P13wxInputStream
_ZL14CompareEntriesP17wxFileConfigEntryS0_
_ZL14CompressSpacesRK8wxString
_ZL14CreateFontListc14wxFontEncodingPi
_ZL14DrawResizeHintR4wxDCRK6wxRect
_ZL14encodings_list
_ZL14EXTRA_BORDER_X
_ZL14EXTRA_BORDER_Y
_ZL14ExtractNotLangRK8wxString
_ZL14filesaveas_xpm
_ZL14FilterOutValueRK8wxString
_ZL14FindMaskColourPPhjjRhS1_S1_
_ZL14FindPaneInDockRK13wxAuiDockInfoP8wxWindow
_ZL14GetKDEAppsDirsRK13wxArrayStringRS_
_ZL14GetKDEBaseDirsR13wxArrayString
_ZL14GetKDEIconDirsRK13wxArrayStringRS_
_ZL14GetKDEMimeDirsRK13wxArrayStringRS_
_ZL14GetRGBFromNamePKcPbPhS2_S2_
_ZL14GRID_HASH_SIZE
_ZL14gs_displayName
_ZL14gs_optionNames
_ZL14gs_savedCursor
_ZL14ID_SHOW_HIDDEN
_ZL14IsDescendantOfPK17wxGenericTreeItemS1_
_ZL14MONTHS_IN_YEAR
_ZL14_NET_SUPPORTED
_ZL14OrderPositionsRlS_
_ZL14SwitchSelStateR4wxDCR19wxHtmlRenderingInfob
_ZL14wxALPHA_OPAQUE
_ZL14wx_cmyk_to_rgbPhPKh
_ZL14wxConvLocalObj
_ZL14wxGetSubPixmapPvS_iiiii
_ZL14wx_init_sourceP22jpeg_decompress_struct
_ZL14wx_stack_count
_ZL14wxTarGroupNamei
_ZL14wx_term_sourceP22jpeg_decompress_struct
_ZL14wxTestFontSpecRK8wxString
_ZL15auiNewRowPixels
_ZL15auiToolBarLayer
_ZL15BUTTON_BORDER_X
_ZL15BUTTON_BORDER_Y
_ZL15CacheReadStringP13wxInputStream
_ZL15CacheWriteInt32P14wxOutputStreami
_ZL15CoordToRowOrColiiiRK10wxArrayIntib
_ZL15CopyDataFromPNGP7wxImagePPhjji
_ZL15DoCommonPreInitv
_ZL15DoInsertDockRowR18wxAuiPaneInfoArrayiii
_ZL15ElementForArrowN14wxScrollArrows5ArrowE
_ZL15folder_open_xpm
_ZL15g_captureWindow
_ZL15GetNumericTokenmRPKcPm
_ZL15GetSystemColourRK8wxString
_ZL15GetTruncatedJDNtN10wxDateTime5MonthEi
_ZL15gs_optionValues
_ZL15HEADER_OFFSET_X
_ZL15HEADER_OFFSET_Y
_ZL15MakeCorrectPathRK8wxString
_ZL15MENU_BMP_MARGIN
_ZL15MENU_CHECK_SIZE
_ZL15OutputStringEntR14wxOutputStreamRK8wxStringP8wxMBConvS5_
_ZL15PIXELS_PER_UNIT
_ZL15SECONDS_PER_DAY
_ZL15TRACE_CLIPBOARD
_ZL15wxCleanUpGCPoolv
_ZL15wxInvalidOffset
_ZL15wxLoadQueryFontiiiibRK8wxStringS1_S1_PS_
_ZL15wx_spline_stack
_ZL15wxUnicodePUAEnd
_ZL15wxXErrorHandlerP9_XDisplayP11XErrorEvent
_ZL15xpmRadioChecked
_ZL16BORDER_THICKNESS
_ZL16CacheWriteStringP14wxOutputStreamRK8wxString
_ZL16checked_item_xpm
_ZL16checked_menu_xpm
_ZL16DAYS_PER_4_YEARS
_ZL16DoCommonPostInitv
_ZL16EscapeDelimitersRK8wxString
_ZL16find_best_colorsP12j_decompressiiiiPhS1_
_ZL16flags2Underlinedi
_ZL16GetMonthFromNameRK8wxStringi
_ZL16gs_cumulatedDays
_ZL16gs_encodingDescs
_ZL16gs_encodingNames
_ZL16gs_gui_functions
_ZL16gs_sortAscending
_ZL16g_unixPathString
_ZL16init_error_limitP12j_decompress
_ZL16IsEmptyContainerP19wxHtmlContainerCell
_ZL16MENU_HORZ_MARGIN
_ZL16MENU_LEFT_MARGIN
_ZL16MENU_VERT_MARGIN
_ZL16MSGCATALOG_MAGIC
_ZL16numTheRGBRecords
_ZL16ParseHexadecimalcc
_ZL16s_fontWidthCache
_ZL16ShowAssertDialogPKciS0_S0_S0_P11wxAppTraits
_ZL16s_MRUEntryFormat
_ZL16undetermined_xpm
_ZL16wxAssignTempImplP10wxFileNameRK8wxStringP6wxFileP7wxFFile
_ZL16wxBuildFontSizesPii
_ZL16wxCreateTempImplRK8wxStringP6wxFileP7wxFFilePb
_ZL16wxCreateTempImplRK8wxStringP6wxFileP7wxFFilePS_
_ZL16wxImageFloodFillP7wxImageiiRK7wxBrushRK8wxColourii
_ZL16wxIsAlphaNumericRK8wxString
_ZL16wxROTATE_EPSILON
_ZL16wxWMspecSetStateP9_XDisplaymmim
_ZL16xpmUndeterminate
_ZL17BuildReverseTablePKt
_ZL17checked_radio_xpm
_ZL17CheckTransparencyPPhjjjjm
_ZL17CleanXRCID_RecordP12XRCID_record
_ZL17ColourToHexStringRK8wxColour
_ZL17ConvertWXArrayToCRK13wxArrayStringPP8wxString
_ZL17CopyDocksAndPanesR18wxAuiDockInfoArrayR18wxAuiPaneInfoArrayRKS_RKS1_
_ZL17dataFormatInvalid
_ZL17DAYS_PER_5_MONTHS
_ZL17DoInsertDockLayerR18wxAuiPaneInfoArrayii
_ZL17fill_inverse_cmapP12j_decompressiii
_ZL17FilterInEntryNameRK8wxString
_ZL17GetFullSearchPathPKc
_ZL17GetKDEThemeInFileRK10wxFileName
_ZL17GetLongOptionNamePKc
_ZL17gs_condAllDeleted
_ZL17gs_currentDisplay
_ZL17gs_searchPrefixes
_ZL17HexStringToColourRK8wxString
_ZL17HtmlizeLinebreaksRK8wxString
_ZL17INVALID_POS_VALUE
_ZL17MENU_ACCEL_MARGIN
_ZL17MENU_RIGHT_MARGIN
_ZL17OutputIndentationR14wxOutputStreami
_ZL17SetFontsToHtmlWinP12wxHtmlWindowRK8wxStringS3_i
_ZL17s_treeBeingSorted
_ZL17WIDTH_COL_DEFAULT
_ZL17wxDecodeSurrogatePPKt
_ZL17wxEndiannessNames
_ZL17wxGetBestTreeSizePK14wxTreeCtrlBase12wxTreeItemIdR6wxSize
_ZL17wxGetVolumeStringRK8wxString12wxPathFormat
_ZL17wx_ignore_messageP18jpeg_common_struct
_ZL17wxIsWordDelimiterRK8wxString
_ZL17xpmRadioUnchecked
_ZL18auiInsertRowPixels
_ZL18CleanXRCID_Recordsv
_ZL18CompareAccelStringRK8wxStringPKc
_ZL18DAYS_PER_400_YEARS
_ZL18DoAddWindowToTableP12wxWindowHashmP8wxWindow
_ZL18DoCommonPreCleanupv
_ZL18DoRemoveFromArraysmR10wxArrayIntS0_
_ZL18DoShowAssertDialogRK8wxString
_ZL18EXITCODE_CANCELLED
_ZL18FilterOutEntryNameRK8wxString
_ZL18find_nearby_colorsP12j_decompressiiiPh
_ZL18FRAME_BUTTON_WIDTH
_ZL18GetAddressFromNameRK8wxStringS1_
_ZL18GetDayOfYearFromTmRKN10wxDateTime2TmE
_ZL18GetShortOptionNamePKc
_ZL18GetWeekDayFromNameRK8wxStringi
_ZL18g_nativePathString
_ZL18GRID_SCROLL_LINE_X
_ZL18GRID_SCROLL_LINE_Y
_ZL18gs_compareFunction
_ZL18gs_CurrentDragItem
_ZL18gs_mutexAllThreads
_ZL18IsNumberedAccelKeyRK8wxStringPKc9wxKeyCodejj
_ZL18MakeDisabledBitmapR8wxBitmap
_ZL18MatchBoundaryPixelP7wxImageiiiiRK8wxColourS3_
_ZL18SLIDER_TICK_LENGTH
_ZL18unchecked_item_xpm
_ZL18wxAuiBaseTabCtrlId
_ZL18wxCalcPrecAndShiftmPiS_
_ZL18wxConvISO8859_1Obj
_ZL18wxDrawSplashBitmapR4wxDCRK8wxBitmapii
_ZL18wxFileOffsetToTIFFl
_ZL18wxFindWindowCmpIdsPK8wxWindowRK8wxStringl
_ZL18wxFindWindowHelperPK8wxWindowRK8wxStringlPFbS1_S4_lE
_ZL18wxGetCommandOutputRK8wxString
_ZL18wxGetRichTextStyleRK8wxString
_ZL18wxInvalidTextCoord
_ZL18wxMakeShellCommandRK8wxString
_ZL18wxSeekModeFromTIFFi
_ZL18wxSetKDEFullscreenP9_XDisplaymmbP6wxRect
_ZL18wx_skip_input_dataP22jpeg_decompress_structl
_ZL18wxWinHintsSetLayerP9_XDisplaymmi
_ZL19AddStdXRCID_Recordsv
_ZL19AUTOSIZE_COL_MARGIN
_ZL19DISABLED_TEXT_COLOR
_ZL19DoCommonPostCleanupv
_ZL19EquivalentEncodings
_ZL19EventFlagsToSelTypelbbRbS_S_
_ZL19FRAME_BUTTON_HEIGHT
_ZL19GetNumOfDaysInMonthiN10wxDateTime5MonthE
_ZL19GetStaticBoxBordersP11wxStaticBoxPiS1_
_ZL19gs_mimeTypesManager
_ZL19g_wxTarClassFactory
_ZL19IndentPressedBitmapP6wxRecti
_ZL19MARGIN_BETWEEN_ROWS
_ZL19MSGCATALOG_MAGIC_SW
_ZL19_NET_WM_WINDOW_TYPE
_ZL19OutputEscapedStringR14wxOutputStreamRK8wxStringP8wxMBConvS5_12EscapingMode
_ZL19pressed_checked_xpm
_ZL19RemovePaneFromDocksR18wxAuiDockInfoArrayR13wxAuiPaneInfoP13wxAuiDockInfo
_ZL19s_launchBrowserImpl
_ZL19SLIDER_LABEL_MARGIN
_ZL19SLIDER_THUMB_LENGTH
_ZL19STATUSBAR_GRIP_SIZE
_ZL19StripProtocolAnchorRK8wxString
_ZL19unchecked_radio_xpm
_ZL19wxALPHA_TRANSPARENT
_ZL19wxArchitectureNames
_ZL19wxColourDialogNames
_ZL19wxDEFAULT_FONT_SIZE
_ZL19wxGetResizingCursorlR8wxCursor
_ZL19wx_init_destinationP20jpeg_compress_struct
_ZL19wxLogSysErrorHelperl
_ZL19wx_spline_add_pointdd
_ZL19wx_term_destinationP20jpeg_compress_struct
_ZL20auiLayerInsertOffset
_ZL20auiLayerInsertPixels
_ZL20DEFAULT_BTN_MARGIN_X
_ZL20DEFAULT_BTN_MARGIN_Y
_ZL20DoGetWindowFromTableP12wxWindowHashm
_ZL20encoding_table__KOI8
_ZL20GetMsgCatalogSubdirsPKcS0_
_ZL20gs_buildOptionsCheck
_ZL20gs_mutexDeleteThread
_ZL20g_wxGzipClassFactory
_ZL20g_wxZlibClassFactory
_ZL20MILLISECONDS_PER_DAY
_ZL20wx_fill_input_bufferP22jpeg_decompress_struct
_ZL20wxFindSuitableParentv
_ZL20wxFindWindowCmpNamesPK8wxWindowRK8wxStringl
_ZL20wxGetMetricOrDefault14wxSystemMetric
_ZL20wxIMAGE_ALPHA_OPAQUE
_ZL20wxPRINTMEDIA_DEFAULT
_ZL20wxProtocolDoUsewxFTP
_ZL20wxQueryWMspecSupportP9_XDisplaymm
_ZL20wxTREE_HITTEST_ABOVE
_ZL20wxTREE_HITTEST_BELOW
_ZL21BUTTON_DROPDOWN_WIDTH
_ZL21DrawGradientRectangleR4wxDCRK6wxRectRK8wxColourS6_i
_ZL21frame_button_help_xpm
_ZL21FRAME_TITLEBAR_HEIGHT
_ZL21gs_critsectStringSort
_ZL21gs_helperOnMouseClick
_ZL21MENU_SEPARATOR_HEIGHT
_ZL21PAGE_OVERLAP_IN_LINES
_ZL21pressed_unchecked_xpm
_ZL21ReadPathFromKDEConfigRK8wxString
_ZL21wxDateTimeCompareFuncPP10wxDateTimeS1_
_ZL21wxDefaultFileSelectorbPKcS0_S0_P8wxWindow
_ZL21wxFileDataNameComparelll
_ZL21wxFileDataSizeComparelll
_ZL21wxFileDataTimeComparelll
_ZL21wxFileDataTypeComparelll
_ZL21wxFileFunctionsBuffer
_ZL21wxFindWindowCmpLabelsPK8wxWindowRK8wxStringl
_ZL21wxGetHostNameInternalPci
_ZL21wxOutOfRangeTextCoord
_ZL21wxProtocolDoUsewxHTTP
_ZL21wxTREE_HITTEST_ONITEM
_ZL21wxTREE_HITTEST_TOLEFT
_ZL21wxWMspecSetFullscreenP9_XDisplaymmb
_ZL22DISABLED_TEXT_GREY_HUE
_ZL22encoding_table__CP1250
_ZL22encoding_table__CP1251
_ZL22encoding_table__CP1252
_ZL22encoding_table__CP1253
_ZL22encoding_table__CP1254
_ZL22encoding_table__CP1255
_ZL22encoding_table__CP1256
_ZL22encoding_table__CP1257
_ZL22encoding_table__KOI8_U
_ZL22frame_button_close_xpm
_ZL22gs_wxStockGDI_instance
_ZL22tree_ctrl_compare_funcPP17wxGenericTreeItemS1_
_ZL22wxDoExecuteWithCaptureRK8wxStringR13wxArrayStringPS2_i
_ZL22wx_empty_output_bufferP20jpeg_compress_struct
_ZL22wxGetRichTextStyleTypeRK8wxString
_ZL22wxTREE_HITTEST_NOWHERE
_ZL22wxTREE_HITTEST_TORIGHT
_ZL23CreateAntialiasedBitmapRK7wxImage
_ZL23DoDeleteWindowFromTableP12wxWindowHashm
_ZL23gs_nThreadsBeingDeleted
_ZL23IsKnownUnimportantFieldRK8wxString
_ZL23ProcessPlatformPropertyP9wxXmlNode
_ZL23wxFindWindowRecursivelyPK8wxWindowRK8wxStringlPFbS1_S4_lE
_ZL23wxGetIndexFromEnumValuei
_ZL23wxGRID_CHECKMARK_MARGIN
_ZL23wxIMAGE_ALPHA_THRESHOLD
_ZL23wxRichTextGetRangeWidthRK19wxRichTextParagraphRK15wxRichTextRangeRK10wxArrayInt
_ZL24FONTMAPPER_FONT_DONT_ASK
_ZL24frame_button_restore_xpm
_ZL24_NET_SUPPORTING_WM_CHECK
_ZL24_NET_WM_STATE_FULLSCREEN
_ZL24NUM_STATUSBAR_GRIP_BANDS
_ZL24pressed_undetermined_xpm
_ZL24wxGetDefaultHTMLFontSizev
_ZL24_wx_link_dummy_var_m_pre
_ZL24wxOperatingSystemIdNames
_ZL24wxPostScriptHeaderSpline
_ZL25disabled_checked_menu_xpm
_ZL25encoding_table__ISO8859_1
_ZL25encoding_table__ISO8859_2
_ZL25encoding_table__ISO8859_3
_ZL25encoding_table__ISO8859_4
_ZL25encoding_table__ISO8859_5
_ZL25encoding_table__ISO8859_6
_ZL25encoding_table__ISO8859_7
_ZL25encoding_table__ISO8859_8
_ZL25encoding_table__ISO8859_9
_ZL25encoding_unicode_fallback
_ZL25frame_button_maximize_xpm
_ZL25frame_button_minimize_xpm
_ZL25pressed_checked_radio_xpm
_ZL25ScheduleThreadForDeletionv
_ZL25selected_checked_menu_xpm
_ZL25WIDTH_STATUSBAR_GRIP_BAND
_ZL25wxIMAGE_ALPHA_TRANSPARENT
_ZL25_wx_link_dummy_var_m_list
_ZL25wxPaneCreateStippleBitmapv
_ZL25wxPostScriptHeaderConicTo
_ZL25wxPostScriptHeaderEllipse
_ZL25wxTREE_HITTEST_ONITEMICON
_ZL26ConvertWeekDayToMondayBasei
_ZL26encoding_table__ISO8859_10
_ZL26encoding_table__ISO8859_13
_ZL26encoding_table__ISO8859_14
_ZL26encoding_table__ISO8859_15
_ZL26EVENT_TYPE_TABLE_INIT_SIZE
_ZL26_NET_WM_STATE_STAYS_ON_TOP
_ZL26_NET_WM_WINDOW_TYPE_NORMAL
_ZL26wxHtmlHelpIndexCompareFuncPP18wxHtmlHelpDataItemS1_
_ZL26_wx_link_dummy_var_m_fonts
_ZL26_wx_link_dummy_var_m_hline
_ZL26_wx_link_dummy_var_m_image
_ZL26_wx_link_dummy_var_m_links
_ZL26_wx_link_dummy_var_m_style
_ZL26wxProtocolDoUsewxFileProto
_ZL26wxRichTextCtrlIsWhitespaceRK8wxString
_ZL26wx_spline_draw_point_arrayP8wxDCBase
_ZL26wxTREE_HITTEST_ONITEMLABEL
_ZL26wxTREE_HITTEST_ONITEMRIGHT
_ZL27file_icons_tbl_computer_xpm
_ZL27IMAGE_MARGIN_IN_REPORT_MODE
_ZL27pressed_unchecked_radio_xpm
_ZL27ProcessFamiliesFromFontListP16wxFontEnumeratorPPci
_ZL27_wx_link_dummy_var_m_dflist
_ZL27_wx_link_dummy_var_m_layout
_ZL27_wx_link_dummy_var_m_tables
_ZL27wxTREE_HITTEST_ONITEMBUTTON
_ZL27wxTREE_HITTEST_ONITEMINDENT
_ZL28pressed_disabled_checked_xpm
_ZL29MARGIN_BETWEEN_IMAGE_AND_TEXT
_ZL29wxPostScriptHeaderColourImage
_ZL29wxPostScriptHeaderEllipticArc
_ZL2pi
_ZL30DoNotifyWindowAboutCaptureLostP8wxWindow
_ZL30wxDirCtrlStringCompareFunctionRK8wxStringS1_
_ZL30wxLaunchDefaultBrowserBaseImplRK8wxStringi
_ZL30wxPostScriptHeaderReencodeISO1
_ZL30wxPostScriptHeaderReencodeISO2
_ZL30wxTREE_HITTEST_ONITEMLOWERPART
_ZL30wxTREE_HITTEST_ONITEMSTATEICON
_ZL30wxTREE_HITTEST_ONITEMUPPERPART
_ZL31encoding_unicode_fallback_count
_ZL32_KDE_NET_WM_WINDOW_TYPE_OVERRIDE
_ZL34FONTMAPPER_FONT_FROM_ENCODING_PATH
_ZL34HEADER_IMAGE_MARGIN_IN_REPORT_MODE
_ZL34pressed_disabled_checked_radio_xpm
_ZL34ReplaceDefaultYearMonthWithCurrentPiPN10wxDateTime5MonthE
_ZL34selected_disabled_checked_menu_xpm
_ZL3UsePv
_ZL4CopyRP11wxZipMemoryS0_
_ZL5g_buf
_ZL5wxEOF
_ZL6AddRefP11wxZipMemory
_ZL6BORDER
_ZL6gs_dir
_ZL6ID_NEW
_ZL6InitTmR2tm
_ZL6MARGIN
_ZL6UniqueRP11wxZipMemorym
_ZL6up_xpm
_ZL6Xerror
_ZL7cut_xpm
_ZL7FlipTGAPhiis
_ZL7hatches
_ZL7isoctalw
_ZL7new_xpm
_ZL7RAD2DEG
_ZL7ReadAllP13wxInputStreamR13wxArrayString
_ZL7ReadTGAP7wxImageR13wxInputStream
_ZL7ReleaseP11wxZipMemory
_ZL7SaveTGAP7wxImageR14wxOutputStream
_ZL7ShowWndP8wxWindowb
_ZL7wxDoCmpPKcmS0_m
_ZL8back_xpm
_ZL8CheckIntd
_ZL8copy_xpm
_ZL8down_xpm
_ZL8find_xpm
_ZL8hexArray
_ZL8home_xpm
_ZL8info_xpm
_ZL8IsMappedP9_XDisplaym
_ZL8IsOpaqueh
_ZL8LEN_CODE
_ZL8LEN_FULL
_ZL8LEN_LANG
_ZL8NO_IMAGE
_ZL8quit_xpm
_ZL8ReadLinePKcPcm
_ZL8redo_xpm
_ZL8ReSearchPK17re_pattern_bufferPKcmP12re_registersi
_ZL8tick_xpm
_ZL8undo_xpm
_ZL8utf8_max
_ZL8WM_STATE
_ZL8wxGCPool
_ZL9cdrom_xpm
_ZL9check_xpm
_ZL9cross_xpm
_ZL9DecodeRLEPhmsR13wxInputStream
_ZL9DrawSizerP12wxWindowBaseP7wxSizer
_ZL9EPOCH_JDN
_ZL9error_xpm
_ZL9FindDocksR18wxAuiDockInfoArrayiiiR21wxAuiDockInfoPtrArray
_ZL9g_eraseGC
_ZL9GetMaxRowRK18wxAuiPaneInfoArrayii
_ZL9GNU_MAGIC
_ZL9g_pLocale
_ZL9gs_pFrame
_ZL9gs_prevCS
_ZL9InitAlphaP7wxImagejj
_ZL9IsUNCPathRK8wxString12wxPathFormat
_ZL9JDN_0_DAY
_ZL9left_bits
_ZL9list_bits
_ZL9paste_xpm
_ZL9print_xpm
_ZL9QuietSeekR13wxInputStreaml
_ZL9TimeStampPKcl
_ZL9utf7enb64
_ZL9utf7unb64
_ZL9wxBadSeek
_ZL9wxID_SKIP
_ZL9wxID_TEXT
_ZL9wxIsAlphaRK8wxString
_ZlsR18wxTextOutputStreamRK16wxLongLongNative
_ZlsR18wxTextOutputStreamRK17wxULongLongNative
_ZlsR18wxTextOutputStreamx
_ZlsR18wxTextOutputStreamy
_ZlsR6wxIconRK9wxVariant
_ZlsR7wxImageRK9wxVariant
_ZlsR8wxBitmapRK9wxVariant
_ZlsR8wxColourRK9wxVariant
_ZlsR8wxStringRK16wxLongLongNative
_ZlsR8wxStringRK17wxULongLongNative
_ZlsR9wxVariantRK6wxIcon
_ZlsR9wxVariantRK7wxImage
_ZlsR9wxVariantRK8wxBitmap
_ZlsR9wxVariantRK8wxColour
_ZlsRSoRK16wxLongLongNative
_ZlsRSoRK17wxULongLongNative
_ZlsRSoRK8wxString
_ZmliRK10wxDateSpan
_ZmliRK10wxTimeSpan
_ZN10CoordArray3AddERKim
_ZN10CoordArray5EmptyEv
_ZN10CoordArray6DoCopyERKS_
_ZN10CoordArray6InsertERKimm
_ZN10CoordArray7DoEmptyEv
_ZN10CoordArray8RemoveAtEmm
_ZN10CoordArrayaSERKS_
_ZN10CoordArrayC1ERKS_
_ZN10CoordArrayC1Ev
_ZN10CoordArrayC2ERKS_
_ZN10CoordArrayC2Ev
_ZN10CoordArrayC5Ev
_ZN10CoordArrayD1Ev
_ZN10CoordArrayD2Ev
_ZN10NoTransErr16ms_suppressCountE
_ZN10NoTransErr8SuppressEv
_ZN10NoTransErrC1Ev
_ZN10NoTransErrC2Ev
_ZN10NoTransErrC5Ev
_ZN10NoTransErrD1Ev
_ZN10NoTransErrD2Ev
_ZN10NoTransErrD5Ev
_ZN10wxArrayInt3AddEim
_ZN10wxArrayInt4SortEPFiPiS0_E
_ZN10wxArrayInt6InsertEimm
_ZN10wxArrayInt8RemoveAtEmm
_ZN10wxArrayInt9push_backERKi
_ZN10wxArrayIntaSERKS_
_ZN10wxArrayIntC1ERKS_
_ZN10wxArrayIntC1Ev
_ZN10wxArrayIntC2ERKS_
_ZN10wxArrayIntC2Ev
_ZN10wxArrayIntC5ERKS_
_ZN10wxArrayIntC5Ev
_ZN10wxArrayIntD1Ev
_ZN10wxArrayIntD2Ev
_ZN10wxArrayIntD5Ev
_ZN10wxBoxSizer11RecalcSizesEv
_ZN10wxBoxSizer12ms_classInfoE
_ZN10wxBoxSizer7CalcMinEv
_ZN10wxBoxSizerC1Ei
_ZN10wxBoxSizerC2Ei
_ZN10wxBoxSizerD0Ev
_ZN10wxBoxSizerD1Ev
_ZN10wxBoxSizerD2Ev
_ZN10wxBoxSizerD5Ev
_ZN10wxBusyInfoC1ERK8wxStringP8wxWindow
_ZN10wxBusyInfoC2ERK8wxStringP8wxWindow
_ZN10wxBusyInfoD0Ev
_ZN10wxBusyInfoD1Ev
_ZN10wxBusyInfoD2Ev
_ZN10wxCheckBox11ChangeValueEb
_ZN10wxCheckBox12ms_classInfoE
_ZN10wxCheckBox13PerformActionERK8wxStringlS2_
_ZN10wxCheckBox14wxCreateObjectEv
_ZN10wxCheckBox16DoSet3StateValueE15wxCheckBoxState
_ZN10wxCheckBox20DoGetStdInputHandlerEP14wxInputHandler
_ZN10wxCheckBox21CreateStdInputHandlerEP14wxInputHandler
_ZN10wxCheckBox4InitEv
_ZN10wxCheckBox5PressEv
_ZN10wxCheckBox6CreateEP8wxWindowiRK8wxStringRK7wxPointRK6wxSizelRK11wxValidatorS4_
_ZN10wxCheckBox6DoDrawEP17wxControlRenderer
_ZN10wxCheckBox6ToggleEv
_ZN10wxCheckBox7OnCheckEv
_ZN10wxCheckBox7ReleaseEv
_ZN10wxCheckBox8SetValueEb
_ZN10wxCheckBox9SendEventEv
_ZN10wxCheckBox9SetBitmapERK8wxBitmapNS_5StateENS_6StatusE
_ZN10wxCheckBoxC1EP8wxWindowiRK8wxStringRK7wxPointRK6wxSizelRK11wxValidatorS4_
_ZN10wxCheckBoxC1Ev
_ZN10wxCheckBoxC2EP8wxWindowiRK8wxStringRK7wxPointRK6wxSizelRK11wxValidatorS4_
_ZN10wxCheckBoxC2Ev
_ZN10wxCheckBoxC5EP8wxWindowiRK8wxStringRK7wxPointRK6wxSizelRK11wxValidatorS4_
_ZN10wxCheckBoxC5Ev
_ZN10wxCheckBoxD0Ev
_ZN10wxCheckBoxD1Ev
_ZN10wxCheckBoxD2Ev
_ZN10wxCheckBoxD5Ev
_ZN10wxClientDC12ms_classInfoE
_ZN10wxClientDC14wxCreateObjectEv
_ZN10wxClientDCC1EP8wxWindow
_ZN10wxClientDCC1Ev
_ZN10wxClientDCC2EP8wxWindow
_ZN10wxClientDCC2Ev
_ZN10wxClientDCC5Ev
_ZN10wxClientDCD0Ev
_ZN10wxClientDCD1Ev
_ZN10wxClientDCD2Ev
_ZN10wxClientDCD5Ev
_ZN10wxComboBox11SetEditableEb
_ZN10wxComboBox12ms_classInfoE
_ZN10wxComboBox12SetSelectionEi
_ZN10wxComboBox12SetSelectionEll
_ZN10wxComboBox14wxCreateObjectEv
_ZN10wxComboBox17SetInsertionPointEl
_ZN10wxComboBox18GetStdInputHandlerEP14wxInputHandler
_ZN10wxComboBox19DoSetItemClientDataEjPv
_ZN10wxComboBox20DoGetStdInputHandlerEP14wxInputHandler
_ZN10wxComboBox20SetInsertionPointEndEv
_ZN10wxComboBox21DoSetItemClientObjectEjP12wxClientData
_ZN10wxComboBox3CutEv
_ZN10wxComboBox4CopyEv
_ZN10wxComboBox4InitEv
_ZN10wxComboBox4RedoEv
_ZN10wxComboBox4UndoEv
_ZN10wxComboBox5ClearEv
_ZN10wxComboBox5PasteEv
_ZN10wxComboBox6CreateEP8wxWindowiRK8wxStringRK7wxPointRK6wxSizeiPS3_lRK11wxValidatorS4_
_ZN10wxComboBox6CreateEP8wxWindowiRK8wxStringRK7wxPointRK6wxSizeRK13wxArrayStringlRK11wxValidatorS4_
_ZN10wxComboBox6DeleteEj
_ZN10wxComboBox6RemoveEll
_ZN10wxComboBox7ReplaceEllRK8wxString
_ZN10wxComboBox8DoAppendERK8wxString
_ZN10wxComboBox8DoInsertERK8wxStringj
_ZN10wxComboBox8SetValueERK8wxString
_ZN10wxComboBox9SelectAllEv
_ZN10wxComboBox9SetStringEjRK8wxString
_ZN10wxComboBoxC1EP8wxWindowiRK8wxStringRK7wxPointRK6wxSizeiPS3_lRK11wxValidatorS4_
_ZN10wxComboBoxC1EP8wxWindowiRK8wxStringRK7wxPointRK6wxSizeRK13wxArrayStringlRK11wxValidatorS4_
_ZN10wxComboBoxC1Ev
_ZN10wxComboBoxC2EP8wxWindowiRK8wxStringRK7wxPointRK6wxSizeiPS3_lRK11wxValidatorS4_
_ZN10wxComboBoxC2EP8wxWindowiRK8wxStringRK7wxPointRK6wxSizeRK13wxArrayStringlRK11wxValidatorS4_
_ZN10wxComboBoxC2Ev
_ZN10wxComboBoxC5EP8wxWindowiRK8wxStringRK7wxPointRK6wxSizeiPS3_lRK11wxValidatorS4_
_ZN10wxComboBoxC5Ev
_ZN10wxComboBoxD0Ev
_ZN10wxComboBoxD1Ev
_ZN10wxComboBoxD2Ev
_ZN10wxConvAuto11InitFromBOMENS_7BOMTypeE
_ZN10wxConvAuto13InitFromInputEPPKcPm
_ZN10wxConvAuto15InitWithDefaultEv
_ZN10wxConvAuto9DetectBOMEPKcm
_ZN10wxConvAutoC1ERKS_
_ZN10wxConvAutoC1Ev
_ZN10wxConvAutoC2ERKS_
_ZN10wxConvAutoC2Ev
_ZN10wxConvAutoC5ERKS_
_ZN10wxConvAutoC5Ev
_ZN10wxConvAutoD0Ev
_ZN10wxConvAutoD1Ev
_ZN10wxConvAutoD2Ev
_ZN10wxConvAutoD5Ev
_ZN10wxDateSpan3DayEv
_ZN10wxDateSpan4DaysEi
_ZN10wxDateSpan4WeekEv
_ZN10wxDateSpan4YearEv
_ZN10wxDateSpan5MonthEv
_ZN10wxDateSpan5WeeksEi
_ZN10wxDateSpan5YearsEi
_ZN10wxDateSpan6MonthsEi
_ZN10wxDateSpan8MultiplyEi
_ZN10wxDateSpanC1Eiiii
_ZN10wxDateSpanC2Eiiii
_ZN10wxDateSpanC5Eiiii
_ZN10wxDateTime10GetCenturyEi
_ZN10wxDateTime10GetCountryEv
_ZN10wxDateTime10GetTimeNowEv
_ZN10wxDateTime10IsLeapYearEiNS_8CalendarE
_ZN10wxDateTime10ms_countryE
_ZN10wxDateTime10SetCountryENS_7CountryE
_ZN10wxDateTime10SetFromDOSEm
_ZN10wxDateTime11GetBeginDSTEiNS_7CountryE
_ZN10wxDateTime11ParseFormatEPKcS1_RKS_
_ZN10wxDateTime12GetMonthNameENS_5MonthENS_9NameFlagsE
_ZN10wxDateTime12MakeTimezoneERKNS_8TimeZoneEb
_ZN10wxDateTime12SetToTheWeekEtNS_7WeekDayENS_9WeekFlagsE
_ZN10wxDateTime12SetToWeekDayENS_7WeekDayEiNS_5MonthEi
_ZN10wxDateTime12SetToYearDayEt
_ZN10wxDateTime13ParseDateTimeEPKc
_ZN10wxDateTime13TIME_T_FACTORE
_ZN10wxDateTime14GetAmPmStringsEP8wxStringS1_
_ZN10wxDateTime14GetCurrentYearENS_8CalendarE
_ZN10wxDateTime14GetWeekDayNameENS_7WeekDayENS_9NameFlagsE
_ZN10wxDateTime14SetMillisecondEt
_ZN10wxDateTime15ConvertYearToBCEi
_ZN10wxDateTime15GetCurrentMonthENS_8CalendarE
_ZN10wxDateTime15GetNumberOfDaysEiNS_8CalendarE
_ZN10wxDateTime15GetNumberOfDaysENS_5MonthEiNS_8CalendarE
_ZN10wxDateTime15IsDSTApplicableEiNS_7CountryE
_ZN10wxDateTime15ParseRfc822DateEPKc
_ZN10wxDateTime15SetToWeekOfYearEitNS_7WeekDayE
_ZN10wxDateTime16MakeFromTimezoneERKNS_8TimeZoneEb
_ZN10wxDateTime16SetToLastWeekDayENS_7WeekDayENS_5MonthEi
_ZN10wxDateTime16SetToNextWeekDayENS_7WeekDayE
_ZN10wxDateTime16SetToPrevWeekDayENS_7WeekDayE
_ZN10wxDateTime17SetToLastMonthDayENS_5MonthEi
_ZN10wxDateTime21IsWestEuropeanCountryENS_7CountryE
_ZN10wxDateTime22SetToWeekDayInSameWeekENS_7WeekDayENS_9WeekFlagsE
_ZN10wxDateTime2Tm10GetWeekDayEv
_ZN10wxDateTime2Tm14ComputeWeekDayEv
_ZN10wxDateTime2Tm7AddDaysEi
_ZN10wxDateTime2Tm9AddMonthsEi
_ZN10wxDateTime2TmC1ERK2tmRKNS_8TimeZoneE
_ZN10wxDateTime2TmC1Ev
_ZN10wxDateTime2TmC2ERK2tmRKNS_8TimeZoneE
_ZN10wxDateTime2TmC2Ev
_ZN10wxDateTime3AddERK10wxDateSpan
_ZN10wxDateTime3AddERK10wxTimeSpan
_ZN10wxDateTime3NowEv
_ZN10wxDateTime3SetEd
_ZN10wxDateTime3SetEl
_ZN10wxDateTime3SetERK2tm
_ZN10wxDateTime3SetERKNS_2TmE
_ZN10wxDateTime3SetEtNS_5MonthEitttt
_ZN10wxDateTime3SetEtttt
_ZN10wxDateTime4UNowEv
_ZN10wxDateTime5TodayEv
_ZN10wxDateTime6SetDayEt
_ZN10wxDateTime7MakeGMTEb
_ZN10wxDateTime7MakeUTCEb
_ZN10wxDateTime7SetHourEt
_ZN10wxDateTime7SetYearEi
_ZN10wxDateTime8GetTmNowEP2tm
_ZN10wxDateTime8SetMonthENS_5MonthE
_ZN10wxDateTime8SubtractERK10wxDateSpan
_ZN10wxDateTime8SubtractERK10wxTimeSpan
_ZN10wxDateTime8TimeZone4MakeEl
_ZN10wxDateTime8TimeZoneC1ENS_2TZE
_ZN10wxDateTime8TimeZoneC1Et
_ZN10wxDateTime8TimeZoneC2ENS_2TZE
_ZN10wxDateTime8TimeZoneC2Et
_ZN10wxDateTime8TimeZoneC5Et
_ZN10wxDateTime9GetEndDSTEiNS_7CountryE
_ZN10wxDateTime9ParseDateEPKc
_ZN10wxDateTime9ParseTimeEPKc
_ZN10wxDateTime9ResetTimeEv
_ZN10wxDateTime9SetMinuteEt
_ZN10wxDateTime9SetSecondEt
_ZN10wxDateTimeaSEl
_ZN10wxDateTimeC1El
_ZN10wxDateTimeC1ERK16wxLongLongNative
_ZN10wxDateTimeC1ERK2tm
_ZN10wxDateTimeC1ERKNS_2TmE
_ZN10wxDateTimeC1EtNS_5MonthEitttt
_ZN10wxDateTimeC1Ev
_ZN10wxDateTimeC2El
_ZN10wxDateTimeC2ERK16wxLongLongNative
_ZN10wxDateTimeC2ERK2tm
_ZN10wxDateTimeC2ERKNS_2TmE
_ZN10wxDateTimeC2EtNS_5MonthEitttt
_ZN10wxDateTimeC2Ev
_ZN10wxDateTimeC5El
_ZN10wxDateTimeC5ERK16wxLongLongNative
_ZN10wxDateTimeC5ERK2tm
_ZN10wxDateTimeC5ERKNS_2TmE
_ZN10wxDateTimeC5EtNS_5MonthEitttt
_ZN10wxDateTimeC5Ev
_ZN10wxDateTimemIERK10wxDateSpan
_ZN10wxDateTimepLERK10wxDateSpan
_ZN10wxDateTimepLERK10wxTimeSpan
_ZN10wxDCModule12ms_classInfoE
_ZN10wxDCModule14wxCreateObjectEv
_ZN10wxDCModule6OnExitEv
_ZN10wxDCModule6OnInitEv
_ZN10wxDCModuleC1Ev
_ZN10wxDCModuleC2Ev
_ZN10wxDCModuleC5Ev
_ZN10wxDCModuleD0Ev
_ZN10wxDCModuleD1Ev
_ZN10wxDCModuleD2Ev
_ZN10wxDCModuleD5Ev
_ZN10wxDocument10LoadObjectERSi
_ZN10wxDocument10RemoveViewEP6wxView
_ZN10wxDocument10SaveObjectERSo
_ZN10wxDocument11SetFilenameERK8wxStringb
_ZN10wxDocument12ms_classInfoE
_ZN10wxDocument13NotifyClosingEv
_ZN10wxDocument13OnNewDocumentEv
_ZN10wxDocument14DeleteAllViewsEv
_ZN10wxDocument14DeleteContentsEv
_ZN10wxDocument14DoOpenDocumentERK8wxString
_ZN10wxDocument14DoSaveDocumentERK8wxString
_ZN10wxDocument14OnOpenDocumentERK8wxString
_ZN10wxDocument14OnSaveDocumentERK8wxString
_ZN10wxDocument14OnSaveModifiedEv
_ZN10wxDocument14UpdateAllViewsEP6wxViewP8wxObject
_ZN10wxDocument15OnCloseDocumentEv
_ZN10wxDocument15SetDocumentNameERK8wxString
_ZN10wxDocument16SetDocumentSavedEb
_ZN10wxDocument17OnChangedViewListEv
_ZN10wxDocument19SetCommandProcessorEP18wxCommandProcessor
_ZN10wxDocument19SetDocumentTemplateEP13wxDocTemplate
_ZN10wxDocument24OnCreateCommandProcessorEv
_ZN10wxDocument4DrawER4wxDC
_ZN10wxDocument4SaveEv
_ZN10wxDocument5CloseEv
_ZN10wxDocument6ModifyEb
_ZN10wxDocument6RevertEv
_ZN10wxDocument6SaveAsEv
_ZN10wxDocument7AddViewEP6wxView
_ZN10wxDocument8OnCreateERK8wxStringl
_ZN10wxDocument8SetTitleERK8wxString
_ZN10wxDocumentC1EPS_
_ZN10wxDocumentC2EPS_
_ZN10wxDocumentD0Ev
_ZN10wxDocumentD1Ev
_ZN10wxDocumentD2Ev
_ZN10wxEventPtrC1EP7wxEvent
_ZN10wxEventPtrC2EP7wxEvent
_ZN10wxEventPtrC5EP7wxEvent
_ZN10wxEventPtrD1Ev
_ZN10wxEventPtrD2Ev
_ZN10wxFileCtrl10ShowHiddenEb
_ZN10wxFileCtrl10UpdateItemERK10wxListItem
_ZN10wxFileCtrl11GoToHomeDirEv
_ZN10wxFileCtrl11UpdateFilesEv
_ZN10wxFileCtrl12FreeItemDataER10wxListItem
_ZN10wxFileCtrl12ms_classInfoE
_ZN10wxFileCtrl13GoToParentDirEv
_ZN10wxFileCtrl13sm_eventTableE
_ZN10wxFileCtrl14OnListColClickER11wxListEvent
_ZN10wxFileCtrl14wxCreateObjectEv
_ZN10wxFileCtrl16ChangeToListModeEv
_ZN10wxFileCtrl16FreeAllItemsDataEv
_ZN10wxFileCtrl16OnListDeleteItemER11wxListEvent
_ZN10wxFileCtrl17sm_eventHashTableE
_ZN10wxFileCtrl18ChangeToReportModeEv
_ZN10wxFileCtrl18OnListEndLabelEditER11wxListEvent
_ZN10wxFileCtrl20OnListDeleteAllItemsER11wxListEvent
_ZN10wxFileCtrl20sm_eventTableEntriesE
_ZN10wxFileCtrl21ChangeToSmallIconModeEv
_ZN10wxFileCtrl3AddEP10wxFileDataR10wxListItem
_ZN10wxFileCtrl7GoToDirERK8wxString
_ZN10wxFileCtrl7MakeDirEv
_ZN10wxFileCtrl7SetWildERK8wxString
_ZN10wxFileCtrl9SortItemsEN10wxFileData17fileListFieldTypeEb
_ZN10wxFileCtrlC1EP8wxWindowiRK8wxStringbRK7wxPointRK6wxSizelRK11wxValidatorS4_
_ZN10wxFileCtrlC1Ev
_ZN10wxFileCtrlC2EP8wxWindowiRK8wxStringbRK7wxPointRK6wxSizelRK11wxValidatorS4_
_ZN10wxFileCtrlC2Ev
_ZN10wxFileCtrlD0Ev
_ZN10wxFileCtrlD1Ev
_ZN10wxFileCtrlD2Ev
_ZN10wxFileData10SetNewNameERK8wxStringS2_
_ZN10wxFileData4CopyERKS_
_ZN10wxFileData4InitEv
_ZN10wxFileData8MakeItemER10wxListItem
_ZN10wxFileData8ReadDataEv
_ZN10wxFileDataC1ERK8wxStringS2_NS_8fileTypeEi
_ZN10wxFileDataC2ERK8wxStringS2_NS_8fileTypeEi
_ZN10wxFileDataD1Ev
_ZN10wxFileDataD2Ev
_ZN10wxFileDataD5Ev
_ZN10wxFileName10FileExistsERK8wxString
_ZN10wxFileName10GetHomeDirEv
_ZN10wxFileName10GetTempDirEv
_ZN10wxFileName10PrependDirERK8wxString
_ZN10wxFileName11SetFullNameERK8wxString
_ZN10wxFileName11SplitVolumeERK8wxStringPS0_S3_12wxPathFormat
_ZN10wxFileName12MakeAbsoluteERK8wxString12wxPathFormat
_ZN10wxFileName13AssignHomeDirEv
_ZN10wxFileName14MakeRelativeToERK8wxString12wxPathFormat
_ZN10wxFileName14StripExtensionERK8wxString
_ZN10wxFileName15IsCaseSensitiveE12wxPathFormat
_ZN10wxFileName15IsPathSeparatorEc12wxPathFormat
_ZN10wxFileName16GetPathSeparatorE12wxPathFormat
_ZN10wxFileName17GetForbiddenCharsE12wxPathFormat
_ZN10wxFileName17GetPathSeparatorsE12wxPathFormat
_ZN10wxFileName18AssignTempFileNameERK8wxString
_ZN10wxFileName18AssignTempFileNameERK8wxStringP6wxFile
_ZN10wxFileName18AssignTempFileNameERK8wxStringP7wxFFile
_ZN10wxFileName18CreateTempFileNameERK8wxString
_ZN10wxFileName18CreateTempFileNameERK8wxStringP6wxFile
_ZN10wxFileName18CreateTempFileNameERK8wxStringP7wxFFile
_ZN10wxFileName18GetPathTerminatorsE12wxPathFormat
_ZN10wxFileName18GetVolumeSeparatorE12wxPathFormat
_ZN10wxFileName19IsValidDirComponentERK8wxString
_ZN10wxFileName20GetHumanReadableSizeERK17wxULongLongNativeRK8wxStringi
_ZN10wxFileName5ClearEv
_ZN10wxFileName5MkdirEii
_ZN10wxFileName5MkdirERK8wxStringii
_ZN10wxFileName5RmdirERK8wxString
_ZN10wxFileName5RmdirEv
_ZN10wxFileName5TouchEv
_ZN10wxFileName6AssignERK8wxString12wxPathFormat
_ZN10wxFileName6AssignERK8wxStringS2_12wxPathFormat
_ZN10wxFileName6AssignERK8wxStringS2_S2_12wxPathFormat
_ZN10wxFileName6AssignERK8wxStringS2_S2_S2_12wxPathFormat
_ZN10wxFileName6AssignERK8wxStringS2_S2_S2_b12wxPathFormat
_ZN10wxFileName6AssignERKS_
_ZN10wxFileName6GetCwdERK8wxString
_ZN10wxFileName6SetCwdERK8wxString
_ZN10wxFileName6SetCwdEv
_ZN10wxFileName6SetExtERK8wxString
_ZN10wxFileName7DirNameERK8wxString12wxPathFormat
_ZN10wxFileName7GetSizeERK8wxString
_ZN10wxFileName7SetNameERK8wxString
_ZN10wxFileName7SetPathERK8wxString12wxPathFormat
_ZN10wxFileName8FileNameERK8wxString12wxPathFormat
_ZN10wxFileName8SetTimesEPK10wxDateTimeS2_S2_
_ZN10wxFileName9AppendDirERK8wxString
_ZN10wxFileName9AssignCwdERK8wxString
_ZN10wxFileName9AssignDirERK8wxString12wxPathFormat
_ZN10wxFileName9DirExistsERK8wxString
_ZN10wxFileName9GetFormatE12wxPathFormat
_ZN10wxFileName9InsertDirEmRK8wxString
_ZN10wxFileName9NormalizeEiRK8wxString12wxPathFormat
_ZN10wxFileName9RemoveDirEm
_ZN10wxFileName9SetVolumeERK8wxString
_ZN10wxFileName9SplitPathERK8wxStringPS0_S3_S3_12wxPathFormat
_ZN10wxFileName9SplitPathERK8wxStringPS0_S3_S3_S3_12wxPathFormat
_ZN10wxFileName9SplitPathERK8wxStringPS0_S3_S3_S3_Pb12wxPathFormat
_ZN10wxFileNameaSERKS_
_ZN10wxFileNameC1ERK8wxString12wxPathFormat
_ZN10wxFileNameC1ERK8wxStringS2_12wxPathFormat
_ZN10wxFileNameC1ERK8wxStringS2_S2_12wxPathFormat
_ZN10wxFileNameC1ERKS_
_ZN10wxFileNameC1Ev
_ZN10wxFileNameC2ERK8wxString12wxPathFormat
_ZN10wxFileNameC2ERK8wxStringS2_12wxPathFormat
_ZN10wxFileNameC2ERK8wxStringS2_S2_12wxPathFormat
_ZN10wxFileNameC2ERKS_
_ZN10wxFileNameC2Ev
_ZN10wxFileNameC5ERK8wxString12wxPathFormat
_ZN10wxFileNameC5ERK8wxStringS2_12wxPathFormat
_ZN10wxFileNameC5ERK8wxStringS2_S2_12wxPathFormat
_ZN10wxFileNameC5ERKS_
_ZN10wxFileNameC5Ev
_ZN10wxFileNameD1Ev
_ZN10wxFileNameD2Ev
_ZN10wxFileNameD5Ev
_ZN10wxFileType10SetCommandERK8wxStringS2_b
_ZN10wxFileType11UnassociateEv
_ZN10wxFileType13ExpandCommandERK8wxStringRKNS_17MessageParametersE
_ZN10wxFileType13GetExtensionsER13wxArrayString
_ZN10wxFileType14SetDefaultIconERK8wxStringi
_ZN10wxFileType17MessageParametersC1ERK8wxStringS3_
_ZN10wxFileType17MessageParametersC2ERK8wxStringS3_
_ZN10wxFileType17MessageParametersC5ERK8wxStringS3_
_ZN10wxFileType17MessageParametersD0Ev
_ZN10wxFileType17MessageParametersD1Ev
_ZN10wxFileType17MessageParametersD2Ev
_ZN10wxFileType17MessageParametersD5Ev
_ZN10wxFileTypeC1ERK14wxFileTypeInfo
_ZN10wxFileTypeC1Ev
_ZN10wxFileTypeC2ERK14wxFileTypeInfo
_ZN10wxFileTypeC2Ev
_ZN10wxFileTypeD1Ev
_ZN10wxFileTypeD2Ev
_ZN10wxFontBase11SetFaceNameERK8wxString
_ZN10wxFontBase12SetPixelSizeERK6wxSize
_ZN10wxFontBase17SetNativeFontInfoERK16wxNativeFontInfo
_ZN10wxFontBase17SetNativeFontInfoERK8wxString
_ZN10wxFontBase17SetNoAntiAliasingEb
_ZN10wxFontBase18GetDefaultEncodingEv
_ZN10wxFontBase18ms_encodingDefaultE
_ZN10wxFontBase18SetDefaultEncodingE14wxFontEncoding
_ZN10wxFontBase19DoSetNativeFontInfoERK16wxNativeFontInfo
_ZN10wxFontBase25SetNativeFontInfoUserDescERK8wxString
_ZN10wxFontBase3NewEi12wxFontFamilyiRK8wxString14wxFontEncoding
_ZN10wxFontBase3NewEiiiibRK8wxString14wxFontEncoding
_ZN10wxFontBase3NewERK16wxNativeFontInfo
_ZN10wxFontBase3NewERK6wxSize12wxFontFamilyiRK8wxString14wxFontEncoding
_ZN10wxFontBase3NewERK6wxSizeiiibRK8wxString14wxFontEncoding
_ZN10wxFontBase3NewERK8wxString
_ZN10wxFontBaseaSERKS_
_ZN10wxFontBaseC1ERKS_
_ZN10wxFontBaseC1Ev
_ZN10wxFontBaseC2ERKS_
_ZN10wxFontBaseC2Ev
_ZN10wxFontBaseC5ERKS_
_ZN10wxFontBaseC5Ev
_ZN10wxFontBaseD0Ev
_ZN10wxFontBaseD1Ev
_ZN10wxFontBaseD2Ev
_ZN10wxFontData11SetEncodingE14wxFontEncoding
_ZN10wxFontData12EncodingInfoEv
_ZN10wxFontData12ms_classInfoE
_ZN10wxFontData13EnableEffectsEb
_ZN10wxFontData14SetInitialFontERK6wxFont
_ZN10wxFontData14wxCreateObjectEv
_ZN10wxFontData15SetAllowSymbolsEb
_ZN10wxFontData9SetColourERK8wxColour
_ZN10wxFontDataaSERKS_
_ZN10wxFontDataC1ERKS_
_ZN10wxFontDataC1Ev
_ZN10wxFontDataC2ERKS_
_ZN10wxFontDataC2Ev
_ZN10wxFontDataC5ERKS_
_ZN10wxFontDataD0Ev
_ZN10wxFontDataD1Ev
_ZN10wxFontDataD2Ev
_ZN10wxFontList10RemoveFontEP6wxFont
_ZN10wxFontList16FindOrCreateFontEiiiibRK8wxString14wxFontEncoding
_ZN10wxFontList7AddFontEP6wxFont
_ZN10wxFontListC1Ev
_ZN10wxFontListC2Ev
_ZN10wxFontListC5Ev
_ZN10wxFontListD1Ev
_ZN10wxFontListD2Ev
_ZN10wxFontListD5Ev
_ZN10wxGIFTimer6NotifyEv
_ZN10wxGIFTimerC1EP15wxHtmlImageCell
_ZN10wxGIFTimerC2EP15wxHtmlImageCell
_ZN10wxGIFTimerC5EP15wxHtmlImageCell
_ZN10wxGIFTimerD0Ev
_ZN10wxGIFTimerD1Ev
_ZN10wxGIFTimerD2Ev
_ZN10wxGIFTimerD5Ev
_ZN10wxGTKTheme10ms_infogtkE
_ZN10wxGTKTheme11GetRendererEv
_ZN10wxGTKTheme14GetArtProviderEv
_ZN10wxGTKTheme15GetColourSchemeEv
_ZN10wxGTKTheme15GetInputHandlerERK8wxStringP15wxInputConsumer
_ZN10wxGTKThemeC1Ev
_ZN10wxGTKThemeC2Ev
_ZN10wxGTKThemeD0Ev
_ZN10wxGTKThemeD1Ev
_ZN10wxGTKThemeD2Ev
_ZN10wxHtmlCell12ms_classInfoE
_ZN10wxHtmlCell12OnMouseClickEP8wxWindowiiRK12wxMouseEvent
_ZN10wxHtmlCell13DrawInvisibleER4wxDCiiR19wxHtmlRenderingInfo
_ZN10wxHtmlCell13SetScriptModeE16wxHtmlScriptModel
_ZN10wxHtmlCell17GetScriptBaselineEv
_ZN10wxHtmlCell17ProcessMouseClickEP21wxHtmlWindowInterfaceRK7wxPointRK12wxMouseEvent
_ZN10wxHtmlCell21SetCanLiveOnPagebreakEb
_ZN10wxHtmlCell4DrawER4wxDCiiiiR19wxHtmlRenderingInfo
_ZN10wxHtmlCell5SetIdERK8wxString
_ZN10wxHtmlCell6LayoutEi
_ZN10wxHtmlCell6SetPosEii
_ZN10wxHtmlCell7SetLinkERK14wxHtmlLinkInfo
_ZN10wxHtmlCell7SetNextEPS_
_ZN10wxHtmlCell9SetParentEP19wxHtmlContainerCell
_ZN10wxHtmlCellC1Ev
_ZN10wxHtmlCellC2Ev
_ZN10wxHtmlCellD0Ev
_ZN10wxHtmlCellD1Ev
_ZN10wxHtmlCellD2Ev
_ZN10wxJoystick10SetCaptureEP8wxWindowi
_ZN10wxJoystick12ms_classInfoE
_ZN10wxJoystick14ReleaseCaptureEv
_ZN10wxJoystick14wxCreateObjectEv
_ZN10wxJoystick18GetNumberJoysticksEv
_ZN10wxJoystick20SetMovementThresholdEi
_ZN10wxJoystickC1Ei
_ZN10wxJoystickC2Ei
_ZN10wxJoystickD0Ev
_ZN10wxJoystickD1Ev
_ZN10wxJoystickD2Ev
_ZN10wxKeyEvent12ms_classInfoE
_ZN10wxKeyEvent14wxCreateObjectEv
_ZN10wxKeyEventaSERKS_
_ZN10wxKeyEventC1Ei
_ZN10wxKeyEventC1ERKS_
_ZN10wxKeyEventC2Ei
_ZN10wxKeyEventC2ERKS_
_ZN10wxKeyEventD0Ev
_ZN10wxKeyEventD1Ev
_ZN10wxKeyEventD2Ev
_ZN10wxKeyEventD5Ev
_ZN10wxListBase10DeleteNodeEP10wxNodeBase
_ZN10wxListBase10DetachNodeEP10wxNodeBase
_ZN10wxListBase11DeleteNodesEP10wxNodeBaseS1_
_ZN10wxListBase12AppendCommonEP10wxNodeBase
_ZN10wxListBase12DeleteObjectEPv
_ZN10wxListBase12DoDeleteNodeEP10wxNodeBase
_ZN10wxListBase14DeleteContentsEb
_ZN10wxListBase4InitE9wxKeyType
_ZN10wxListBase4SortEPFiPKvS1_E
_ZN10wxListBase5ClearEv
_ZN10wxListBase6AppendElPv
_ZN10wxListBase6AppendEPKcPv
_ZN10wxListBase6AppendEPv
_ZN10wxListBase6AssignERKS_
_ZN10wxListBase6DoCopyERKS_
_ZN10wxListBase6InsertEmPv
_ZN10wxListBase6InsertEP10wxNodeBasePv
_ZN10wxListBase7ForEachEPFiPvE
_ZN10wxListBase7ReverseEv
_ZN10wxListBase8LastThatEPFiPvE
_ZN10wxListBase9FirstThatEPFiPvE
_ZN10wxListBaseC1E9wxKeyType
_ZN10wxListBaseC1EmPPv
_ZN10wxListBaseC2E9wxKeyType
_ZN10wxListBaseC2EmPPv
_ZN10wxListBaseC5E9wxKeyType
_ZN10wxListBaseD0Ev
_ZN10wxListBaseD1Ev
_ZN10wxListBaseD2Ev
_ZN10wxListbook10InsertPageEmP8wxWindowRK8wxStringbi
_ZN10wxListbook11SetPageTextEmRK8wxString
_ZN10wxListbook12DoRemovePageEm
_ZN10wxListbook12ms_classInfoE
_ZN10wxListbook12SetImageListEP11wxImageList
_ZN10wxListbook12SetPageImageEmi
_ZN10wxListbook12SetSelectionEm
_ZN10wxListbook13sm_eventTableE
_ZN10wxListbook14DeleteAllPagesEv
_ZN10wxListbook14OnListSelectedER11wxListEvent
_ZN10wxListbook14wxCreateObjectEv
_ZN10wxListbook15ChangeSelectionEm
_ZN10wxListbook16MakeChangedEventER19wxBookCtrlBaseEvent
_ZN10wxListbook17sm_eventHashTableE
_ZN10wxListbook18UpdateSelectedPageEm
_ZN10wxListbook20sm_eventTableEntriesE
_ZN10wxListbook4InitEv
_ZN10wxListbook6CreateEP8wxWindowiRK7wxPointRK6wxSizelRK8wxString
_ZN10wxListbook6OnSizeER11wxSizeEvent
_ZN10wxListbookC1EP8wxWindowiRK7wxPointRK6wxSizelRK8wxString
_ZN10wxListbookC1Ev
_ZN10wxListbookC2EP8wxWindowiRK7wxPointRK6wxSizelRK8wxString
_ZN10wxListbookC2Ev
_ZN10wxListbookC5EP8wxWindowiRK7wxPointRK6wxSizelRK8wxString
_ZN10wxListbookC5Ev
_ZN10wxListbookD0Ev
_ZN10wxListbookD1Ev
_ZN10wxListbookD2Ev
_ZN10wxListbookD5Ev
_ZN10wxListCtrl12ms_classInfoE
_ZN10wxListCtrl14wxCreateObjectEv
_ZN10wxListCtrlC1EP8wxWindowiRK7wxPointRK6wxSizelRK11wxValidatorRK8wxString
_ZN10wxListCtrlC1Ev
_ZN10wxListCtrlC2EP8wxWindowiRK7wxPointRK6wxSizelRK11wxValidatorRK8wxString
_ZN10wxListCtrlC2Ev
_ZN10wxListCtrlC5EP8wxWindowiRK7wxPointRK6wxSizelRK11wxValidatorRK8wxString
_ZN10wxListCtrlC5Ev
_ZN10wxListCtrlD0Ev
_ZN10wxListCtrlD1Ev
_ZN10wxListCtrlD2Ev
_ZN10wxListCtrlD5Ev
_ZN10wxListItem10AttributesEv
_ZN10wxListItem12ms_classInfoE
_ZN10wxListItem13SetTextColourERK8wxColour
_ZN10wxListItem14wxCreateObjectEv
_ZN10wxListItem15ClearAttributesEv
_ZN10wxListItem19SetBackgroundColourERK8wxColour
_ZN10wxListItem4InitEv
_ZN10wxListItem5SetIdEl
_ZN10wxListItem7SetFontERK6wxFont
_ZN10wxListItem7SetMaskEl
_ZN10wxListItem7SetTextERK8wxString
_ZN10wxListItem8SetImageEi
_ZN10wxListItem8SetStateEl
_ZN10wxListItem8SetWidthEi
_ZN10wxListItem9SetColumnEi
_ZN10wxListItemC1ERKS_
_ZN10wxListItemC1Ev
_ZN10wxListItemC2ERKS_
_ZN10wxListItemC2Ev
_ZN10wxListItemC5ERKS_
_ZN10wxListItemC5Ev
_ZN10wxListItemD0Ev
_ZN10wxListItemD1Ev
_ZN10wxListItemD2Ev
_ZN10wxListItemD5Ev
_ZN10wxListView12ms_classInfoE
_ZN10wxListView14wxCreateObjectEv
_ZN10wxListView5FocusEl
_ZN10wxListView6SelectElb
_ZN10wxListViewC1EP8wxWindowiRK7wxPointRK6wxSizelRK11wxValidatorRK8wxString
_ZN10wxListViewC1Ev
_ZN10wxListViewC2EP8wxWindowiRK7wxPointRK6wxSizelRK11wxValidatorRK8wxString
_ZN10wxListViewC2Ev
_ZN10wxListViewC5EP8wxWindowiRK7wxPointRK6wxSizelRK11wxValidatorRK8wxString
_ZN10wxListViewC5Ev
_ZN10wxListViewD0Ev
_ZN10wxListViewD1Ev
_ZN10wxListViewD2Ev
_ZN10wxListViewD5Ev
_ZN10wxLogChain12PassMessagesEb
_ZN10wxLogChain5DoLogEmPKcl
_ZN10wxLogChain5FlushEv
_ZN10wxLogChain6SetLogEP5wxLog
_ZN10wxLogChainC1EP5wxLog
_ZN10wxLogChainC2EP5wxLog
_ZN10wxLogChainD0Ev
_ZN10wxLogChainD1Ev
_ZN10wxLogChainD2Ev
_ZN10wxLogFrame13OnCloseWindowER12wxCloseEvent
_ZN10wxLogFrame13sm_eventTableE
_ZN10wxLogFrame17sm_eventHashTableE
_ZN10wxLogFrame20sm_eventTableEntriesE
_ZN10wxLogFrame6OnSaveER14wxCommandEvent
_ZN10wxLogFrame7DoCloseEv
_ZN10wxLogFrame7OnClearER14wxCommandEvent
_ZN10wxLogFrame7OnCloseER14wxCommandEvent
_ZN10wxLogFrameC1EP8wxWindowP11wxLogWindowPKc
_ZN10wxLogFrameC2EP8wxWindowP11wxLogWindowPKc
_ZN10wxLogFrameD0Ev
_ZN10wxLogFrameD1Ev
_ZN10wxLogFrameD2Ev
_ZN10wxMaskBase6CreateERK8wxBitmap
_ZN10wxMaskBase6CreateERK8wxBitmapi
_ZN10wxMaskBase6CreateERK8wxBitmapRK8wxColour
_ZN10wxMemoryDC12ms_classInfoE
_ZN10wxMemoryDC14wxCreateObjectEv
_ZN10wxMemoryDC4InitEv
_ZN10wxMemoryDC8DoSelectERK8wxBitmap
_ZN10wxMemoryDCC1EP4wxDC
_ZN10wxMemoryDCC1ER8wxBitmap
_ZN10wxMemoryDCC1Ev
_ZN10wxMemoryDCC2EP4wxDC
_ZN10wxMemoryDCC2ER8wxBitmap
_ZN10wxMemoryDCC2Ev
_ZN10wxMemoryDCC5ER8wxBitmap
_ZN10wxMemoryDCC5Ev
_ZN10wxMemoryDCD0Ev
_ZN10wxMemoryDCD1Ev
_ZN10wxMemoryDCD2Ev
_ZN10wxMenuBase10AddSubMenuEP6wxMenu
_ZN10wxMenuBase12GetMenuItemsEv
_ZN10wxMenuBase13SetHelpStringEiRK8wxString
_ZN10wxMenuBase15AppendCheckItemEiRK8wxStringS2_
_ZN10wxMenuBase15AppendSeparatorEv
_ZN10wxMenuBase17SetInvokingWindowEP8wxWindow
_ZN10wxMenuBase4InitEl
_ZN10wxMenuBase5BreakEv
_ZN10wxMenuBase5CheckEib
_ZN10wxMenuBase6AppendEiRK8wxStringP6wxMenuS2_
_ZN10wxMenuBase6AppendEiRK8wxStringS2_10wxItemKind
_ZN10wxMenuBase6AppendEP10wxMenuItem
_ZN10wxMenuBase6AttachEP13wxMenuBarBase
_ZN10wxMenuBase6DeleteEi
_ZN10wxMenuBase6DeleteEP10wxMenuItem
_ZN10wxMenuBase6DetachEv
_ZN10wxMenuBase6EnableEib
_ZN10wxMenuBase6InsertEmP10wxMenuItem
_ZN10wxMenuBase6RemoveEP10wxMenuItem
_ZN10wxMenuBase7DestroyEP10wxMenuItem
_ZN10wxMenuBase8DoAppendEP10wxMenuItem
_ZN10wxMenuBase8DoDeleteEP10wxMenuItem
_ZN10wxMenuBase8DoInsertEmP10wxMenuItem
_ZN10wxMenuBase8DoRemoveEP10wxMenuItem
_ZN10wxMenuBase8SetLabelEiRK8wxString
_ZN10wxMenuBase8SetTitleERK8wxString
_ZN10wxMenuBase8UpdateUIEP12wxEvtHandler
_ZN10wxMenuBase9DoDestroyEP10wxMenuItem
_ZN10wxMenuBase9ms_lockedE
_ZN10wxMenuBase9SendEventEii
_ZN10wxMenuBase9SetParentEP6wxMenu
_ZN10wxMenuBaseC1El
_ZN10wxMenuBaseC1ERK8wxStringl
_ZN10wxMenuBaseC2El
_ZN10wxMenuBaseC2ERK8wxStringl
_ZN10wxMenuBaseC5El
_ZN10wxMenuBaseC5ERK8wxStringl
_ZN10wxMenuBaseD0Ev
_ZN10wxMenuBaseD1Ev
_ZN10wxMenuBaseD2Ev
_ZN10wxMenuInfo10SetEnabledEb
_ZN10wxMenuInfo8SetLabelERK8wxString
_ZN10wxMenuInfo9CalcWidthEP9wxMenuBar
_ZN10wxMenuInfoC1ERK8wxString
_ZN10wxMenuInfoC1ERKS_
_ZN10wxMenuInfoC2ERK8wxString
_ZN10wxMenuInfoC2ERKS_
_ZN10wxMenuInfoC5ERK8wxString
_ZN10wxMenuInfoC5ERKS_
_ZN10wxMenuInfoD1Ev
_ZN10wxMenuInfoD2Ev
_ZN10wxMenuInfoD5Ev
_ZN10wxMenuItem10NotifyMenuEv
_ZN10wxMenuItem10SetBitmapsERK8wxBitmapS2_
_ZN10wxMenuItem11SetGeometryEii
_ZN10wxMenuItem12ms_classInfoE
_ZN10wxMenuItem12SetCheckableEb
_ZN10wxMenuItem14wxCreateObjectEv
_ZN10wxMenuItem15UpdateAccelInfoEv
_ZN10wxMenuItem16SetRadioGroupEndEi
_ZN10wxMenuItem18SetRadioGroupStartEi
_ZN10wxMenuItem20SetAsRadioGroupStartEv
_ZN10wxMenuItem5CheckEb
_ZN10wxMenuItem6EnableEb
_ZN10wxMenuItem7SetTextERK8wxString
_ZN10wxMenuItem9SetBitmapERK8wxBitmap
_ZN10wxMenuItemC1EP6wxMenuiRK8wxStringS4_10wxItemKindS1_
_ZN10wxMenuItemC2EP6wxMenuiRK8wxStringS4_10wxItemKindS1_
_ZN10wxMenuItemD0Ev
_ZN10wxMenuItemD1Ev
_ZN10wxMenuItemD2Ev
_ZN10wxMenuList10CreateNodeEP10wxNodeBaseS1_PvRK9wxListKey
_ZN10wxMenuList10DeleteNodeEP16wxwxMenuListNode
_ZN10wxMenuList14const_iteratorC1EP16wxwxMenuListNodeS2_
_ZN10wxMenuList14const_iteratorC1Ev
_ZN10wxMenuList14const_iteratorC2EP16wxwxMenuListNodeS2_
_ZN10wxMenuList14const_iteratorC2Ev
_ZN10wxMenuList14const_iteratorC5EP16wxwxMenuListNodeS2_
_ZN10wxMenuList14const_iteratorC5Ev
_ZN10wxMenuList14const_iteratorppEi
_ZN10wxMenuList22compatibility_iteratorC1EP16wxwxMenuListNode
_ZN10wxMenuList22compatibility_iteratorC2EP16wxwxMenuListNode
_ZN10wxMenuList22compatibility_iteratorC5EP16wxwxMenuListNode
_ZN10wxMenuList3endEv
_ZN10wxMenuList5beginEv
_ZN10wxMenuList5clearEv
_ZN10wxMenuList5EraseEP16wxwxMenuListNode
_ZN10wxMenuList6AppendEP6wxMenu
_ZN10wxMenuList6InsertEP16wxwxMenuListNodeP6wxMenu
_ZN10wxMenuList8iteratorC1EP16wxwxMenuListNodeS2_
_ZN10wxMenuList8iteratorC1Ev
_ZN10wxMenuList8iteratorC2EP16wxwxMenuListNodeS2_
_ZN10wxMenuList8iteratorC2Ev
_ZN10wxMenuList8iteratorC5EP16wxwxMenuListNodeS2_
_ZN10wxMenuList8iteratorC5Ev
_ZN10wxMenuList8iteratorppEv
_ZN10wxMenuListC1E9wxKeyType
_ZN10wxMenuListC2E9wxKeyType
_ZN10wxMenuListC5E9wxKeyType
_ZN10wxMenuListD0Ev
_ZN10wxMenuListD1Ev
_ZN10wxMenuListD2Ev
_ZN10wxMenuListD5Ev
_ZN10wxMirrorDC10DoDrawIconERK6wxIconii
_ZN10wxMirrorDC10DoDrawLineEiiii
_ZN10wxMirrorDC10DoDrawTextERK8wxStringii
_ZN10wxMirrorDC10SetMapModeEi
_ZN10wxMirrorDC10SetPaletteERK9wxPalette
_ZN10wxMirrorDC11DoCrossHairEii
_ZN10wxMirrorDC11DoDrawLinesEiP7wxPointii
_ZN10wxMirrorDC11DoDrawPointEii
_ZN10wxMirrorDC11DoFloodFillEiiRK8wxColouri
_ZN10wxMirrorDC12DoDrawBitmapERK8wxBitmapiib
_ZN10wxMirrorDC12SetUserScaleEdd
_ZN10wxMirrorDC13DoDrawEllipseEiiii
_ZN10wxMirrorDC13DoDrawPolygonEiP7wxPointiii
_ZN10wxMirrorDC13SetBackgroundERK7wxBrush
_ZN10wxMirrorDC15DoDrawCheckMarkEiiii
_ZN10wxMirrorDC15DoDrawRectangleEiiii
_ZN10wxMirrorDC15SetDeviceOriginEii
_ZN10wxMirrorDC16SetLogicalOriginEii
_ZN10wxMirrorDC17DoDrawEllipticArcEiiiidd
_ZN10wxMirrorDC17DoDrawRotatedTextERK8wxStringiid
_ZN10wxMirrorDC17SetBackgroundModeEi
_ZN10wxMirrorDC18SetAxisOrientationEbb
_ZN10wxMirrorDC18SetLogicalFunctionEi
_ZN10wxMirrorDC19DoSetClippingRegionEiiii
_ZN10wxMirrorDC21DestroyClippingRegionEv
_ZN10wxMirrorDC22DoDrawRoundedRectangleEiiiid
_ZN10wxMirrorDC27DoSetClippingRegionAsRegionERK8wxRegion
_ZN10wxMirrorDC4SwapERiS0_
_ZN10wxMirrorDC5ClearEv
_ZN10wxMirrorDC6DoBlitEiiiiP4wxDCiiibii
_ZN10wxMirrorDC6SetPenERK5wxPen
_ZN10wxMirrorDC7ReflectERK6wxSize
_ZN10wxMirrorDC7SetFontERK6wxFont
_ZN10wxMirrorDC8SetBrushERK7wxBrush
_ZN10wxMirrorDC9DoDrawArcEiiiiii
_ZN10wxMirrorDCC1ER4wxDCb
_ZN10wxMirrorDCC2ER4wxDCb
_ZN10wxMirrorDCC5ER4wxDCb
_ZN10wxMirrorDCD0Ev
_ZN10wxMirrorDCD1Ev
_ZN10wxMirrorDCD2Ev
_ZN10wxMirrorDCD5Ev
_ZN10wxNodeBase10DeleteDataEv
_ZN10wxNodeBase7SetDataEPv
_ZN10wxNodeBaseC1EP10wxListBasePS_S2_PvRK9wxListKey
_ZN10wxNodeBaseC2EP10wxListBasePS_S2_PvRK9wxListKey
_ZN10wxNodeBaseD0Ev
_ZN10wxNodeBaseD1Ev
_ZN10wxNodeBaseD2Ev
_ZN10wxNotebook10InsertPageEmP8wxWindowRK8wxStringbi
_ZN10wxNotebook10RefreshTabEib
_ZN10wxNotebook10SetPaddingERK6wxSize
_ZN10wxNotebook10SetTabSizeERK6wxSize
_ZN10wxNotebook11SetPageSizeERK6wxSize
_ZN10wxNotebook11SetPageTextEmRK8wxString
_ZN10wxNotebook12DoMoveWindowEiiii
_ZN10wxNotebook12DoRemovePageEm
_ZN10wxNotebook12ms_classInfoE
_ZN10wxNotebook12ScrollLastToEi
_ZN10wxNotebook12SetPageImageEmi
_ZN10wxNotebook12SetSelectionEm
_ZN10wxNotebook13PerformActionERK8wxStringlS2_
_ZN10wxNotebook13UpdateSpinBtnEv
_ZN10wxNotebook14DeleteAllPagesEv
_ZN10wxNotebook14DoSetSelectionEmi
_ZN10wxNotebook14RefreshAllTabsEv
_ZN10wxNotebook14RefreshCurrentEv
_ZN10wxNotebook14wxCreateObjectEv
_ZN10wxNotebook15ChangeSelectionEm
_ZN10wxNotebook15PositionSpinBtnEv
_ZN10wxNotebook18CalcLastVisibleTabEv
_ZN10wxNotebook18GetStdInputHandlerEP14wxInputHandler
_ZN10wxNotebook20DoGetStdInputHandlerEP14wxInputHandler
_ZN10wxNotebook4InitEv
_ZN10wxNotebook6CreateEP8wxWindowiRK7wxPointRK6wxSizelRK8wxString
_ZN10wxNotebook6DoDrawEP17wxControlRenderer
_ZN10wxNotebook8RelayoutEv
_ZN10wxNotebook8ScrollToEi
_ZN10wxNotebook9DoDrawTabER4wxDCRK6wxRectm
_ZN10wxNotebook9DoSetSizeEiiiii
_ZN10wxNotebook9ResizeTabEi
_ZN10wxNotebookC1EP8wxWindowiRK7wxPointRK6wxSizelRK8wxString
_ZN10wxNotebookC1Ev
_ZN10wxNotebookC2EP8wxWindowiRK7wxPointRK6wxSizelRK8wxString
_ZN10wxNotebookC2Ev
_ZN10wxNotebookC5EP8wxWindowiRK7wxPointRK6wxSizelRK8wxString
_ZN10wxNotebookC5Ev
_ZN10wxNotebookD0Ev
_ZN10wxNotebookD1Ev
_ZN10wxNotebookD2Ev
_ZN10wxPathList10AddEnvListERK8wxString
_ZN10wxPathList20EnsureFileAccessibleERK8wxString
_ZN10wxPathList3AddERK13wxArrayString
_ZN10wxPathList3AddERK8wxString
_ZN10wxPathListC1Ev
_ZN10wxPathListC2Ev
_ZN10wxPathListC5Ev
_ZN10wxPathListD1Ev
_ZN10wxPathListD2Ev
_ZN10wxPathListD5Ev
_ZN10wxPlatform11AddPlatformEi
_ZN10wxPlatform14ClearPlatformsEv
_ZN10wxPlatform18sm_customPlatformsE
_ZN10wxPlatform2IfEid
_ZN10wxPlatform2IfEil
_ZN10wxPlatform2IfEiRK8wxString
_ZN10wxPlatform2IsEi
_ZN10wxPlatform4CopyERKS_
_ZN10wxPlatform4ElseEd
_ZN10wxPlatform4ElseEl
_ZN10wxPlatform4ElseERK8wxString
_ZN10wxPlatform4InitEv
_ZN10wxPlatform5IfNotEid
_ZN10wxPlatform5IfNotEii
_ZN10wxPlatform5IfNotEil
_ZN10wxPlatform5IfNotEiRK8wxString
_ZN10wxPlatform6ElseIfEid
_ZN10wxPlatform6ElseIfEil
_ZN10wxPlatform6ElseIfEiRK8wxString
_ZN10wxPlatform9ElseIfNotEid
_ZN10wxPlatform9ElseIfNotEil
_ZN10wxPlatform9ElseIfNotEiRK8wxString
_ZN10wxPlatformC1Ed
_ZN10wxPlatformC1El
_ZN10wxPlatformC1ERK8wxString
_ZN10wxPlatformC1Ev
_ZN10wxPlatformC2Ed
_ZN10wxPlatformC2El
_ZN10wxPlatformC2ERK8wxString
_ZN10wxPlatformC2Ev
_ZN10wxPlatformC5Ed
_ZN10wxPlatformC5El
_ZN10wxPlatformC5ERK8wxString
_ZN10wxPlatformC5Ev
_ZN10wxPlatformD1Ev
_ZN10wxPlatformD2Ev
_ZN10wxPlatformD5Ev
_ZN10wxPrintout11GetPageInfoEPiS0_S0_S0_
_ZN10wxPrintout12ms_classInfoE
_ZN10wxPrintout12SetIsPreviewEb
_ZN10wxPrintout12SetPPIScreenEii
_ZN10wxPrintout13OnEndDocumentEv
_ZN10wxPrintout13OnEndPrintingEv
_ZN10wxPrintout13SetPageSizeMMEii
_ZN10wxPrintout13SetPPIPrinterEii
_ZN10wxPrintout15OnBeginDocumentEii
_ZN10wxPrintout15OnBeginPrintingEv
_ZN10wxPrintout16SetLogicalOriginEii
_ZN10wxPrintout17FitThisSizeToPageERK6wxSize
_ZN10wxPrintout17OnPreparePrintingEv
_ZN10wxPrintout17SetPageSizePixelsEii
_ZN10wxPrintout18FitThisSizeToPaperERK6wxSize
_ZN10wxPrintout18SetPaperRectPixelsERK6wxRect
_ZN10wxPrintout19MapScreenSizeToPageEv
_ZN10wxPrintout19OffsetLogicalOriginEii
_ZN10wxPrintout20MapScreenSizeToPaperEv
_ZN10wxPrintout21MapScreenSizeToDeviceEv
_ZN10wxPrintout24FitThisSizeToPageMarginsERK6wxSizeRK21wxPageSetupDialogData
_ZN10wxPrintout26MapScreenSizeToPageMarginsERK21wxPageSetupDialogData
_ZN10wxPrintout5SetDCEP4wxDC
_ZN10wxPrintout7HasPageEi
_ZN10wxPrintoutC1ERK8wxString
_ZN10wxPrintoutC2ERK8wxString
_ZN10wxPrintoutD0Ev
_ZN10wxPrintoutD1Ev
_ZN10wxPrintoutD2Ev
_ZN10wxProtocol11SetPasswordERK8wxString
_ZN10wxProtocol12ms_classInfoE
_ZN10wxProtocol14GetContentTypeEv
_ZN10wxProtocol7ConnectER13wxSockAddressb
_ZN10wxProtocol7ConnectERK8wxString
_ZN10wxProtocol7SetUserERK8wxString
_ZN10wxProtocol8ReadLineEP12wxSocketBaseR8wxString
_ZN10wxProtocol8ReadLineER8wxString
_ZN10wxProtocol9ReconnectEv
_ZN10wxProtocolC1Ev
_ZN10wxProtocolC2Ev
_ZN10wxProtocolD0Ev
_ZN10wxProtocolD1Ev
_ZN10wxProtocolD2Ev
_ZN10wxProtocolD5Ev
_ZN10wxQuantize10DoQuantizeEjjPPhS1_S0_i
_ZN10wxQuantize12ms_classInfoE
_ZN10wxQuantize14wxCreateObjectEv
_ZN10wxQuantize8QuantizeERK7wxImageRS0_iPPhi
_ZN10wxQuantize8QuantizeERK7wxImageRS0_PP9wxPaletteiPPhi
_ZN10wxQuantizeC1Ev
_ZN10wxQuantizeC2Ev
_ZN10wxQuantizeC5Ev
_ZN10wxQuantizeD0Ev
_ZN10wxQuantizeD1Ev
_ZN10wxQuantizeD2Ev
_ZN10wxQuantizeD5Ev
_ZN10wxRadioBox12DoMoveWindowEiiii
_ZN10wxRadioBox12ms_classInfoE
_ZN10wxRadioBox12SetSelectionEi
_ZN10wxRadioBox13OnRadioButtonER7wxEvent
_ZN10wxRadioBox14SendRadioEventEv
_ZN10wxRadioBox14wxCreateObjectEv
_ZN10wxRadioBox4InitEv
_ZN10wxRadioBox4ShowEb
_ZN10wxRadioBox4ShowEjb
_ZN10wxRadioBox6AppendEiPK8wxString
_ZN10wxRadioBox6CreateEP8wxWindowiRK8wxStringRK7wxPointRK6wxSizeiPS3_ilRK11wxValidatorS4_
_ZN10wxRadioBox6CreateEP8wxWindowiRK8wxStringRK7wxPointRK6wxSizeRK13wxArrayStringilRK11wxValidatorS4_
_ZN10wxRadioBox6EnableEb
_ZN10wxRadioBox6EnableEjb
_ZN10wxRadioBox8SetLabelERK8wxString
_ZN10wxRadioBox9OnKeyDownER10wxKeyEvent
_ZN10wxRadioBox9SetStringEjRK8wxString
_ZN10wxRadioBoxC1EP8wxWindowiRK8wxStringRK7wxPointRK6wxSizeiPS3_ilRK11wxValidatorS4_
_ZN10wxRadioBoxC1EP8wxWindowiRK8wxStringRK7wxPointRK6wxSizeRK13wxArrayStringilRK11wxValidatorS4_
_ZN10wxRadioBoxC1Ev
_ZN10wxRadioBoxC2EP8wxWindowiRK8wxStringRK7wxPointRK6wxSizeiPS3_ilRK11wxValidatorS4_
_ZN10wxRadioBoxC2EP8wxWindowiRK8wxStringRK7wxPointRK6wxSizeRK13wxArrayStringilRK11wxValidatorS4_
_ZN10wxRadioBoxC2Ev
_ZN10wxRadioBoxC5EP8wxWindowiRK8wxStringRK7wxPointRK6wxSizeiPS3_ilRK11wxValidatorS4_
_ZN10wxRadioBoxC5Ev
_ZN10wxRadioBoxD0Ev
_ZN10wxRadioBoxD1Ev
_ZN10wxRadioBoxD2Ev
_ZN10wxRendererC1Ev
_ZN10wxRendererC2Ev
_ZN10wxRendererC5Ev
_ZN10wxRendererD0Ev
_ZN10wxRendererD1Ev
_ZN10wxRendererD2Ev
_ZN10wxSashEdgeC1Ev
_ZN10wxSashEdgeC2Ev
_ZN10wxSashEdgeC5Ev
_ZN10wxScreenDC12ms_classInfoE
_ZN10wxScreenDC14wxCreateObjectEv
_ZN10wxScreenDC15EndDrawingOnTopEv
_ZN10wxScreenDC16sm_overlayWindowE
_ZN10wxScreenDC17sm_overlayWindowXE
_ZN10wxScreenDC17sm_overlayWindowYE
_ZN10wxScreenDC17StartDrawingOnTopEP6wxRect
_ZN10wxScreenDC17StartDrawingOnTopEP8wxWindow
_ZN10wxScreenDCC1Ev
_ZN10wxScreenDCC2Ev
_ZN10wxScreenDCD0Ev
_ZN10wxScreenDCD1Ev
_ZN10wxScreenDCD2Ev
_ZN10wxSpinCtrl12DoMoveWindowEiiii
_ZN10wxSpinCtrl12ms_classInfoE
_ZN10wxSpinCtrl12SetSelectionEll
_ZN10wxSpinCtrl12SetTextValueEi
_ZN10wxSpinCtrl14wxCreateObjectEv
_ZN10wxSpinCtrl4InitEv
_ZN10wxSpinCtrl4ShowEb
_ZN10wxSpinCtrl6CreateEP8wxWindowiRK8wxStringRK7wxPointRK6wxSizeliiiS4_
_ZN10wxSpinCtrl6EnableEb
_ZN10wxSpinCtrl8ReparentEP8wxWindow
_ZN10wxSpinCtrl8SetRangeEii
_ZN10wxSpinCtrl8SetValueEi
_ZN10wxSpinCtrl8SetValueERK8wxString
_ZN10wxSpinCtrlC1EP8wxWindowiRK8wxStringRK7wxPointRK6wxSizeliiiS4_
_ZN10wxSpinCtrlC1Ev
_ZN10wxSpinCtrlC2EP8wxWindowiRK8wxStringRK7wxPointRK6wxSizeliiiS4_
_ZN10wxSpinCtrlC2Ev
_ZN10wxSpinCtrlC5EP8wxWindowiRK8wxStringRK7wxPointRK6wxSizeliiiS4_
_ZN10wxSpinCtrlC5Ev
_ZN10wxSpinCtrlD0Ev
_ZN10wxSpinCtrlD1Ev
_ZN10wxSpinCtrlD2Ev
_ZN10wxStockGDI11ms_instanceE
_ZN10wxStockGDI14ms_stockObjectE
_ZN10wxStockGDI6GetPenENS_4ItemE
_ZN10wxStockGDI7GetFontENS_4ItemE
_ZN10wxStockGDI8GetBrushENS_4ItemE
_ZN10wxStockGDI8instanceEv
_ZN10wxStockGDI9DeleteAllEv
_ZN10wxStockGDI9GetColourENS_4ItemE
_ZN10wxStockGDI9GetCursorENS_4ItemE
_ZN10wxStockGDIC1Ev
_ZN10wxStockGDIC2Ev
_ZN10wxStockGDID0Ev
_ZN10wxStockGDID1Ev
_ZN10wxStockGDID2Ev
_ZN10wxTabFrame16SetTabCtrlHeightEi
_ZN10wxTabFrame4ShowEb
_ZN10wxTabFrame6UpdateEv
_ZN10wxTabFrame8DoSizingEv
_ZN10wxTabFrame9DoSetSizeEiiiii
_ZN10wxTabFrameC1Ev
_ZN10wxTabFrameC2Ev
_ZN10wxTabFrameC5Ev
_ZN10wxTabFrameD0Ev
_ZN10wxTabFrameD1Ev
_ZN10wxTabFrameD2Ev
_ZN10wxTabFrameD5Ev
_ZN10wxTarEntry10SetGroupIdEi
_ZN10wxTarEntry11SetDateTimeERK10wxDateTime
_ZN10wxTarEntry11SetDevMajorEi
_ZN10wxTarEntry11SetDevMinorEi
_ZN10wxTarEntry11SetLinkNameERK8wxString
_ZN10wxTarEntry11SetTypeFlagEi
_ZN10wxTarEntry11SetUserNameERK8wxString
_ZN10wxTarEntry12ms_classInfoE
_ZN10wxTarEntry12SetGroupNameERK8wxString
_ZN10wxTarEntry13SetAccessTimeERK10wxDateTime
_ZN10wxTarEntry13SetCreateTimeERK10wxDateTime
_ZN10wxTarEntry13SetIsReadOnlyEb
_ZN10wxTarEntry14wxCreateObjectEv
_ZN10wxTarEntry15GetInternalNameERK8wxString12wxPathFormatPb
_ZN10wxTarEntry7SetModeEi
_ZN10wxTarEntry7SetNameERK8wxString12wxPathFormat
_ZN10wxTarEntry7SetSizeEl
_ZN10wxTarEntry8SetIsDirEb
_ZN10wxTarEntry9SetOffsetEl
_ZN10wxTarEntry9SetUserIdEi
_ZN10wxTarEntryaSERKS_
_ZN10wxTarEntryC1ERK8wxStringRK10wxDateTimel
_ZN10wxTarEntryC1ERKS_
_ZN10wxTarEntryC2ERK8wxStringRK10wxDateTimel
_ZN10wxTarEntryC2ERKS_
_ZN10wxTarEntryD0Ev
_ZN10wxTarEntryD1Ev
_ZN10wxTarEntryD2Ev
_ZN10wxTempFile4OpenERK8wxString
_ZN10wxTempFile4SeekEl10wxSeekMode
_ZN10wxTempFile5WriteEPKvm
_ZN10wxTempFile5WriteERK8wxStringRK8wxMBConv
_ZN10wxTempFile6CommitEv
_ZN10wxTempFile7DiscardEv
_ZN10wxTempFileC1ERK8wxString
_ZN10wxTempFileC2ERK8wxString
_ZN10wxTempFileD1Ev
_ZN10wxTempFileD2Ev
_ZN10wxTextAttr12SetAlignmentE19wxTextAttrAlignment
_ZN10wxTextAttr13SetLeftIndentEii
_ZN10wxTextAttr13SetTextColourERK8wxColour
_ZN10wxTextAttr14SetRightIndentEi
_ZN10wxTextAttr19SetBackgroundColourERK8wxColour
_ZN10wxTextAttr4InitEv
_ZN10wxTextAttr7CombineERKS_S1_PK14wxTextCtrlBase
_ZN10wxTextAttr7SetFontERK6wxFontl
_ZN10wxTextAttr7SetTabsERK10wxArrayInt
_ZN10wxTextAttr8SetFlagsEl
_ZN10wxTextAttraSERKS_
_ZN10wxTextAttrC1ERK8wxColourS2_RK6wxFont19wxTextAttrAlignment
_ZN10wxTextAttrC1Ev
_ZN10wxTextAttrC2ERK8wxColourS2_RK6wxFont19wxTextAttrAlignment
_ZN10wxTextAttrC2Ev
_ZN10wxTextAttrC5Ev
_ZN10wxTextAttrD1Ev
_ZN10wxTextAttrD2Ev
_ZN10wxTextAttrD5Ev
_ZN10wxTextCtrl10AppendTextERK8wxString
_ZN10wxTextCtrl10DoSetValueERK8wxStringi
_ZN10wxTextCtrl10InsertLineElRK8wxString
_ZN10wxTextCtrl10RemoveLineEl
_ZN10wxTextCtrl10ScrollTextEl
_ZN10wxTextCtrl11CreateCaretEv
_ZN10wxTextCtrl11DoPrepareDCER4wxDC
_ZN10wxTextCtrl11ReplaceLineElRK8wxString
_ZN10wxTextCtrl11SetEditableEb
_ZN10wxTextCtrl12DiscardEditsEv
_ZN10wxTextCtrl12DoDrawBorderER4wxDCRK6wxRect
_ZN10wxTextCtrl12ms_classInfoE
_ZN10wxTextCtrl12SetSelectionEll
_ZN10wxTextCtrl12ShowPositionEl
_ZN10wxTextCtrl13PerformActionERK8wxStringlS2_
_ZN10wxTextCtrl13sm_eventTableE
_ZN10wxTextCtrl14ClearSelectionEv
_ZN10wxTextCtrl14OnInternalIdleEv
_ZN10wxTextCtrl14RecalcMaxWidthEv
_ZN10wxTextCtrl14UpdateMaxWidthEl
_ZN10wxTextCtrl14UpdateTextRectEv
_ZN10wxTextCtrl14wxCreateObjectEv
_ZN10wxTextCtrl15RefreshColRangeEllm
_ZN10wxTextCtrl15RefreshTextRectERK6wxRectb
_ZN10wxTextCtrl15RemoveSelectionEv
_ZN10wxTextCtrl16DoDrawTextInRectER4wxDCRK6wxRect
_ZN10wxTextCtrl16GetPositionAboveEv
_ZN10wxTextCtrl16GetPositionBelowEv
_ZN10wxTextCtrl16RefreshLineRangeEll
_ZN10wxTextCtrl16RefreshSelectionEv
_ZN10wxTextCtrl16RefreshTextRangeEll
_ZN10wxTextCtrl16ShowHorzPositionEi
_ZN10wxTextCtrl16UpdateScrollbarsEv
_ZN10wxTextCtrl17RecalcFontMetricsEv
_ZN10wxTextCtrl17RefreshPixelRangeElii
_ZN10wxTextCtrl17SetInsertionPointEl
_ZN10wxTextCtrl17sm_eventHashTableE
_ZN10wxTextCtrl17UpdateLastVisibleEv
_ZN10wxTextCtrl18GetStdInputHandlerEP14wxInputHandler
_ZN10wxTextCtrl18InitInsertionPointEv
_ZN10wxTextCtrl18MoveInsertionPointEl
_ZN10wxTextCtrl19DoDrawLineWrapMarksER4wxDCRK6wxRect
_ZN10wxTextCtrl19DoSetInsertionPointEl
_ZN10wxTextCtrl20DoGetStdInputHandlerEP14wxInputHandler
_ZN10wxTextCtrl20RefreshLineWrapMarksEll
_ZN10wxTextCtrl20SetInsertionPointEndEv
_ZN10wxTextCtrl20sm_eventTableEntriesE
_ZN10wxTextCtrl3CutEv
_ZN10wxTextCtrl4CopyEv
_ZN10wxTextCtrl4InitEv
_ZN10wxTextCtrl4RedoEv
_ZN10wxTextCtrl4UndoEv
_ZN10wxTextCtrl5ClearEv
_ZN10wxTextCtrl5DoCutEv
_ZN10wxTextCtrl5MDataEv
_ZN10wxTextCtrl5PasteEv
_ZN10wxTextCtrl5SDataEv
_ZN10wxTextCtrl5WDataEv
_ZN10wxTextCtrl6CreateEP8wxWindowiRK8wxStringRK7wxPointRK6wxSizelRK11wxValidatorS4_
_ZN10wxTextCtrl6DoDrawEP17wxControlRenderer
_ZN10wxTextCtrl6EnableEb
_ZN10wxTextCtrl6OnCharER10wxKeyEvent
_ZN10wxTextCtrl6OnSizeER11wxSizeEvent
_ZN10wxTextCtrl6RemoveEll
_ZN10wxTextCtrl7DoPasteEv
_ZN10wxTextCtrl7ReplaceEllRK8wxString
_ZN10wxTextCtrl7SetFontERK6wxFont
_ZN10wxTextCtrl9HideCaretEv
_ZN10wxTextCtrl9MarkDirtyEv
_ZN10wxTextCtrl9ShowCaretEb
_ZN10wxTextCtrl9WriteTextERK8wxString
_ZN10wxTextCtrlC1EP8wxWindowiRK8wxStringRK7wxPointRK6wxSizelRK11wxValidatorS4_
_ZN10wxTextCtrlC1Ev
_ZN10wxTextCtrlC2EP8wxWindowiRK8wxStringRK7wxPointRK6wxSizelRK11wxValidatorS4_
_ZN10wxTextCtrlC2Ev
_ZN10wxTextCtrlC5EP8wxWindowiRK8wxStringRK7wxPointRK6wxSizelRK11wxValidatorS4_
_ZN10wxTextCtrlC5Ev
_ZN10wxTextCtrlD0Ev
_ZN10wxTextCtrlD1Ev
_ZN10wxTextCtrlD2Ev
_ZN10wxTextFile6OnOpenERK8wxStringN12wxTextBuffer20wxTextBufferOpenModeE
_ZN10wxTextFile6OnReadERK8wxMBConv
_ZN10wxTextFile7OnCloseEv
_ZN10wxTextFile7OnWriteE14wxTextFileTypeRK8wxMBConv
_ZN10wxTextFileC1ERK8wxString
_ZN10wxTextFileC1Ev
_ZN10wxTextFileC2ERK8wxString
_ZN10wxTextFileC2Ev
_ZN10wxTextFileC5Ev
_ZN10wxTextFileD0Ev
_ZN10wxTextFileD1Ev
_ZN10wxTextFileD2Ev
_ZN10wxTextFileD5Ev
_ZN10wxTimeSpan5HoursEl
_ZN10wxTimeSpan7SecondsE16wxLongLongNative
_ZN10wxTimeSpan8MultiplyEi
_ZN10wxTimeSpanC1Ell16wxLongLongNativeS0_
_ZN10wxTimeSpanC1ERK16wxLongLongNative
_ZN10wxTimeSpanC2Ell16wxLongLongNativeS0_
_ZN10wxTimeSpanC2ERK16wxLongLongNative
_ZN10wxTimeSpanC5Ell16wxLongLongNativeS0_
_ZN10wxTimeSpanC5ERK16wxLongLongNative
_ZN10wxToolbook10InsertPageEmP8wxWindowRK8wxStringbi
_ZN10wxToolbook11SetPageTextEmRK8wxString
_ZN10wxToolbook12DoRemovePageEm
_ZN10wxToolbook12ms_classInfoE
_ZN10wxToolbook12SetImageListEP11wxImageList
_ZN10wxToolbook12SetPageImageEmi
_ZN10wxToolbook12SetSelectionEm
_ZN10wxToolbook13sm_eventTableE
_ZN10wxToolbook14DeleteAllPagesEv
_ZN10wxToolbook14OnToolSelectedER14wxCommandEvent
_ZN10wxToolbook14wxCreateObjectEv
_ZN10wxToolbook15ChangeSelectionEm
_ZN10wxToolbook16MakeChangedEventER19wxBookCtrlBaseEvent
_ZN10wxToolbook17sm_eventHashTableE
_ZN10wxToolbook18UpdateSelectedPageEm
_ZN10wxToolbook20sm_eventTableEntriesE
_ZN10wxToolbook4InitEv
_ZN10wxToolbook6CreateEP8wxWindowiRK7wxPointRK6wxSizelRK8wxString
_ZN10wxToolbook6OnIdleER11wxIdleEvent
_ZN10wxToolbook6OnSizeER11wxSizeEvent
_ZN10wxToolbook7RealizeEv
_ZN10wxToolbookC1EP8wxWindowiRK7wxPointRK6wxSizelRK8wxString
_ZN10wxToolbookC1Ev
_ZN10wxToolbookC2EP8wxWindowiRK7wxPointRK6wxSizelRK8wxString
_ZN10wxToolbookC2Ev
_ZN10wxToolbookC5EP8wxWindowiRK7wxPointRK6wxSizelRK8wxString
_ZN10wxToolbookC5Ev
_ZN10wxToolbookD0Ev
_ZN10wxToolbookD1Ev
_ZN10wxToolbookD2Ev
_ZN10wxToolbookD5Ev
_ZN10wxTreebook10AddSubPageEP8wxWindowRK8wxStringbi
_ZN10wxTreebook10DeletePageEm
_ZN10wxTreebook10ExpandNodeEmb
_ZN10wxTreebook10InsertPageEmP8wxWindowRK8wxStringbi
_ZN10wxTreebook11RemoveChildEP12wxWindowBase
_ZN10wxTreebook11SetPageTextEmRK8wxString
_ZN10wxTreebook12DoAddSubPageEP8wxWindowRK8wxStringbi
_ZN10wxTreebook12DoInsertPageEmP8wxWindowRK8wxStringbi
_ZN10wxTreebook12DoRemovePageEm
_ZN10wxTreebook12ms_classInfoE
_ZN10wxTreebook12OnChildFocusER17wxChildFocusEvent
_ZN10wxTreebook12SetImageListEP11wxImageList
_ZN10wxTreebook12SetPageImageEmi
_ZN10wxTreebook12SetSelectionEm
_ZN10wxTreebook13InsertSubPageEmP8wxWindowRK8wxStringbi
_ZN10wxTreebook13sm_eventTableE
_ZN10wxTreebook14DeleteAllPagesEv
_ZN10wxTreebook14DoSetSelectionEmi
_ZN10wxTreebook14wxCreateObjectEv
_ZN10wxTreebook15AssignImageListEP11wxImageList
_ZN10wxTreebook15ChangeSelectionEm
_ZN10wxTreebook15DoInsertSubPageEmP8wxWindowRK8wxStringbi
_ZN10wxTreebook15OnNavigationKeyER20wxNavigationKeyEvent
_ZN10wxTreebook17DoInternalAddPageEmP8wxWindow12wxTreeItemId
_ZN10wxTreebook17DoUpdateSelectionEbi
_ZN10wxTreebook17sm_eventHashTableE
_ZN10wxTreebook20sm_eventTableEntriesE
_ZN10wxTreebook21OnTreeSelectionChangeER11wxTreeEvent
_ZN10wxTreebook24SetFocusIgnoringChildrenEv
_ZN10wxTreebook25DoInternalRemovePageRangeEmm
_ZN10wxTreebook27OnTreeNodeExpandedCollapsedER11wxTreeEvent
_ZN10wxTreebook4InitEv
_ZN10wxTreebook6CreateEP8wxWindowiRK7wxPointRK6wxSizelRK8wxString
_ZN10wxTreebook7AddPageEP8wxWindowRK8wxStringbi
_ZN10wxTreebook7OnFocusER12wxFocusEvent
_ZN10wxTreebook8SetFocusEv
_ZN10wxTreebookC1EP8wxWindowiRK7wxPointRK6wxSizelRK8wxString
_ZN10wxTreebookC1Ev
_ZN10wxTreebookC2EP8wxWindowiRK7wxPointRK6wxSizelRK8wxString
_ZN10wxTreebookC2Ev
_ZN10wxTreebookC5EP8wxWindowiRK7wxPointRK6wxSizelRK8wxString
_ZN10wxTreebookC5Ev
_ZN10wxTreebookD0Ev
_ZN10wxTreebookD1Ev
_ZN10wxTreebookD2Ev
_ZN10wxTreebookD5Ev
_ZN10wxTreeCtrl12ms_classInfoE
_ZN10wxTreeCtrl14wxCreateObjectEv
_ZN10wxTreeCtrlC1EP8wxWindowiRK7wxPointRK6wxSizelRK11wxValidatorRK8wxString
_ZN10wxTreeCtrlC1Ev
_ZN10wxTreeCtrlC2EP8wxWindowiRK7wxPointRK6wxSizelRK11wxValidatorRK8wxString
_ZN10wxTreeCtrlC2Ev
_ZN10wxTreeCtrlC5EP8wxWindowiRK7wxPointRK6wxSizelRK11wxValidatorRK8wxString
_ZN10wxTreeCtrlC5Ev
_ZN10wxTreeCtrlD0Ev
_ZN10wxTreeCtrlD1Ev
_ZN10wxTreeCtrlD2Ev
_ZN10wxTreeCtrlD5Ev
_ZN10wxVListBox10OnLeftDownER12wxMouseEvent
_ZN10wxVListBox10SetMarginsERK7wxPoint
_ZN10wxVListBox11DeselectAllEv
_ZN10wxVListBox11DoSelectAllEb
_ZN10wxVListBox11SelectRangeEmm
_ZN10wxVListBox12DoSetCurrentEi
_ZN10wxVListBox12ms_classInfoE
_ZN10wxVListBox12OnLeftDClickER12wxMouseEvent
_ZN10wxVListBox12SetItemCountEm
_ZN10wxVListBox12SetSelectionEi
_ZN10wxVListBox13sm_eventTableE
_ZN10wxVListBox17DoHandleItemClickEii
_ZN10wxVListBox17SendSelectedEventEv
_ZN10wxVListBox17sm_eventHashTableE
_ZN10wxVListBox20sm_eventTableEntriesE
_ZN10wxVListBox22SetSelectionBackgroundERK8wxColour
_ZN10wxVListBox25GetClassDefaultAttributesE15wxWindowVariant
_ZN10wxVListBox4InitEv
_ZN10wxVListBox6CreateEP8wxWindowiRK7wxPointRK6wxSizelRK8wxString
_ZN10wxVListBox6SelectEmb
_ZN10wxVListBox6ToggleEm
_ZN10wxVListBox7OnPaintER12wxPaintEvent
_ZN10wxVListBox9OnKeyDownER10wxKeyEvent
_ZN10wxVListBoxC1Ev
_ZN10wxVListBoxC2Ev
_ZN10wxVListBoxC5Ev
_ZN10wxVListBoxD0Ev
_ZN10wxVListBoxD1Ev
_ZN10wxVListBoxD2Ev
_ZN10wxWindowDC10DoDrawIconERK6wxIconii
_ZN10wxWindowDC10DoDrawLineEiiii
_ZN10wxWindowDC10DoDrawTextERK8wxStringii
_ZN10wxWindowDC10SetPaletteERK9wxPalette
_ZN10wxWindowDC11DoCrossHairEii
_ZN10wxWindowDC11DoDrawLinesEiP7wxPointii
_ZN10wxWindowDC11DoDrawPointEii
_ZN10wxWindowDC11DoFloodFillEiiRK8wxColouri
_ZN10wxWindowDC12DoDrawBitmapERK8wxBitmapiib
_ZN10wxWindowDC12ms_classInfoE
_ZN10wxWindowDC13DoDrawEllipseEiiii
_ZN10wxWindowDC13DoDrawPolygonEiP7wxPointiii
_ZN10wxWindowDC13SetBackgroundERK7wxBrush
_ZN10wxWindowDC14wxCreateObjectEv
_ZN10wxWindowDC15DoDrawRectangleEiiii
_ZN10wxWindowDC17DoDrawEllipticArcEiiiidd
_ZN10wxWindowDC17DoDrawRotatedTextERK8wxStringiid
_ZN10wxWindowDC17SetBackgroundModeEi
_ZN10wxWindowDC17SetTextBackgroundERK8wxColour
_ZN10wxWindowDC17SetTextForegroundERK8wxColour
_ZN10wxWindowDC18SetLogicalFunctionEi
_ZN10wxWindowDC19DoSetClippingRegionEiiii
_ZN10wxWindowDC21ComputeScaleAndOriginEv
_ZN10wxWindowDC21DestroyClippingRegionEv
_ZN10wxWindowDC22DoDrawRoundedRectangleEiiiid
_ZN10wxWindowDC27DoSetClippingRegionAsRegionERK8wxRegion
_ZN10wxWindowDC4InitEv
_ZN10wxWindowDC5ClearEv
_ZN10wxWindowDC6DoBlitEiiiiP4wxDCiiibii
_ZN10wxWindowDC6SetPenERK5wxPen
_ZN10wxWindowDC7DestroyEv
_ZN10wxWindowDC7SetFontERK6wxFont
_ZN10wxWindowDC7SetUpDCEv
_ZN10wxWindowDC8SetBrushERK7wxBrush
_ZN10wxWindowDC9DoDrawArcEiiiiii
_ZN10wxWindowDCC1EP8wxWindow
_ZN10wxWindowDCC1Ev
_ZN10wxWindowDCC2EP8wxWindow
_ZN10wxWindowDCC2Ev
_ZN10wxWindowDCC5Ev
_ZN10wxWindowDCD0Ev
_ZN10wxWindowDCD1Ev
_ZN10wxWindowDCD2Ev
_ZN10wxXPalette12ms_classInfoE
_ZN10wxXPalette14wxCreateObjectEv
_ZN10wxXPaletteC1Ev
_ZN10wxXPaletteC2Ev
_ZN10wxXPaletteD0Ev
_ZN10wxXPaletteD1Ev
_ZN10wxXPaletteD2Ev
_ZN10wxXPaletteD5Ev
_ZN10wxZipEntry10SetCommentERK8wxString
_ZN10wxZipEntry11ReadCentralER13wxInputStreamR8wxMBConv
_ZN10wxZipEntry11SetDateTimeERK10wxDateTime
_ZN10wxZipEntry11SetNotifierER13wxZipNotifier
_ZN10wxZipEntry12ms_classInfoE
_ZN10wxZipEntry12SetDiskStartEi
_ZN10wxZipEntry13SetIsReadOnlyEb
_ZN10wxZipEntry13SetLocalExtraEPKcm
_ZN10wxZipEntry13UnsetNotifierEv
_ZN10wxZipEntry14ReadDescriptorER13wxInputStream
_ZN10wxZipEntry14wxCreateObjectEv
_ZN10wxZipEntry15GetInternalNameERK8wxString12wxPathFormatPb
_ZN10wxZipEntry15SetSystemMadeByEi
_ZN10wxZipEntry15WriteDescriptorER14wxOutputStreamjll
_ZN10wxZipEntry16SetVersionMadeByEi
_ZN10wxZipEntry16SetVersionNeededEi
_ZN10wxZipEntry17SetCompressedSizeEl
_ZN10wxZipEntry21SetExternalAttributesEj
_ZN10wxZipEntry21SetInternalAttributesEi
_ZN10wxZipEntry6NotifyEv
_ZN10wxZipEntry6SetCrcEj
_ZN10wxZipEntry6SetKeyEl
_ZN10wxZipEntry7SetModeEi
_ZN10wxZipEntry7SetNameERK8wxString12wxPathFormat
_ZN10wxZipEntry7SetSizeEl
_ZN10wxZipEntry8SetExtraEPKcm
_ZN10wxZipEntry8SetFlagsEi
_ZN10wxZipEntry8SetIsDirEb
_ZN10wxZipEntry9ReadLocalER13wxInputStreamR8wxMBConv
_ZN10wxZipEntry9SetMethodEi
_ZN10wxZipEntry9SetOffsetEl
_ZN10wxZipEntryaSERKS_
_ZN10wxZipEntryC1ERK8wxStringRK10wxDateTimel
_ZN10wxZipEntryC1ERKS_
_ZN10wxZipEntryC2ERK8wxStringRK10wxDateTimel
_ZN10wxZipEntryC2ERKS_
_ZN10wxZipEntryD0Ev
_ZN10wxZipEntryD1Ev
_ZN10wxZipEntryD2Ev
_ZN11ArrayGroups3AddEP17wxFileConfigGroup
_ZN11ArrayGroups6RemoveEP17wxFileConfigGroup
_ZN11ArrayGroupsC1EPFiP17wxFileConfigGroupS1_E
_ZN11ArrayGroupsC2EPFiP17wxFileConfigGroupS1_E
_ZN11ArrayGroupsC5EPFiP17wxFileConfigGroupS1_E
_ZN11ArrayGroupsD1Ev
_ZN11ArrayGroupsD2Ev
_ZN11ArrayGroupsD5Ev
_ZN11wxAccelList10CreateNodeEP10wxNodeBaseS1_PvRK9wxListKey
_ZN11wxAccelList10DeleteNodeEP17wxwxAccelListNode
_ZN11wxAccelList22compatibility_iteratorC1EP17wxwxAccelListNode
_ZN11wxAccelList22compatibility_iteratorC2EP17wxwxAccelListNode
_ZN11wxAccelList22compatibility_iteratorC5EP17wxwxAccelListNode
_ZN11wxAccelList3endEv
_ZN11wxAccelList5beginEv
_ZN11wxAccelList5clearEv
_ZN11wxAccelList5EraseEP17wxwxAccelListNode
_ZN11wxAccelList6AppendEP18wxAcceleratorEntry
_ZN11wxAccelList8iteratorC1EP17wxwxAccelListNodeS2_
_ZN11wxAccelList8iteratorC1Ev
_ZN11wxAccelList8iteratorC2EP17wxwxAccelListNodeS2_
_ZN11wxAccelList8iteratorC2Ev
_ZN11wxAccelList8iteratorC5EP17wxwxAccelListNodeS2_
_ZN11wxAccelList8iteratorC5Ev
_ZN11wxAccelList8iteratorppEv
_ZN11wxAccelListaSERKS_
_ZN11wxAccelListC1E9wxKeyType
_ZN11wxAccelListC2E9wxKeyType
_ZN11wxAccelListC5E9wxKeyType
_ZN11wxAccelListD0Ev
_ZN11wxAccelListD1Ev
_ZN11wxAccelListD2Ev
_ZN11wxAccelListD5Ev
_ZN11wxANIHeader16AdjustEndiannessEv
_ZN11wxAnimation10AddHandlerEP18wxAnimationDecoder
_ZN11wxAnimation11FindHandlerE15wxAnimationType
_ZN11wxAnimation11sm_handlersE
_ZN11wxAnimation12ms_classInfoE
_ZN11wxAnimation13InsertHandlerEP18wxAnimationDecoder
_ZN11wxAnimation14wxCreateObjectEv
_ZN11wxAnimation15CleanUpHandlersEv
_ZN11wxAnimation20InitStandardHandlersEv
_ZN11wxAnimation4LoadER13wxInputStream15wxAnimationType
_ZN11wxAnimation8LoadFileERK8wxString15wxAnimationType
_ZN11wxAnimationaSERKS_
_ZN11wxAnimationC1EOS_
_ZN11wxAnimationC1ERKS_
_ZN11wxAnimationC1Ev
_ZN11wxAnimationC2EOS_
_ZN11wxAnimationC2ERKS_
_ZN11wxAnimationC2Ev
_ZN11wxAnimationC5EOS_
_ZN11wxAnimationC5ERKS_
_ZN11wxAnimationC5Ev
_ZN11wxAnimationD0Ev
_ZN11wxAnimationD1Ev
_ZN11wxAnimationD2Ev
_ZN11wxAnimationD5Ev
_ZN11wxAppTraitsC1Ev
_ZN11wxAppTraitsC2Ev
_ZN11wxAppTraitsC5Ev
_ZN11wxAppTraitsD0Ev
_ZN11wxAppTraitsD1Ev
_ZN11wxAppTraitsD2Ev
_ZN11wxAppTraitsD5Ev
_ZN11wxArrayLong3AddElm
_ZN11wxArrayLongC1ERKS_
_ZN11wxArrayLongC1Ev
_ZN11wxArrayLongC2ERKS_
_ZN11wxArrayLongC2Ev
_ZN11wxArrayLongC5ERKS_
_ZN11wxArrayLongC5Ev
_ZN11wxArrayLongD1Ev
_ZN11wxArrayLongD2Ev
_ZN11wxArrayLongD5Ev
_ZN11wxAuiTabArtC1Ev
_ZN11wxAuiTabArtC2Ev
_ZN11wxAuiTabArtC5Ev
_ZN11wxAuiTabArtD0Ev
_ZN11wxAuiTabArtD1Ev
_ZN11wxAuiTabArtD2Ev
_ZN11wxAuiTabArtD5Ev
_ZN11wxBrushBaseaSERKS_
_ZN11wxBrushBaseC1ERKS_
_ZN11wxBrushBaseC1Ev
_ZN11wxBrushBaseC2ERKS_
_ZN11wxBrushBaseC2Ev
_ZN11wxBrushBaseC5ERKS_
_ZN11wxBrushBaseC5Ev
_ZN11wxBrushBaseD0Ev
_ZN11wxBrushBaseD1Ev
_ZN11wxBrushBaseD2Ev
_ZN11wxBrushBaseD5Ev
_ZN11wxBrushList11RemoveBrushEP7wxBrush
_ZN11wxBrushList17FindOrCreateBrushERK8wxColouri
_ZN11wxBrushList8AddBrushEP7wxBrush
_ZN11wxBrushListC1Ev
_ZN11wxBrushListC2Ev
_ZN11wxBrushListC5Ev
_ZN11wxBrushListD1Ev
_ZN11wxBrushListD2Ev
_ZN11wxBrushListD5Ev
_ZN11wxCaretBase10OnSetFocusEv
_ZN11wxCaretBase11OnKillFocusEv
_ZN11wxCaretBase12GetBlinkTimeEv
_ZN11wxCaretBase12SetBlinkTimeEi
_ZN11wxCaretBase4HideEv
_ZN11wxCaretBase4InitEv
_ZN11wxCaretBase4MoveERK7wxPoint
_ZN11wxCaretBase4ShowEb
_ZN11wxCaretBase6CreateEP12wxWindowBaseii
_ZN11wxCaretBase6DoSizeEv
_ZN11wxCaretBase7SetSizeEii
_ZN11wxCaretBase7SetSizeERK6wxSize
_ZN11wxCaretBase8DoCreateEP12wxWindowBaseii
_ZN11wxCaretBaseC1EP12wxWindowBaseii
_ZN11wxCaretBaseC2EP12wxWindowBaseii
_ZN11wxCaretBaseC5EP12wxWindowBaseii
_ZN11wxCaretBaseD0Ev
_ZN11wxCaretBaseD1Ev
_ZN11wxCaretBaseD2Ev
_ZN11wxCaretBaseD5Ev
_ZN11wxClassInfo10UnregisterEv
_ZN11wxClassInfo13sm_classTableE
_ZN11wxClassInfo8RegisterEv
_ZN11wxClassInfo8sm_firstE
_ZN11wxClassInfo9FindClassEPKc
_ZN11wxClassInfoC1EPKcPKS_S3_iPFP8wxObjectvE
_ZN11wxClassInfoC2EPKcPKS_S3_iPFP8wxObjectvE
_ZN11wxClassInfoC5EPKcPKS_S3_iPFP8wxObjectvE
_ZN11wxClassInfoD1Ev
_ZN11wxClassInfoD2Ev
_ZN11wxClipboard11IsSupportedERK12wxDataFormat
_ZN11wxClipboard12ms_classInfoE
_ZN11wxClipboard14wxCreateObjectEv
_ZN11wxClipboard19UsePrimarySelectionEb
_ZN11wxClipboard4OpenEv
_ZN11wxClipboard5ClearEv
_ZN11wxClipboard5CloseEv
_ZN11wxClipboard7AddDataEP12wxDataObject
_ZN11wxClipboard7GetDataER12wxDataObject
_ZN11wxClipboard7SetDataEP12wxDataObject
_ZN11wxClipboardC1Ev
_ZN11wxClipboardC2Ev
_ZN11wxClipboardD0Ev
_ZN11wxClipboardD1Ev
_ZN11wxClipboardD2Ev
_ZN11wxComboCtrl12ms_classInfoE
_ZN11wxComboCtrl14wxCreateObjectEv
_ZN11wxComboCtrlC1EP8wxWindowiRK8wxStringRK7wxPointRK6wxSizelRK11wxValidatorS4_
_ZN11wxComboCtrlC1Ev
_ZN11wxComboCtrlC2EP8wxWindowiRK8wxStringRK7wxPointRK6wxSizelRK11wxValidatorS4_
_ZN11wxComboCtrlC2Ev
_ZN11wxComboCtrlC5EP8wxWindowiRK8wxStringRK7wxPointRK6wxSizelRK11wxValidatorS4_
_ZN11wxComboCtrlC5Ev
_ZN11wxComboCtrlD0Ev
_ZN11wxComboCtrlD1Ev
_ZN11wxComboCtrlD2Ev
_ZN11wxComboCtrlD5Ev
_ZN11wxCondition11WaitTimeoutEm
_ZN11wxCondition4WaitEv
_ZN11wxCondition6SignalEv
_ZN11wxCondition9BroadcastEv
_ZN11wxConditionC1ER7wxMutex
_ZN11wxConditionC2ER7wxMutex
_ZN11wxConditionD1Ev
_ZN11wxConditionD2Ev
_ZN11wxDateEvent12ms_classInfoE
_ZN11wxDateEvent14wxCreateObjectEv
_ZN11wxDateEvent7SetDateERK10wxDateTime
_ZN11wxDateEventC1EP8wxWindowRK10wxDateTimei
_ZN11wxDateEventC1ERKS_
_ZN11wxDateEventC1Ev
_ZN11wxDateEventC2EP8wxWindowRK10wxDateTimei
_ZN11wxDateEventC2ERKS_
_ZN11wxDateEventC2Ev
_ZN11wxDateEventC5EP8wxWindowRK10wxDateTimei
_ZN11wxDateEventC5ERKS_
_ZN11wxDateEventC5Ev
_ZN11wxDateEventD0Ev
_ZN11wxDateEventD1Ev
_ZN11wxDateEventD2Ev
_ZN11wxDateEventD5Ev
_ZN11wxDCClipperC1ER4wxDCiiii
_ZN11wxDCClipperC1ER4wxDCRK6wxRect
_ZN11wxDCClipperC2ER4wxDCiiii
_ZN11wxDCClipperC2ER4wxDCRK6wxRect
_ZN11wxDCClipperC5ER4wxDCiiii
_ZN11wxDCClipperC5ER4wxDCRK6wxRect
_ZN11wxDCClipperD1Ev
_ZN11wxDCClipperD2Ev
_ZN11wxDCClipperD5Ev
_ZN11wxDCOverlay4InitEP10wxWindowDCiiii
_ZN11wxDCOverlay5ClearEv
_ZN11wxDCOverlayC1ER9wxOverlayP10wxWindowDC
_ZN11wxDCOverlayC1ER9wxOverlayP10wxWindowDCiiii
_ZN11wxDCOverlayC2ER9wxOverlayP10wxWindowDC
_ZN11wxDCOverlayC2ER9wxOverlayP10wxWindowDCiiii
_ZN11wxDCOverlayD0Ev
_ZN11wxDCOverlayD1Ev
_ZN11wxDCOverlayD2Ev
_ZN11wxEventLoop3RunEv
_ZN11wxEventLoop4ExitEi
_ZN11wxEventLoop8DispatchEv
_ZN11wxEventLoopC1Ev
_ZN11wxEventLoopC2Ev
_ZN11wxEventLoopC5Ev
_ZN11wxEventLoopD0Ev
_ZN11wxEventLoopD1Ev
_ZN11wxEventLoopD2Ev
_ZN11wxFileProto12ms_classInfoE
_ZN11wxFileProto14GetInputStreamERK8wxString
_ZN11wxFileProto14wxCreateObjectEv
_ZN11wxFileProto19g_proto_wxFileProtoE
_ZN11wxFileProto5AbortEv
_ZN11wxFileProto8GetErrorEv
_ZN11wxFileProtoC1Ev
_ZN11wxFileProtoC2Ev
_ZN11wxFileProtoD0Ev
_ZN11wxFileProtoD1Ev
_ZN11wxFileProtoD2Ev
_ZN11wxFrameBase10DoGiveHelpERK8wxStringb
_ZN11wxFrameBase10OnMenuOpenER11wxMenuEvent
_ZN11wxFrameBase10SetMenuBarEP9wxMenuBar
_ZN11wxFrameBase10SetToolBarEP9wxToolBar
_ZN11wxFrameBase11OnMenuCloseER11wxMenuEvent
_ZN11wxFrameBase12SetStatusBarEP11wxStatusBar
_ZN11wxFrameBase12ShowMenuHelpEP11wxStatusBari
_ZN11wxFrameBase13AttachMenuBarEP9wxMenuBar
_ZN11wxFrameBase13CreateToolBarEliRK8wxString
_ZN11wxFrameBase13DeleteAllBarsEv
_ZN11wxFrameBase13DetachMenuBarEv
_ZN11wxFrameBase13DoMenuUpdatesEP6wxMenu
_ZN11wxFrameBase13PopStatusTextEi
_ZN11wxFrameBase13SendSizeEventEv
_ZN11wxFrameBase13SetStatusTextERK8wxStringi
_ZN11wxFrameBase13sm_eventTableE
_ZN11wxFrameBase14OnInternalIdleEv
_ZN11wxFrameBase14ProcessCommandEi
_ZN11wxFrameBase14PushStatusTextERK8wxStringi
_ZN11wxFrameBase14UpdateWindowUIEl
_ZN11wxFrameBase15CreateStatusBarEiliRK8wxString
_ZN11wxFrameBase15OnCreateToolBarEliRK8wxString
_ZN11wxFrameBase15OnMenuHighlightER11wxMenuEvent
_ZN11wxFrameBase15PositionMenuBarEv
_ZN11wxFrameBase15PositionToolBarEv
_ZN11wxFrameBase15SetStatusWidthsEiPKi
_ZN11wxFrameBase17OnCreateStatusBarEiliRK8wxString
_ZN11wxFrameBase17PositionStatusBarEv
_ZN11wxFrameBase17sm_eventHashTableE
_ZN11wxFrameBase20sm_eventTableEntriesE
_ZN11wxFrameBase3NewEP8wxWindowiRK8wxStringRK7wxPointRK6wxSizelS4_
_ZN11wxFrameBaseC1Ev
_ZN11wxFrameBaseC2Ev
_ZN11wxFrameBaseD0Ev
_ZN11wxFrameBaseD1Ev
_ZN11wxFrameBaseD2Ev
_ZN11wxFSFilePtrC1EP8wxFSFile
_ZN11wxFSFilePtrC2EP8wxFSFile
_ZN11wxFSFilePtrC5EP8wxFSFile
_ZN11wxFSFilePtrD1Ev
_ZN11wxFSFilePtrD2Ev
_ZN11wxGaugeBase12SetBezelFaceEi
_ZN11wxGaugeBase14SetShadowWidthEi
_ZN11wxGaugeBase5PulseEv
_ZN11wxGaugeBase6CreateEP8wxWindowiiRK7wxPointRK6wxSizelRK11wxValidatorRK8wxString
_ZN11wxGaugeBase8SetRangeEi
_ZN11wxGaugeBase8SetValueEi
_ZN11wxGaugeBaseC1Ev
_ZN11wxGaugeBaseC2Ev
_ZN11wxGaugeBaseC5Ev
_ZN11wxGaugeBaseD0Ev
_ZN11wxGaugeBaseD1Ev
_ZN11wxGaugeBaseD2Ev
_ZN11wxGDIObject12ms_classInfoE
_ZN11wxGDIObject14wxCreateObjectEv
_ZN11wxGDIObjectaSERKS_
_ZN11wxGDIObjectC1EOS_
_ZN11wxGDIObjectC1ERKS_
_ZN11wxGDIObjectC1Ev
_ZN11wxGDIObjectC2EOS_
_ZN11wxGDIObjectC2ERKS_
_ZN11wxGDIObjectC2Ev
_ZN11wxGDIObjectC5EOS_
_ZN11wxGDIObjectC5ERKS_
_ZN11wxGDIObjectC5Ev
_ZN11wxGDIObjectD0Ev
_ZN11wxGDIObjectD1Ev
_ZN11wxGDIObjectD2Ev
_ZN11wxGDIObjectD5Ev
_ZN11wxGridEvent12ms_classInfoE
_ZN11wxGridEvent14wxCreateObjectEv
_ZN11wxGridEvent6GetColEv
_ZN11wxGridEvent6GetRowEv
_ZN11wxGridEventC1EiiP8wxObjectiiiibbbbb
_ZN11wxGridEventC1ERKS_
_ZN11wxGridEventC1Ev
_ZN11wxGridEventC2EiiP8wxObjectiiiibbbbb
_ZN11wxGridEventC2ERKS_
_ZN11wxGridEventC2Ev
_ZN11wxGridEventC5ERKS_
_ZN11wxGridEventC5Ev
_ZN11wxGridEventD0Ev
_ZN11wxGridEventD1Ev
_ZN11wxGridEventD2Ev
_ZN11wxGridEventD5Ev
_ZN11wxGridSizer11RecalcSizesEv
_ZN11wxGridSizer12ms_classInfoE
_ZN11wxGridSizer13SetItemBoundsEP11wxSizerItemiiii
_ZN11wxGridSizer7CalcMinEv
_ZN11wxGridSizerC1Eiii
_ZN11wxGridSizerC1Eiiii
_ZN11wxGridSizerC2Eiii
_ZN11wxGridSizerC2Eiiii
_ZN11wxGridSizerD0Ev
_ZN11wxGridSizerD1Ev
_ZN11wxGridSizerD2Ev
_ZN11wxGridSizerD5Ev
_ZN11wxHashTable11GetNextNodeEm
_ZN11wxHashTable16DoDeleteContentsEP20wxHashTableBase_Node
_ZN11wxHashTable3PutElP8wxObject
_ZN11wxHashTable3PutEPKcP8wxObject
_ZN11wxHashTable4NextEv
_ZN11wxHashTable5ClearEv
_ZN11wxHashTable6DeleteEl
_ZN11wxHashTable6DeleteEPKc
_ZN11wxHashTable6DoCopyERKS_
_ZN11wxHashTable9BeginFindEv
_ZN11wxHashTableaSERKS_
_ZN11wxHashTableC1E9wxKeyTypem
_ZN11wxHashTableC1ERKS_
_ZN11wxHashTableC2E9wxKeyTypem
_ZN11wxHashTableC2ERKS_
_ZN11wxHashTableC5E9wxKeyTypem
_ZN11wxHashTableD0Ev
_ZN11wxHashTableD1Ev
_ZN11wxHashTableD2Ev
_ZN11wxHashTableD5Ev
_ZN11wxHelpEvent11GuessOriginENS_6OriginE
_ZN11wxHelpEvent12ms_classInfoE
_ZN11wxHelpEvent14wxCreateObjectEv
_ZN11wxHelpEventC1EiiRK7wxPointNS_6OriginE
_ZN11wxHelpEventC1ERKS_
_ZN11wxHelpEventC2EiiRK7wxPointNS_6OriginE
_ZN11wxHelpEventC2ERKS_
_ZN11wxHelpEventC5EiiRK7wxPointNS_6OriginE
_ZN11wxHelpEventC5ERKS_
_ZN11wxHelpEventD0Ev
_ZN11wxHelpEventD1Ev
_ZN11wxHelpEventD2Ev
_ZN11wxHelpEventD5Ev
_ZN11wxIconArray3AddERK6wxIconm
_ZN11wxIconArray5EmptyEv
_ZN11wxIconArray6DoCopyERKS_
_ZN11wxIconArray6InsertERK6wxIconmm
_ZN11wxIconArray7DoEmptyEv
_ZN11wxIconArray8RemoveAtEmm
_ZN11wxIconArrayaSERKS_
_ZN11wxIconArrayC1ERKS_
_ZN11wxIconArrayC1Ev
_ZN11wxIconArrayC2ERKS_
_ZN11wxIconArrayC2Ev
_ZN11wxIconArrayC5Ev
_ZN11wxIconArrayD1Ev
_ZN11wxIconArrayD2Ev
_ZN11wxIdleEvent11RequestMoreEb
_ZN11wxIdleEvent11sm_idleModeE
_ZN11wxIdleEvent12ms_classInfoE
_ZN11wxIdleEvent14wxCreateObjectEv
_ZN11wxIdleEvent7CanSendEP8wxWindow
_ZN11wxIdleEvent7GetModeEv
_ZN11wxIdleEventC1ERKS_
_ZN11wxIdleEventC1Ev
_ZN11wxIdleEventC2ERKS_
_ZN11wxIdleEventC2Ev
_ZN11wxIdleEventC5ERKS_
_ZN11wxIdleEventC5Ev
_ZN11wxIdleEventD0Ev
_ZN11wxIdleEventD1Ev
_ZN11wxIdleEventD2Ev
_ZN11wxIdleEventD5Ev
_ZN11wxImageList12ms_classInfoE
_ZN11wxImageList14wxCreateObjectEv
_ZN11wxImageListC1Eiibi
_ZN11wxImageListC1Ev
_ZN11wxImageListC2Eiibi
_ZN11wxImageListC2Ev
_ZN11wxImageListC5Eiibi
_ZN11wxImageListC5Ev
_ZN11wxImageListD0Ev
_ZN11wxImageListD1Ev
_ZN11wxImageListD2Ev
_ZN11wxImageListD5Ev
_ZN11wxInfoFrameC1EP8wxWindowRK8wxString
_ZN11wxInfoFrameC2EP8wxWindowRK8wxString
_ZN11wxInfoFrameD0Ev
_ZN11wxInfoFrameD1Ev
_ZN11wxInfoFrameD2Ev
_ZN11wxInfoFrameD5Ev
_ZN11wxIPaddress12ms_classInfoE
_ZN11wxIPaddressaSERKS_
_ZN11wxIPaddressC1ERKS_
_ZN11wxIPaddressC1Ev
_ZN11wxIPaddressC2ERKS_
_ZN11wxIPaddressC2Ev
_ZN11wxIPaddressD0Ev
_ZN11wxIPaddressD1Ev
_ZN11wxIPaddressD2Ev
_ZN11wxListEvent12ms_classInfoE
_ZN11wxListEvent14wxCreateObjectEv
_ZN11wxListEvent15SetEditCanceledEb
_ZN11wxListEventC1Eii
_ZN11wxListEventC1ERKS_
_ZN11wxListEventC2Eii
_ZN11wxListEventC2ERKS_
_ZN11wxListEventC5Eii
_ZN11wxListEventC5ERKS_
_ZN11wxListEventD0Ev
_ZN11wxListEventD1Ev
_ZN11wxListEventD2Ev
_ZN11wxListEventD5Ev
_ZN11wxLogBuffer11DoLogStringEPKcl
_ZN11wxLogBuffer5DoLogEmPKcl
_ZN11wxLogBuffer5FlushEv
_ZN11wxLogBufferC1Ev
_ZN11wxLogBufferC2Ev
_ZN11wxLogBufferC5Ev
_ZN11wxLogBufferD0Ev
_ZN11wxLogBufferD1Ev
_ZN11wxLogBufferD2Ev
_ZN11wxLogBufferD5Ev
_ZN11wxLogDialog10ms_detailsE
_ZN11wxLogDialog12OnListSelectER11wxListEvent
_ZN11wxLogDialog13sm_eventTableE
_ZN11wxLogDialog17sm_eventHashTableE
_ZN11wxLogDialog20sm_eventTableEntriesE
_ZN11wxLogDialog21CreateDetailsControlsEv
_ZN11wxLogDialog4OnOkER14wxCommandEvent
_ZN11wxLogDialog6OnSaveER14wxCommandEvent
_ZN11wxLogDialog9OnDetailsER14wxCommandEvent
_ZN11wxLogDialogC1EP8wxWindowRK13wxArrayStringRK10wxArrayIntRK11wxArrayLongRK8wxStringl
_ZN11wxLogDialogC2EP8wxWindowRK13wxArrayStringRK10wxArrayIntRK11wxArrayLongRK8wxStringl
_ZN11wxLogDialogD0Ev
_ZN11wxLogDialogD1Ev
_ZN11wxLogDialogD2Ev
_ZN11wxLogStderr11DoLogStringEPKcl
_ZN11wxLogStderrC1EP8_IO_FILE
_ZN11wxLogStderrC2EP8_IO_FILE
_ZN11wxLogStderrD0Ev
_ZN11wxLogStderrD1Ev
_ZN11wxLogStderrD2Ev
_ZN11wxLogStderrD5Ev
_ZN11wxLogStream11DoLogStringEPKcl
_ZN11wxLogStreamC1EPSo
_ZN11wxLogStreamC2EPSo
_ZN11wxLogStreamD0Ev
_ZN11wxLogStreamD1Ev
_ZN11wxLogStreamD2Ev
_ZN11wxLogStreamD5Ev
_ZN11wxLogWindow11DoLogStringEPKcl
_ZN11wxLogWindow12OnFrameCloseEP7wxFrame
_ZN11wxLogWindow13OnFrameCreateEP7wxFrame
_ZN11wxLogWindow13OnFrameDeleteEP7wxFrame
_ZN11wxLogWindow4ShowEb
_ZN11wxLogWindow5DoLogEmPKcl
_ZN11wxLogWindowC1EP8wxWindowPKcbb
_ZN11wxLogWindowC2EP8wxWindowPKcbb
_ZN11wxLogWindowD0Ev
_ZN11wxLogWindowD1Ev
_ZN11wxLogWindowD2Ev
_ZN11wxMenuEvent12ms_classInfoE
_ZN11wxMenuEvent14wxCreateObjectEv
_ZN11wxMenuEventC1EiiP6wxMenu
_ZN11wxMenuEventC1ERKS_
_ZN11wxMenuEventC2EiiP6wxMenu
_ZN11wxMenuEventC2ERKS_
_ZN11wxMenuEventC5EiiP6wxMenu
_ZN11wxMenuEventC5ERKS_
_ZN11wxMenuEventD0Ev
_ZN11wxMenuEventD1Ev
_ZN11wxMenuEventD2Ev
_ZN11wxMenuEventD5Ev
_ZN11wxMiniFrame12ms_classInfoE
_ZN11wxMiniFrame14wxCreateObjectEv
_ZN11wxMiniFrameC1Ev
_ZN11wxMiniFrameC2Ev
_ZN11wxMiniFrameC5Ev
_ZN11wxMiniFrameD0Ev
_ZN11wxMiniFrameD1Ev
_ZN11wxMiniFrameD2Ev
_ZN11wxMiniFrameD5Ev
_ZN11wxMonoTheme11GetRendererEv
_ZN11wxMonoTheme11ms_infomonoE
_ZN11wxMonoTheme14GetArtProviderEv
_ZN11wxMonoTheme15GetColourSchemeEv
_ZN11wxMonoTheme15GetInputHandlerERK8wxStringP15wxInputConsumer
_ZN11wxMonoThemeC1Ev
_ZN11wxMonoThemeC2Ev
_ZN11wxMonoThemeD0Ev
_ZN11wxMonoThemeD1Ev
_ZN11wxMonoThemeD2Ev
_ZN11wxMoveEvent12ms_classInfoE
_ZN11wxMoveEvent14wxCreateObjectEv
_ZN11wxMoveEventC1ERKS_
_ZN11wxMoveEventC1Ev
_ZN11wxMoveEventC2ERKS_
_ZN11wxMoveEventC2Ev
_ZN11wxMoveEventC5ERKS_
_ZN11wxMoveEventC5Ev
_ZN11wxMoveEventD0Ev
_ZN11wxMoveEventD1Ev
_ZN11wxMoveEventD2Ev
_ZN11wxMoveEventD5Ev
_ZN11wxPrintData10SetPaperIdE11wxPaperSize
_ZN11wxPrintData11SetFilenameERK8wxString
_ZN11wxPrintData11SetPrivDataEPci
_ZN11wxPrintData12ms_classInfoE
_ZN11wxPrintData12SetPrintModeE11wxPrintMode
_ZN11wxPrintData14SetOrientationEi
_ZN11wxPrintData14SetPrinterNameERK8wxString
_ZN11wxPrintData14wxCreateObjectEv
_ZN11wxPrintData15ConvertToNativeEv
_ZN11wxPrintData17ConvertFromNativeEv
_ZN11wxPrintData9SetColourEb
_ZN11wxPrintDataaSERKS_
_ZN11wxPrintDataC1ERKS_
_ZN11wxPrintDataC1Ev
_ZN11wxPrintDataC2ERKS_
_ZN11wxPrintDataC2Ev
_ZN11wxPrintDataD0Ev
_ZN11wxPrintDataD1Ev
_ZN11wxPrintDataD2Ev
_ZN11wxProtoInfo12ms_classInfoE
_ZN11wxProtoInfoC1EPKcS1_bP11wxClassInfo
_ZN11wxProtoInfoC2EPKcS1_bP11wxClassInfo
_ZN11wxProtoInfoD0Ev
_ZN11wxProtoInfoD1Ev
_ZN11wxProtoInfoD2Ev
_ZN11wxProtoInfoD5Ev
_ZN11wxRealPointC1Edd
_ZN11wxRealPointC2Edd
_ZN11wxRealPointC5Edd
_ZN11wxRect2DInt11ConstrainToERKS_
_ZN11wxRect2DInt5UnionERK12wxPoint2DInt
_ZN11wxRect2DInt5UnionERKS_S1_PS_
_ZN11wxRect2DInt6SetTopEi
_ZN11wxRect2DInt7SetLeftEi
_ZN11wxRect2DInt8ReadFromER17wxDataInputStream
_ZN11wxRect2DInt8SetRightEi
_ZN11wxRect2DInt9IntersectERKS_S1_PS_
_ZN11wxRect2DInt9SetBottomEi
_ZN11wxRect2DIntaSERKS_
_ZN11wxRect2DIntC1ERK12wxPoint2DIntS2_
_ZN11wxRect2DIntC1ERKS_
_ZN11wxRect2DIntC2ERK12wxPoint2DIntS2_
_ZN11wxRect2DIntC2ERKS_
_ZN11wxRect2DIntC5ERK12wxPoint2DIntS2_
_ZN11wxRect2DIntC5ERKS_
_ZN11wxRegExImpl4FreeEv
_ZN11wxRegExImpl4InitEv
_ZN11wxRegExImpl6ReinitEv
_ZN11wxRegExImpl7CompileERK8wxStringi
_ZN11wxRegExImplC1Ev
_ZN11wxRegExImplC2Ev
_ZN11wxRegExImplD1Ev
_ZN11wxRegExImplD2Ev
_ZN11wxRIRefData11CreateRectsERK8wxRegion
_ZN11wxRIRefDataC1Ev
_ZN11wxRIRefDataC2Ev
_ZN11wxRIRefDataC5Ev
_ZN11wxRIRefDataD0Ev
_ZN11wxRIRefDataD1Ev
_ZN11wxRIRefDataD2Ev
_ZN11wxSashEvent11SetDragRectERK6wxRect
_ZN11wxSashEvent12ms_classInfoE
_ZN11wxSashEvent13SetDragStatusE16wxSashDragStatus
_ZN11wxSashEvent14wxCreateObjectEv
_ZN11wxSashEventC1Ei18wxSashEdgePosition
_ZN11wxSashEventC2Ei18wxSashEdgePosition
_ZN11wxSashEventC5Ei18wxSashEdgePosition
_ZN11wxSashEventD0Ev
_ZN11wxSashEventD1Ev
_ZN11wxSashEventD2Ev
_ZN11wxSashEventD5Ev
_ZN11wxScrollBar10DoSetThumbEi
_ZN11wxScrollBar11ScrollLinesEi
_ZN11wxScrollBar11ScrollPagesEi
_ZN11wxScrollBar11ScrollToEndEv
_ZN11wxScrollBar11UpdateThumbEv
_ZN11wxScrollBar12ms_classInfoE
_ZN11wxScrollBar12SetArrowFlagEN14wxScrollArrows5ArrowEib
_ZN11wxScrollBar12SetScrollbarEiiiib
_ZN11wxScrollBar13PerformActionERK8wxStringlS2_
_ZN11wxScrollBar13ScrollToStartEv
_ZN11wxScrollBar13sm_eventTableE
_ZN11wxScrollBar14OnInternalIdleEv
_ZN11wxScrollBar14wxCreateObjectEv
_ZN11wxScrollBar16PixelToScrollbarEi
_ZN11wxScrollBar16ScrollbarToPixelEi
_ZN11wxScrollBar16SetThumbPositionEi
_ZN11wxScrollBar17sm_eventHashTableE
_ZN11wxScrollBar18GetStdInputHandlerEP14wxInputHandler
_ZN11wxScrollBar20DoGetStdInputHandlerEP14wxInputHandler
_ZN11wxScrollBar20sm_eventTableEntriesE
_ZN11wxScrollBar21GetScrollBarThumbSizeEiiiiPiS0_
_ZN11wxScrollBar4InitEv
_ZN11wxScrollBar6CreateEP8wxWindowiRK7wxPointRK6wxSizelRK11wxValidatorRK8wxString
_ZN11wxScrollBar6DoDrawEP17wxControlRenderer
_ZN11wxScrollBar7OnArrowEN14wxScrollArrows5ArrowE
_ZN11wxScrollBar8SetStateENS_7ElementEi
_ZN11wxScrollBar9GetWindowEv
_ZN11wxScrollBarC1EP8wxWindowiRK7wxPointRK6wxSizelRK11wxValidatorRK8wxString
_ZN11wxScrollBarC1Ev
_ZN11wxScrollBarC2EP8wxWindowiRK7wxPointRK6wxSizelRK11wxValidatorRK8wxString
_ZN11wxScrollBarC2Ev
_ZN11wxScrollBarD0Ev
_ZN11wxScrollBarD1Ev
_ZN11wxScrollBarD2Ev
_ZN11wxSemaphore11WaitTimeoutEm
_ZN11wxSemaphore4PostEv
_ZN11wxSemaphore4WaitEv
_ZN11wxSemaphore7TryWaitEv
_ZN11wxSemaphoreC1Eii
_ZN11wxSemaphoreC2Eii
_ZN11wxSemaphoreD1Ev
_ZN11wxSemaphoreD2Ev
_ZN11wxShowEvent12ms_classInfoE
_ZN11wxShowEvent14wxCreateObjectEv
_ZN11wxShowEventC1Eib
_ZN11wxShowEventC1ERKS_
_ZN11wxShowEventC2Eib
_ZN11wxShowEventC2ERKS_
_ZN11wxShowEventC5Eib
_ZN11wxShowEventC5ERKS_
_ZN11wxShowEventD0Ev
_ZN11wxShowEventD1Ev
_ZN11wxShowEventD2Ev
_ZN11wxShowEventD5Ev
_ZN11wxSizeEvent12ms_classInfoE
_ZN11wxSizeEvent14wxCreateObjectEv
_ZN11wxSizeEventC1ERK6wxSizei
_ZN11wxSizeEventC1ERKS_
_ZN11wxSizeEventC1Ev
_ZN11wxSizeEventC2ERK6wxSizei
_ZN11wxSizeEventC2ERKS_
_ZN11wxSizeEventC2Ev
_ZN11wxSizeEventC5ERK6wxSizei
_ZN11wxSizeEventC5ERKS_
_ZN11wxSizeEventC5Ev
_ZN11wxSizeEventD0Ev
_ZN11wxSizeEventD1Ev
_ZN11wxSizeEventD2Ev
_ZN11wxSizeEventD5Ev
_ZN11wxSizerItem10SetMinSizeEii
_ZN11wxSizerItem10SetMinSizeERK6wxSize
_ZN11wxSizerItem11DetachSizerEv
_ZN11wxSizerItem12ms_classInfoE
_ZN11wxSizerItem12SetDimensionERK7wxPointRK6wxSize
_ZN11wxSizerItem13DeleteWindowsEv
_ZN11wxSizerItem13SetProportionEi
_ZN11wxSizerItem4InitERK12wxSizerFlags
_ZN11wxSizerItem4InitEv
_ZN11wxSizerItem4ShowEb
_ZN11wxSizerItem7CalcMinEv
_ZN11wxSizerItem7GetRectEv
_ZN11wxSizerItem7SetFlagEi
_ZN11wxSizerItem8SetRatioEii
_ZN11wxSizerItem8SetRatioERK6wxSize
_ZN11wxSizerItem8SetSizerEP7wxSizer
_ZN11wxSizerItem9SetBorderEi
_ZN11wxSizerItem9SetOptionEi
_ZN11wxSizerItem9SetSpacerEii
_ZN11wxSizerItem9SetSpacerERK6wxSize
_ZN11wxSizerItem9SetWindowEP8wxWindow
_ZN11wxSizerItemC1EiiiiiP8wxObject
_ZN11wxSizerItemC1EP7wxSizeriiiP8wxObject
_ZN11wxSizerItemC1EP7wxSizerRK12wxSizerFlags
_ZN11wxSizerItemC1EP8wxWindowiiiP8wxObject
_ZN11wxSizerItemC1EP8wxWindowRK12wxSizerFlags
_ZN11wxSizerItemC1Ev
_ZN11wxSizerItemC2EiiiiiP8wxObject
_ZN11wxSizerItemC2EP7wxSizeriiiP8wxObject
_ZN11wxSizerItemC2EP7wxSizerRK12wxSizerFlags
_ZN11wxSizerItemC2EP8wxWindowiiiP8wxObject
_ZN11wxSizerItemC2EP8wxWindowRK12wxSizerFlags
_ZN11wxSizerItemC2Ev
_ZN11wxSizerItemC5EP7wxSizerRK12wxSizerFlags
_ZN11wxSizerItemC5EP8wxWindowRK12wxSizerFlags
_ZN11wxSizerItemD0Ev
_ZN11wxSizerItemD1Ev
_ZN11wxSizerItemD2Ev
_ZN11wxSoundBaseC1Ev
_ZN11wxSoundBaseC2Ev
_ZN11wxSoundBaseC5Ev
_ZN11wxSoundBaseD0Ev
_ZN11wxSoundBaseD1Ev
_ZN11wxSoundBaseD2Ev
_ZN11wxSoundBaseD5Ev
_ZN11wxSoundData6DecRefEv
_ZN11wxSoundData6IncRefEv
_ZN11wxSoundDataC1Ev
_ZN11wxSoundDataC2Ev
_ZN11wxSoundDataC5Ev
_ZN11wxSoundDataD1Ev
_ZN11wxSoundDataD2Ev
_ZN11wxSpinEvent11SetPositionEi
_ZN11wxSpinEvent12ms_classInfoE
_ZN11wxSpinEvent14wxCreateObjectEv
_ZN11wxSpinEventC1Eii
_ZN11wxSpinEventC2Eii
_ZN11wxSpinEventC5Eii
_ZN11wxSpinEventD0Ev
_ZN11wxSpinEventD1Ev
_ZN11wxSpinEventD2Ev
_ZN11wxSpinEventD5Ev
_ZN11wxStaticBox12ms_classInfoE
_ZN11wxStaticBox14wxCreateObjectEv
_ZN11wxStaticBox6CreateEP8wxWindowiRK8wxStringRK7wxPointRK6wxSizelS4_
_ZN11wxStaticBox6DoDrawEP17wxControlRenderer
_ZN11wxStaticBoxC1EP8wxWindowiRK8wxStringRK7wxPointRK6wxSizelS4_
_ZN11wxStaticBoxC1Ev
_ZN11wxStaticBoxC2EP8wxWindowiRK8wxStringRK7wxPointRK6wxSizelS4_
_ZN11wxStaticBoxC2Ev
_ZN11wxStaticBoxC5EP8wxWindowiRK8wxStringRK7wxPointRK6wxSizelS4_
_ZN11wxStaticBoxC5Ev
_ZN11wxStaticBoxD0Ev
_ZN11wxStaticBoxD1Ev
_ZN11wxStaticBoxD2Ev
_ZN11wxStaticBoxD5Ev
_ZN11wxStatusBar10OnActivateER15wxActivateEvent
_ZN11wxStatusBar12ms_classInfoE
_ZN11wxStatusBar12RefreshFieldEi
_ZN11wxStatusBar12SetMinHeightEi
_ZN11wxStatusBar13SetStatusTextERK8wxStringi
_ZN11wxStatusBar13sm_eventTableE
_ZN11wxStatusBar14SetFieldsCountEiPKi
_ZN11wxStatusBar14wxCreateObjectEv
_ZN11wxStatusBar15SetStatusWidthsEiPKi
_ZN11wxStatusBar17GetTotalFieldRectEPi
_ZN11wxStatusBar17sm_eventHashTableE
_ZN11wxStatusBar20sm_eventTableEntriesE
_ZN11wxStatusBar4InitEv
_ZN11wxStatusBar6CreateEP8wxWindowilRK8wxString
_ZN11wxStatusBar6DoDrawEP17wxControlRenderer
_ZN11wxStatusBar6OnSizeER11wxSizeEvent
_ZN11wxStatusBar7OnFocusER12wxFocusEvent
_ZN11wxStatusBar7OnKeyUpER10wxKeyEvent
_ZN11wxStatusBar7OnMouseER12wxMouseEvent
_ZN11wxStatusBar9DoSetSizeEiiiii
_ZN11wxStatusBar9OnKeyDownER10wxKeyEvent
_ZN11wxStatusBarC1EP8wxWindowilRK8wxString
_ZN11wxStatusBarC1Ev
_ZN11wxStatusBarC2EP8wxWindowilRK8wxString
_ZN11wxStatusBarC2Ev
_ZN11wxStatusBarC5EP8wxWindowilRK8wxString
_ZN11wxStatusBarC5Ev
_ZN11wxStatusBarD0Ev
_ZN11wxStatusBarD1Ev
_ZN11wxStatusBarD2Ev
_ZN11wxStatusBarD5Ev
_ZN11wxStdioPipeC1EPKcS1_
_ZN11wxStdioPipeC2EPKcS1_
_ZN11wxStdioPipeC5EPKcS1_
_ZN11wxStdioPipeD1Ev
_ZN11wxStdioPipeD2Ev
_ZN11wxStdioPipeD5Ev
_ZN11wxStopWatch5StartEl
_ZN11wxTCPClient12ms_classInfoE
_ZN11wxTCPClient14MakeConnectionERK8wxStringS2_S2_
_ZN11wxTCPClient14wxCreateObjectEv
_ZN11wxTCPClient16OnMakeConnectionEv
_ZN11wxTCPClient9ValidHostERK8wxString
_ZN11wxTCPClientC1Ev
_ZN11wxTCPClientC2Ev
_ZN11wxTCPClientD0Ev
_ZN11wxTCPClientD1Ev
_ZN11wxTCPClientD2Ev
_ZN11wxTCPServer12ms_classInfoE
_ZN11wxTCPServer14wxCreateObjectEv
_ZN11wxTCPServer18OnAcceptConnectionERK8wxString
_ZN11wxTCPServer6CreateERK8wxString
_ZN11wxTCPServerC1Ev
_ZN11wxTCPServerC2Ev
_ZN11wxTCPServerD0Ev
_ZN11wxTCPServerD1Ev
_ZN11wxTCPServerD2Ev
_ZN11wxThemeInfoC1EPFP7wxThemevEPKcS5_
_ZN11wxThemeInfoC2EPFP7wxThemevEPKcS5_
_ZN11wxThemeInfoD1Ev
_ZN11wxThemeInfoD2Ev
_ZN11wxThemeInfoD5Ev
_ZN11wxTimerBase4InitEv
_ZN11wxTimerBase5StartEib
_ZN11wxTimerBase6NotifyEv
_ZN11wxTimerBase8SetOwnerEP12wxEvtHandleri
_ZN11wxTimerBaseC1Ev
_ZN11wxTimerBaseC2Ev
_ZN11wxTimerBaseC5Ev
_ZN11wxTimerBaseD0Ev
_ZN11wxTimerBaseD1Ev
_ZN11wxTimerBaseD2Ev
_ZN11wxTimerDescC1EP7wxTimer
_ZN11wxTimerDescC2EP7wxTimer
_ZN11wxTimerDescC5EP7wxTimer
_ZN11wxTipDialog10SetTipTextEv
_ZN11wxTipDialog13sm_eventTableE
_ZN11wxTipDialog17sm_eventHashTableE
_ZN11wxTipDialog20sm_eventTableEntriesE
_ZN11wxTipDialog9OnNextTipER14wxCommandEvent
_ZN11wxTipDialogC1EP8wxWindowP13wxTipProviderb
_ZN11wxTipDialogC2EP8wxWindowP13wxTipProviderb
_ZN11wxTipDialogD0Ev
_ZN11wxTipDialogD1Ev
_ZN11wxTipDialogD2Ev
_ZN11wxTipDialogD5Ev
_ZN11wxTipWindow12OnMouseClickER12wxMouseEvent
_ZN11wxTipWindow13sm_eventTableE
_ZN11wxTipWindow15SetBoundingRectERK6wxRect
_ZN11wxTipWindow15SetTipWindowPtrEPPS_
_ZN11wxTipWindow17sm_eventHashTableE
_ZN11wxTipWindow20sm_eventTableEntriesE
_ZN11wxTipWindow5CloseEv
_ZN11wxTipWindow9OnDismissEv
_ZN11wxTipWindowC1EP8wxWindowRK8wxStringiPPS_P6wxRect
_ZN11wxTipWindowC2EP8wxWindowRK8wxStringiPPS_P6wxRect
_ZN11wxTipWindowD0Ev
_ZN11wxTipWindowD1Ev
_ZN11wxTipWindowD2Ev
_ZN11wxTreeEvent12ms_classInfoE
_ZN11wxTreeEvent8SetPointERK7wxPoint
_ZN11wxTreeEventC1Eii
_ZN11wxTreeEventC1EiP14wxTreeCtrlBaseRK12wxTreeItemId
_ZN11wxTreeEventC1ERKS_
_ZN11wxTreeEventC2Eii
_ZN11wxTreeEventC2EiP14wxTreeCtrlBaseRK12wxTreeItemId
_ZN11wxTreeEventC2ERKS_
_ZN11wxTreeEventD0Ev
_ZN11wxTreeEventD1Ev
_ZN11wxTreeEventD2Ev
_ZN11wxTreeEventD5Ev
_ZN11wxURLModule12ms_classInfoE
_ZN11wxURLModule14wxCreateObjectEv
_ZN11wxURLModule6OnExitEv
_ZN11wxURLModule6OnInitEv
_ZN11wxURLModuleC1Ev
_ZN11wxURLModuleC2Ev
_ZN11wxURLModuleD0Ev
_ZN11wxURLModuleD1Ev
_ZN11wxURLModuleD2Ev
_ZN11wxURLModuleD5Ev
_ZN11wxValidator11ms_isSilentE
_ZN11wxValidator12ms_classInfoE
_ZN11wxValidator14wxCreateObjectEv
_ZN11wxValidator16TransferToWindowEv
_ZN11wxValidator18TransferFromWindowEv
_ZN11wxValidator4CopyERKS_
_ZN11wxValidator8IsSilentEv
_ZN11wxValidator8ValidateEP8wxWindow
_ZN11wxValidator9SetWindowEP12wxWindowBase
_ZN11wxValidatorC1Ev
_ZN11wxValidatorC2Ev
_ZN11wxValidatorD0Ev
_ZN11wxValidatorD1Ev
_ZN11wxValidatorD2Ev
_ZN11wxVideoModeC1Eiiii
_ZN11wxVideoModeC2Eiiii
_ZN11wxVideoModeC5Eiiii
_ZN11wxWindowX1111WarpPointerEii
_ZN11wxWindowX1112DoMoveWindowEiiii
_ZN11wxWindowX1112ms_classInfoE
_ZN11wxWindowX1112ScrollWindowEiiPK6wxRect
_ZN11wxWindowX1112SetLastClickEil
_ZN11wxWindowX1113sm_eventTableE
_ZN11wxWindowX1114DoCaptureMouseEv
_ZN11wxWindowX1114DoReleaseMouseEv
_ZN11wxWindowX1114DoSetSizeHintsEiiiiii
_ZN11wxWindowX1114GetClearRegionEv
_ZN11wxWindowX1114OnInternalIdleEv
_ZN11wxWindowX1115DoSetClientSizeEii
_ZN11wxWindowX1115DragAcceptFilesEb
_ZN11wxWindowX1115SendEraseEventsEv
_ZN11wxWindowX1115SendPaintEventsEv
_ZN11wxWindowX1117GetInsertIntoMainEv
_ZN11wxWindowX1117SendNcPaintEventsEv
_ZN11wxWindowX1117SetInsertIntoMainEb
_ZN11wxWindowX1117sm_eventHashTableE
_ZN11wxWindowX1118GetClipPaintRegionEv
_ZN11wxWindowX1118OnSysColourChangedER23wxSysColourChangedEvent
_ZN11wxWindowX1119SetBackgroundColourERK8wxColour
_ZN11wxWindowX1119SetForegroundColourERK8wxColour
_ZN11wxWindowX1120sm_eventTableEntriesE
_ZN11wxWindowX1122NeedUpdateNcAreaInIdleEb
_ZN11wxWindowX114InitEv
_ZN11wxWindowX114ShowEb
_ZN11wxWindowX115LowerEv
_ZN11wxWindowX115RaiseEv
_ZN11wxWindowX116CreateEP8wxWindowiRK7wxPointRK6wxSizelRK8wxString
_ZN11wxWindowX116EnableEb
_ZN11wxWindowX116UpdateEv
_ZN11wxWindowX117RefreshEbPK6wxRect
_ZN11wxWindowX117SetFontERK6wxFont
_ZN11wxWindowX118SetFocusEv
_ZN11wxWindowX118SetLabelERK8wxString
_ZN11wxWindowX119DoSetSizeEiiiii
_ZN11wxWindowX119PreResizeEv
_ZN11wxWindowX119SetCursorERK8wxCursor
_ZN11wxWindowX11C1EP8wxWindowiRK7wxPointRK6wxSizelRK8wxString
_ZN11wxWindowX11C1Ev
_ZN11wxWindowX11C2EP8wxWindowiRK7wxPointRK6wxSizelRK8wxString
_ZN11wxWindowX11C2Ev
_ZN11wxWindowX11C5EP8wxWindowiRK7wxPointRK6wxSizelRK8wxString
_ZN11wxWindowX11C5Ev
_ZN11wxWindowX11D0Ev
_ZN11wxWindowX11D1Ev
_ZN11wxWindowX11D2Ev
_ZN11wxWinModule12ms_classInfoE
_ZN11wxWinModule14wxCreateObjectEv
_ZN11wxWinModule6OnExitEv
_ZN11wxWinModule6OnInitEv
_ZN11wxWinModuleC1Ev
_ZN11wxWinModuleC2Ev
_ZN11wxWinModuleC5Ev
_ZN11wxWinModuleD0Ev
_ZN11wxWinModuleD1Ev
_ZN11wxWinModuleD2Ev
_ZN11wxWinModuleD5Ev
_ZN11wxZipEndRec10SetCommentERK8wxString
_ZN11wxZipEndRec14SetEntriesHereEi
_ZN11wxZipEndRec15SetTotalEntriesEi
_ZN11wxZipEndRec4ReadER13wxInputStreamR8wxMBConv
_ZN11wxZipEndRec7SetSizeEl
_ZN11wxZipEndRec9SetOffsetEl
_ZN11wxZipEndRecC1Ev
_ZN11wxZipEndRecC2Ev
_ZN11wxZipEndRecD1Ev
_ZN11wxZipEndRecD2Ev
_ZN11wxZipEndRecD5Ev
_ZN11wxZipHeader5Read8Ev
_ZN11wxZipHeader6Read16Ev
_ZN11wxZipHeader6Read32Ev
_ZN11wxZipHeaderC1ER13wxInputStreamm
_ZN11wxZipHeaderC2ER13wxInputStreamm
_ZN11wxZipHeaderrsERh
_ZN11wxZipHeaderrsERj
_ZN11wxZipHeaderrsERt
_ZN11wxZipMemory6AddRefEv
_ZN11wxZipMemory6UniqueEm
_ZN11wxZipMemory7ReleaseEv
_ZN11wxZipMemoryC1Ev
_ZN11wxZipMemoryC2Ev
_ZN11wxZipMemoryC5Ev
_ZN11wxZipMemoryD1Ev
_ZN11wxZipMemoryD2Ev
_ZN11wxZipMemoryD5Ev
_ZN12ArrayEntries3AddEP17wxFileConfigEntry
_ZN12ArrayEntries6RemoveEP17wxFileConfigEntry
_ZN12ArrayEntriesC1EPFiP17wxFileConfigEntryS1_E
_ZN12ArrayEntriesC2EPFiP17wxFileConfigEntryS1_E
_ZN12ArrayEntriesC5EPFiP17wxFileConfigEntryS1_E
_ZN12ArrayEntriesD1Ev
_ZN12ArrayEntriesD2Ev
_ZN12ArrayEntriesD5Ev
_ZN12MemFSHashObj8InitTimeEv
_ZN12MemFSHashObjC1EPKvmRK8wxString
_ZN12MemFSHashObjC1ERK20wxMemoryOutputStreamRK8wxString
_ZN12MemFSHashObjC2EPKvmRK8wxString
_ZN12MemFSHashObjC2ERK20wxMemoryOutputStreamRK8wxString
_ZN12MemFSHashObjC5EPKvmRK8wxString
_ZN12MemFSHashObjC5ERK20wxMemoryOutputStreamRK8wxString
_ZN12MemFSHashObjD0Ev
_ZN12MemFSHashObjD1Ev
_ZN12MemFSHashObjD2Ev
_ZN12MemFSHashObjD5Ev
_ZN12wxANIDecoder10sm_handlerE
_ZN12wxANIDecoder4LoadER13wxInputStream
_ZN12wxANIDecoderC1Ev
_ZN12wxANIDecoderC2Ev
_ZN12wxANIDecoderD0Ev
_ZN12wxANIDecoderD1Ev
_ZN12wxANIDecoderD2Ev
_ZN12wxANIHandler12ms_classInfoE
_ZN12wxANIHandler13GetImageCountER13wxInputStream
_ZN12wxANIHandler14wxCreateObjectEv
_ZN12wxANIHandler8LoadFileEP7wxImageR13wxInputStreambi
_ZN12wxANIHandler8SaveFileEP7wxImageR14wxOutputStreamb
_ZN12wxANIHandler9DoCanReadER13wxInputStream
_ZN12wxANIHandlerC1Ev
_ZN12wxANIHandlerC2Ev
_ZN12wxANIHandlerC5Ev
_ZN12wxANIHandlerD0Ev
_ZN12wxANIHandlerD1Ev
_ZN12wxANIHandlerD2Ev
_ZN12wxANIHandlerD5Ev
_ZN12wxAppConsole10CallOnInitEv
_ZN12wxAppConsole10InitializeERiPPc
_ZN12wxAppConsole10WakeUpIdleEv
_ZN12wxAppConsole11FilterEventER7wxEvent
_ZN12wxAppConsole11GetInstanceEv
_ZN12wxAppConsole11SetInstanceEPS_
_ZN12wxAppConsole12CreateTraitsEv
_ZN12wxAppConsole12ms_appInitFnE
_ZN12wxAppConsole13OnCmdLineHelpER15wxCmdLineParser
_ZN12wxAppConsole13OnInitCmdLineER15wxCmdLineParser
_ZN12wxAppConsole14ms_appInstanceE
_ZN12wxAppConsole14OnCmdLineErrorER15wxCmdLineParser
_ZN12wxAppConsole15OnAssertFailureEPKciS1_S1_S1_
_ZN12wxAppConsole15OnCmdLineParsedER15wxCmdLineParser
_ZN12wxAppConsole16OnFatalExceptionEv
_ZN12wxAppConsole17CheckBuildOptionsEPKcS1_
_ZN12wxAppConsole17IsMainLoopRunningEv
_ZN12wxAppConsole20OnUnhandledExceptionEv
_ZN12wxAppConsole20ProcessPendingEventsEv
_ZN12wxAppConsole22GetInitializerFunctionEv
_ZN12wxAppConsole4ExitEv
_ZN12wxAppConsole5YieldEb
_ZN12wxAppConsole6OnExitEv
_ZN12wxAppConsole6OnInitEv
_ZN12wxAppConsole7CleanUpEv
_ZN12wxAppConsole8OnAssertEPKciS1_S1_
_ZN12wxAppConsole9GetTraitsEv
_ZN12wxAppConsole9OnInitGuiEv
_ZN12wxAppConsoleC1Ev
_ZN12wxAppConsoleC2Ev
_ZN12wxAppConsoleD0Ev
_ZN12wxAppConsoleD1Ev
_ZN12wxAppConsoleD2Ev
_ZN12wxAppPtrBase5resetEP12wxAppConsole
_ZN12wxAppPtrBase7releaseEv
_ZN12wxAppPtrBaseC1EP12wxAppConsole
_ZN12wxAppPtrBaseC2EP12wxAppConsole
_ZN12wxAppPtrBaseC5EP12wxAppConsole
_ZN12wxAppPtrBaseD1Ev
_ZN12wxAppPtrBaseD2Ev
_ZN12wxArrayAttrs3AddEP14wxGridCellAttrm
_ZN12wxArrayAttrs8RemoveAtEmm
_ZN12wxArrayAttrsC1Ev
_ZN12wxArrayAttrsC2Ev
_ZN12wxArrayAttrsC5Ev
_ZN12wxArrayAttrsD1Ev
_ZN12wxArrayAttrsD2Ev
_ZN12wxArrayAttrsD5Ev
_ZN12wxArrayPages6InsertEP8wxWindowmm
_ZN12wxArrayPages8RemoveAtEmm
_ZN12wxArrayPagesC1Ev
_ZN12wxArrayPagesC2Ev
_ZN12wxArrayPagesC5Ev
_ZN12wxArrayPagesD1Ev
_ZN12wxArrayPagesD2Ev
_ZN12wxArrayPagesD5Ev
_ZN12wxAuiDockArtC1Ev
_ZN12wxAuiDockArtC2Ev
_ZN12wxAuiDockArtC5Ev
_ZN12wxAuiDockArtD0Ev
_ZN12wxAuiDockArtD1Ev
_ZN12wxAuiDockArtD2Ev
_ZN12wxAuiDockArtD5Ev
_ZN12wxAuiManager10DetachPaneEP8wxWindow
_ZN12wxAuiManager10GetManagerEP8wxWindow
_ZN12wxAuiManager10InsertPaneEP8wxWindowRK13wxAuiPaneInfoi
_ZN12wxAuiManager10OnLeftDownER12wxMouseEvent
_ZN12wxAuiManager11GetAllPanesEv
_ZN12wxAuiManager11GetPanePartEP8wxWindow
_ZN12wxAuiManager11OnSetCursorER16wxSetCursorEvent
_ZN12wxAuiManager11RestorePaneER13wxAuiPaneInfo
_ZN12wxAuiManager12DrawHintRectEP8wxWindowRK7wxPointS4_
_ZN12wxAuiManager12LoadPaneInfoE8wxStringR13wxAuiPaneInfo
_ZN12wxAuiManager12MaximizePaneER13wxAuiPaneInfo
_ZN12wxAuiManager12ms_classInfoE
_ZN12wxAuiManager12OnChildFocusER17wxChildFocusEvent
_ZN12wxAuiManager12OnPaneButtonER17wxAuiManagerEvent
_ZN12wxAuiManager12SavePaneInfoER13wxAuiPaneInfo
_ZN12wxAuiManager13DoFrameLayoutEv
_ZN12wxAuiManager13LayoutAddDockEP7wxSizerR13wxAuiDockInfoR20wxAuiDockUIPartArrayb
_ZN12wxAuiManager13LayoutAddPaneEP7wxSizerR13wxAuiDockInfoR13wxAuiPaneInfoR20wxAuiDockUIPartArrayb
_ZN12wxAuiManager13OnFindManagerER17wxAuiManagerEvent
_ZN12wxAuiManager13OnLeaveWindowER12wxMouseEvent
_ZN12wxAuiManager13sm_eventTableE
_ZN12wxAuiManager13StartPaneDragEP8wxWindowRK7wxPoint
_ZN12wxAuiManager14SetArtProviderEP12wxAuiDockArt
_ZN12wxAuiManager15LoadPerspectiveERK8wxStringb
_ZN12wxAuiManager15OnHintFadeTimerER12wxTimerEvent
_ZN12wxAuiManager15ProcessMgrEventER17wxAuiManagerEvent
_ZN12wxAuiManager15SavePerspectiveEv
_ZN12wxAuiManager16SetManagedWindowEP8wxWindow
_ZN12wxAuiManager17CalculateHintRectEP8wxWindowRK7wxPointS4_
_ZN12wxAuiManager17DoEndResizeActionER12wxMouseEvent
_ZN12wxAuiManager17OnEraseBackgroundER12wxEraseEvent
_ZN12wxAuiManager17ProcessDockResultER13wxAuiPaneInfoRKS0_
_ZN12wxAuiManager17sm_eventHashTableE
_ZN12wxAuiManager18GetDockPixelOffsetER13wxAuiPaneInfo
_ZN12wxAuiManager19CreateFloatingFrameEP8wxWindowRK13wxAuiPaneInfo
_ZN12wxAuiManager19OnFloatingPaneMovedEP8wxWindow11wxDirection
_ZN12wxAuiManager20OnFloatingPaneClosedEP8wxWindowR12wxCloseEvent
_ZN12wxAuiManager20OnFloatingPaneMovingEP8wxWindow11wxDirection
_ZN12wxAuiManager20RestoreMaximizedPaneEv
_ZN12wxAuiManager20sm_eventTableEntriesE
_ZN12wxAuiManager20UpdateButtonOnScreenEP15wxAuiDockUIPartRK12wxMouseEvent
_ZN12wxAuiManager21OnFloatingPaneResizedEP8wxWindowRK6wxSize
_ZN12wxAuiManager21SetDockSizeConstraintEdd
_ZN12wxAuiManager22UpdateHintWindowConfigEv
_ZN12wxAuiManager23OnFloatingPaneActivatedEP8wxWindow
_ZN12wxAuiManager23OnFloatingPaneMoveStartEP8wxWindow
_ZN12wxAuiManager24GetPanePositionsAndSizesER13wxAuiDockInfoR10wxArrayIntS3_
_ZN12wxAuiManager6DoDropER18wxAuiDockInfoArrayR18wxAuiPaneInfoArrayR13wxAuiPaneInfoRK7wxPointS8_
_ZN12wxAuiManager6OnSizeER11wxSizeEvent
_ZN12wxAuiManager6RenderEP4wxDC
_ZN12wxAuiManager6UnInitEv
_ZN12wxAuiManager6UpdateEv
_ZN12wxAuiManager7AddPaneEP8wxWindowiRK8wxString
_ZN12wxAuiManager7AddPaneEP8wxWindowRK13wxAuiPaneInfo
_ZN12wxAuiManager7AddPaneEP8wxWindowRK13wxAuiPaneInfoRK7wxPoint
_ZN12wxAuiManager7GetPaneEP8wxWindow
_ZN12wxAuiManager7GetPaneERK8wxString
_ZN12wxAuiManager7HitTestEii
_ZN12wxAuiManager7OnPaintER12wxPaintEvent
_ZN12wxAuiManager7RepaintEP4wxDC
_ZN12wxAuiManager8HideHintEv
_ZN12wxAuiManager8OnLeftUpER12wxMouseEvent
_ZN12wxAuiManager8OnMotionER12wxMouseEvent
_ZN12wxAuiManager8OnRenderER17wxAuiManagerEvent
_ZN12wxAuiManager8SetFlagsEj
_ZN12wxAuiManager8SetFrameEP7wxFrame
_ZN12wxAuiManager8ShowHintERK6wxRect
_ZN12wxAuiManager9ClosePaneER13wxAuiPaneInfo
_ZN12wxAuiManager9LayoutAllER18wxAuiPaneInfoArrayR18wxAuiDockInfoArrayR20wxAuiDockUIPartArrayb
_ZN12wxAuiManagerC1EP8wxWindowj
_ZN12wxAuiManagerC2EP8wxWindowj
_ZN12wxAuiManagerD0Ev
_ZN12wxAuiManagerD1Ev
_ZN12wxAuiManagerD2Ev
_ZN12wxAuiTabCtrl10OnLeftDownER12wxMouseEvent
_ZN12wxAuiTabCtrl10OnMiddleUpER12wxMouseEvent
_ZN12wxAuiTabCtrl10OnSetFocusER12wxFocusEvent
_ZN12wxAuiTabCtrl11OnKillFocusER12wxFocusEvent
_ZN12wxAuiTabCtrl11OnRightDownER12wxMouseEvent
_ZN12wxAuiTabCtrl12ms_classInfoE
_ZN12wxAuiTabCtrl12OnLeftDClickER12wxMouseEvent
_ZN12wxAuiTabCtrl12OnMiddleDownER12wxMouseEvent
_ZN12wxAuiTabCtrl13OnCaptureLostER23wxMouseCaptureLostEvent
_ZN12wxAuiTabCtrl13OnLeaveWindowER12wxMouseEvent
_ZN12wxAuiTabCtrl13sm_eventTableE
_ZN12wxAuiTabCtrl17OnEraseBackgroundER12wxEraseEvent
_ZN12wxAuiTabCtrl17sm_eventHashTableE
_ZN12wxAuiTabCtrl20sm_eventTableEntriesE
_ZN12wxAuiTabCtrl6OnCharER10wxKeyEvent
_ZN12wxAuiTabCtrl6OnSizeER11wxSizeEvent
_ZN12wxAuiTabCtrl7OnPaintER12wxPaintEvent
_ZN12wxAuiTabCtrl8OnButtonER18wxAuiNotebookEvent
_ZN12wxAuiTabCtrl8OnLeftUpER12wxMouseEvent
_ZN12wxAuiTabCtrl8OnMotionER12wxMouseEvent
_ZN12wxAuiTabCtrl9OnRightUpER12wxMouseEvent
_ZN12wxAuiTabCtrlC1EP8wxWindowiRK7wxPointRK6wxSizel
_ZN12wxAuiTabCtrlC2EP8wxWindowiRK7wxPointRK6wxSizel
_ZN12wxAuiTabCtrlD0Ev
_ZN12wxAuiTabCtrlD1Ev
_ZN12wxAuiTabCtrlD2Ev
_ZN12wxAuiToolBar10AddControlEP9wxControlRK8wxString
_ZN12wxAuiToolBar10DeleteToolEi
_ZN12wxAuiToolBar10EnableToolEib
_ZN12wxAuiToolBar10OnLeftDownER12wxMouseEvent
_ZN12wxAuiToolBar10OnMiddleUpER12wxMouseEvent
_ZN12wxAuiToolBar10SetMarginsEiiii
_ZN12wxAuiToolBar10ToggleToolEib
_ZN12wxAuiToolBar11FindControlEi
_ZN12wxAuiToolBar11OnRightDownER12wxMouseEvent
_ZN12wxAuiToolBar11OnSetCursorER16wxSetCursorEvent
_ZN12wxAuiToolBar12AddSeparatorEv
_ZN12wxAuiToolBar12DoIdleUpdateEv
_ZN12wxAuiToolBar12GetLabelSizeERK8wxString
_ZN12wxAuiToolBar12ms_classInfoE
_ZN12wxAuiToolBar12OnMiddleDownER12wxMouseEvent
_ZN12wxAuiToolBar12SetHoverItemEP16wxAuiToolBarItem
_ZN12wxAuiToolBar12SetToolLabelEiRK8wxString
_ZN12wxAuiToolBar13DeleteByIndexEi
_ZN12wxAuiToolBar13OnLeaveWindowER12wxMouseEvent
_ZN12wxAuiToolBar13SetToolBitmapEiRK8wxBitmap
_ZN12wxAuiToolBar13SetToolStickyEib
_ZN12wxAuiToolBar13sm_eventTableE
_ZN12wxAuiToolBar14OnCustomRenderER4wxDCRK16wxAuiToolBarItemRK6wxRect
_ZN12wxAuiToolBar14SetArtProviderEP15wxAuiToolBarArt
_ZN12wxAuiToolBar14SetOrientationEi
_ZN12wxAuiToolBar14SetPressedItemEP16wxAuiToolBarItem
_ZN12wxAuiToolBar14SetToolPackingEi
_ZN12wxAuiToolBar15SetToolDropDownEib
_ZN12wxAuiToolBar15SetToolLongHelpEiRK8wxString
_ZN12wxAuiToolBar16AddStretchSpacerEi
_ZN12wxAuiToolBar16SetToolShortHelpEiRK8wxString
_ZN12wxAuiToolBar17OnEraseBackgroundER12wxEraseEvent
_ZN12wxAuiToolBar17SetGripperVisibleEb
_ZN12wxAuiToolBar17SetToolBitmapSizeERK6wxSize
_ZN12wxAuiToolBar17SetToolProportionEii
_ZN12wxAuiToolBar17SetToolSeparationEi
_ZN12wxAuiToolBar17sm_eventHashTableE
_ZN12wxAuiToolBar18SetOverflowVisibleEb
_ZN12wxAuiToolBar18SetWindowStyleFlagEl
_ZN12wxAuiToolBar20RefreshOverflowStateEv
_ZN12wxAuiToolBar20SetToolBorderPaddingEi
_ZN12wxAuiToolBar20sm_eventTableEntriesE
_ZN12wxAuiToolBar22SetCustomOverflowItemsERK21wxAuiToolBarItemArrayS2_
_ZN12wxAuiToolBar22SetToolTextOrientationEi
_ZN12wxAuiToolBar5ClearEv
_ZN12wxAuiToolBar6OnIdleER11wxIdleEvent
_ZN12wxAuiToolBar6OnSizeER11wxSizeEvent
_ZN12wxAuiToolBar7AddToolEiRK8wxStringRK8wxBitmapS2_10wxItemKind
_ZN12wxAuiToolBar7AddToolEiRK8wxStringRK8wxBitmapS5_10wxItemKindS2_S2_P8wxObject
_ZN12wxAuiToolBar7OnPaintER12wxPaintEvent
_ZN12wxAuiToolBar7RealizeEv
_ZN12wxAuiToolBar7SetFontERK6wxFont
_ZN12wxAuiToolBar8AddLabelEiRK8wxStringi
_ZN12wxAuiToolBar8OnLeftUpER12wxMouseEvent
_ZN12wxAuiToolBar8OnMotionER12wxMouseEvent
_ZN12wxAuiToolBar9AddSpacerEi
_ZN12wxAuiToolBar9DoSetSizeEiiiii
_ZN12wxAuiToolBar9OnRightUpER12wxMouseEvent
_ZN12wxAuiToolBarC1EP8wxWindowiRK7wxPointRK6wxSizel
_ZN12wxAuiToolBarC2EP8wxWindowiRK7wxPointRK6wxSizel
_ZN12wxAuiToolBarD0Ev
_ZN12wxAuiToolBarD1Ev
_ZN12wxAuiToolBarD2Ev
_ZN12wxBitmapBase10AddHandlerEP19wxBitmapHandlerBase
_ZN12wxBitmapBase11FindHandlerE12wxBitmapType
_ZN12wxBitmapBase11FindHandlerERK8wxString
_ZN12wxBitmapBase11FindHandlerERK8wxString12wxBitmapType
_ZN12wxBitmapBase11sm_handlersE
_ZN12wxBitmapBase12ms_classInfoE
_ZN12wxBitmapBase13InsertHandlerEP19wxBitmapHandlerBase
_ZN12wxBitmapBase13RemoveHandlerERK8wxString
_ZN12wxBitmapBase15CleanUpHandlersEv
_ZN12wxBitmapBaseaSERKS_
_ZN12wxBitmapBaseC1ERKS_
_ZN12wxBitmapBaseC1Ev
_ZN12wxBitmapBaseC2ERKS_
_ZN12wxBitmapBaseC2Ev
_ZN12wxBitmapBaseC5ERKS_
_ZN12wxBitmapBaseC5Ev
_ZN12wxBitmapBaseD0Ev
_ZN12wxBitmapBaseD1Ev
_ZN12wxBitmapBaseD2Ev
_ZN12wxBitmapBaseD5Ev
_ZN12wxBMPHandler12ms_classInfoE
_ZN12wxBMPHandler14wxCreateObjectEv
_ZN12wxBMPHandler7LoadDibEP7wxImageR13wxInputStreambb
_ZN12wxBMPHandler7SaveDibEP7wxImageR14wxOutputStreambbb
_ZN12wxBMPHandler8LoadFileEP7wxImageR13wxInputStreambi
_ZN12wxBMPHandler8SaveFileEP7wxImageR14wxOutputStreamb
_ZN12wxBMPHandler9DoCanReadER13wxInputStream
_ZN12wxBMPHandler9DoLoadDibEP7wxImageiiiiilR13wxInputStreambbb
_ZN12wxBMPHandlerC1Ev
_ZN12wxBMPHandlerC2Ev
_ZN12wxBMPHandlerC5Ev
_ZN12wxBMPHandlerD0Ev
_ZN12wxBMPHandlerD1Ev
_ZN12wxBMPHandlerD2Ev
_ZN12wxBMPHandlerD5Ev
_ZN12wxBufferedDC10InitCommonEP4wxDCi
_ZN12wxBufferedDC12ms_classInfoE
_ZN12wxBufferedDC14wxCreateObjectEv
_ZN12wxBufferedDC4InitEP4wxDCR8wxBitmapi
_ZN12wxBufferedDC4InitEP4wxDCRK6wxSizei
_ZN12wxBufferedDC6UnMaskEv
_ZN12wxBufferedDC9UseBufferEii
_ZN12wxBufferedDCC1Ev
_ZN12wxBufferedDCC2Ev
_ZN12wxBufferedDCC5Ev
_ZN12wxBufferedDCD0Ev
_ZN12wxBufferedDCD1Ev
_ZN12wxBufferedDCD2Ev
_ZN12wxBufferedDCD5Ev
_ZN12wxBusyCursor13GetBusyCursorEv
_ZN12wxBusyCursor15GetStoredCursorEv
_ZN12wxBusyCursorC1EPK8wxCursor
_ZN12wxBusyCursorC2EPK8wxCursor
_ZN12wxBusyCursorC5EPK8wxCursor
_ZN12wxBusyCursorD1Ev
_ZN12wxBusyCursorD2Ev
_ZN12wxBusyCursorD5Ev
_ZN12wxButtonBase10SetDefaultEv
_ZN12wxButtonBase13SetImageLabelERK8wxBitmap
_ZN12wxButtonBase14GetDefaultSizeEv
_ZN12wxButtonBase15SetImageMarginsEii
_ZN12wxButtonBaseC1Ev
_ZN12wxButtonBaseC2Ev
_ZN12wxButtonBaseC5Ev
_ZN12wxButtonBaseD0Ev
_ZN12wxButtonBaseD1Ev
_ZN12wxButtonBaseD2Ev
_ZN12wxButtonBaseD5Ev
_ZN12wxCaretTimer6NotifyEv
_ZN12wxCaretTimerC1EP7wxCaret
_ZN12wxCaretTimerC2EP7wxCaret
_ZN12wxCaretTimerD0Ev
_ZN12wxCaretTimerD1Ev
_ZN12wxCaretTimerD2Ev
_ZN12wxCaretTimerD5Ev
_ZN12wxCharBuffer4dataEv
_ZN12wxCharBuffer6extendEm
_ZN12wxCharBufferaSERKS_
_ZN12wxCharBufferC1Em
_ZN12wxCharBufferC1EPKc
_ZN12wxCharBufferC1ERKS_
_ZN12wxCharBufferC2Em
_ZN12wxCharBufferC2EPKc
_ZN12wxCharBufferC2ERKS_
_ZN12wxCharBufferC5Em
_ZN12wxCharBufferC5EPKc
_ZN12wxCharBufferC5ERKS_
_ZN12wxCharBufferD1Ev
_ZN12wxCharBufferD2Ev
_ZN12wxCharBufferD5Ev
_ZN12wxChoiceBase10SetColumnsEi
_ZN12wxChoiceBase7CommandER14wxCommandEvent
_ZN12wxChoiceBaseD0Ev
_ZN12wxChoiceBaseD1Ev
_ZN12wxChoiceBaseD2Ev
_ZN12wxChoicebook10InsertPageEmP8wxWindowRK8wxStringbi
_ZN12wxChoicebook11SetPageTextEmRK8wxString
_ZN12wxChoicebook12DoRemovePageEm
_ZN12wxChoicebook12ms_classInfoE
_ZN12wxChoicebook12SetImageListEP11wxImageList
_ZN12wxChoicebook12SetPageImageEmi
_ZN12wxChoicebook12SetSelectionEm
_ZN12wxChoicebook13sm_eventTableE
_ZN12wxChoicebook14DeleteAllPagesEv
_ZN12wxChoicebook14wxCreateObjectEv
_ZN12wxChoicebook15ChangeSelectionEm
_ZN12wxChoicebook16MakeChangedEventER19wxBookCtrlBaseEvent
_ZN12wxChoicebook16OnChoiceSelectedER14wxCommandEvent
_ZN12wxChoicebook17sm_eventHashTableE
_ZN12wxChoicebook18UpdateSelectedPageEm
_ZN12wxChoicebook20sm_eventTableEntriesE
_ZN12wxChoicebook4InitEv
_ZN12wxChoicebook6CreateEP8wxWindowiRK7wxPointRK6wxSizelRK8wxString
_ZN12wxChoicebookC1EP8wxWindowiRK7wxPointRK6wxSizelRK8wxString
_ZN12wxChoicebookC1Ev
_ZN12wxChoicebookC2EP8wxWindowiRK7wxPointRK6wxSizelRK8wxString
_ZN12wxChoicebookC2Ev
_ZN12wxChoicebookC5EP8wxWindowiRK7wxPointRK6wxSizelRK8wxString
_ZN12wxChoicebookC5Ev
_ZN12wxChoicebookD0Ev
_ZN12wxChoicebookD1Ev
_ZN12wxChoicebookD2Ev
_ZN12wxChoicebookD5Ev
_ZN12wxClientBase12ms_classInfoE
_ZN12wxClientBaseC1Ev
_ZN12wxClientBaseC2Ev
_ZN12wxClientBaseC5Ev
_ZN12wxClientBaseD0Ev
_ZN12wxClientBaseD1Ev
_ZN12wxClientBaseD2Ev
_ZN12wxClientBaseD5Ev
_ZN12wxClientDataC1Ev
_ZN12wxClientDataC2Ev
_ZN12wxClientDataC5Ev
_ZN12wxClientDataD0Ev
_ZN12wxClientDataD1Ev
_ZN12wxClientDataD2Ev
_ZN12wxClientDataD5Ev
_ZN12wxCloseEvent10SetCanVetoEb
_ZN12wxCloseEvent12ms_classInfoE
_ZN12wxCloseEvent14wxCreateObjectEv
_ZN12wxCloseEvent4VetoEb
_ZN12wxCloseEventC1Eii
_ZN12wxCloseEventC1ERKS_
_ZN12wxCloseEventC2Eii
_ZN12wxCloseEventC2ERKS_
_ZN12wxCloseEventC5Eii
_ZN12wxCloseEventC5ERKS_
_ZN12wxCloseEventD0Ev
_ZN12wxCloseEventD1Ev
_ZN12wxCloseEventD2Ev
_ZN12wxCloseEventD5Ev
_ZN12wxColourBase10FromStringEPKc
_ZN12wxColourBase12CreateByNameERK8wxString
_ZN12wxColourBase12InitFromNameERK8wxString
_ZN12wxColourBase3SetEhhhh
_ZN12wxColourBase3SetEm
_ZN12wxColourBase3SetEPKc
_ZN12wxColourBase3SetERK8wxString
_ZN12wxColourBaseaSERKS_
_ZN12wxColourBaseC1ERKS_
_ZN12wxColourBaseC1Ev
_ZN12wxColourBaseC2ERKS_
_ZN12wxColourBaseC2Ev
_ZN12wxColourBaseC5ERKS_
_ZN12wxColourBaseC5Ev
_ZN12wxColourBaseD0Ev
_ZN12wxColourBaseD1Ev
_ZN12wxColourBaseD2Ev
_ZN12wxColourBaseD5Ev
_ZN12wxColourData12ms_classInfoE
_ZN12wxColourData13SetChooseFullEb
_ZN12wxColourData14wxCreateObjectEv
_ZN12wxColourData15GetCustomColourEi
_ZN12wxColourData15SetCustomColourEiRK8wxColour
_ZN12wxColourData9GetColourEv
_ZN12wxColourData9SetColourERK8wxColour
_ZN12wxColourDataaSERKS_
_ZN12wxColourDataC1ERKS_
_ZN12wxColourDataC1Ev
_ZN12wxColourDataC2ERKS_
_ZN12wxColourDataC2Ev
_ZN12wxColourDataD0Ev
_ZN12wxColourDataD1Ev
_ZN12wxColourDataD2Ev
_ZN12wxComboPopup10LazyCreateEv
_ZN12wxComboPopup14SetStringValueERK8wxString
_ZN12wxComboPopup15GetAdjustedSizeEiii
_ZN12wxComboPopup15OnComboKeyEventER10wxKeyEvent
_ZN12wxComboPopup17PaintComboControlER4wxDCRK6wxRect
_ZN12wxComboPopup18OnComboDoubleClickEv
_ZN12wxComboPopup24DefaultPaintComboControlEP15wxComboCtrlBaseR4wxDCRK6wxRect
_ZN12wxComboPopup4InitEv
_ZN12wxComboPopup7DismissEv
_ZN12wxComboPopup7OnPopupEv
_ZN12wxComboPopup8InitBaseEP15wxComboCtrlBase
_ZN12wxComboPopup9OnDismissEv
_ZN12wxComboPopupC1Ev
_ZN12wxComboPopupC2Ev
_ZN12wxComboPopupC5Ev
_ZN12wxComboPopupD0Ev
_ZN12wxComboPopupD1Ev
_ZN12wxComboPopupD2Ev
_ZN12wxConfigBase10DoWriteIntERK8wxStringi
_ZN12wxConfigBase10ms_pConfigE
_ZN12wxConfigBase11DoWriteBoolERK8wxStringb
_ZN12wxConfigBase13DoWriteDoubleERK8wxStringd
_ZN12wxConfigBase14ms_bAutoCreateE
_ZN12wxConfigBase23RemoveTrailingSeparatorERK8wxString
_ZN12wxConfigBase3GetEb
_ZN12wxConfigBase3SetEPS_
_ZN12wxConfigBase5WriteERK8wxStringb
_ZN12wxConfigBase5WriteERK8wxStringl
_ZN12wxConfigBase5WriteERK8wxStringPKc
_ZN12wxConfigBase5WriteERK8wxStringS2_
_ZN12wxConfigBase6CreateEv
_ZN12wxConfigBase8SetStyleEl
_ZN12wxConfigBaseC1ERK8wxStringS2_S2_S2_l
_ZN12wxConfigBaseC2ERK8wxStringS2_S2_S2_l
_ZN12wxConfigBaseD0Ev
_ZN12wxConfigBaseD1Ev
_ZN12wxConfigBaseD2Ev
_ZN12wxCURHandler12ms_classInfoE
_ZN12wxCURHandler14wxCreateObjectEv
_ZN12wxCURHandler9DoCanReadER13wxInputStream
_ZN12wxCURHandlerC1Ev
_ZN12wxCURHandlerC2Ev
_ZN12wxCURHandlerC5Ev
_ZN12wxCURHandlerD0Ev
_ZN12wxCURHandlerD1Ev
_ZN12wxCURHandlerD2Ev
_ZN12wxCURHandlerD5Ev
_ZN12wxDataFormat14PrepareFormatsEv
_ZN12wxDataFormat5SetIdEm
_ZN12wxDataFormat5SetIdEPKc
_ZN12wxDataFormat7SetTypeE14wxDataFormatId
_ZN12wxDataFormatC1E14wxDataFormatId
_ZN12wxDataFormatC1Em
_ZN12wxDataFormatC1EPKc
_ZN12wxDataFormatC1ERK8wxString
_ZN12wxDataFormatC1Ev
_ZN12wxDataFormatC2E14wxDataFormatId
_ZN12wxDataFormatC2Em
_ZN12wxDataFormatC2EPKc
_ZN12wxDataFormatC2ERK8wxString
_ZN12wxDataFormatC2Ev
_ZN12wxDataObjectC1Ev
_ZN12wxDataObjectC2Ev
_ZN12wxDataObjectD0Ev
_ZN12wxDataObjectD1Ev
_ZN12wxDataObjectD2Ev
_ZN12wxDataObjectD5Ev
_ZN12wxDialogBase10OnCharHookER10wxKeyEvent
_ZN12wxDialogBase11IsEscapeKeyERK10wxKeyEvent
_ZN12wxDialogBase11RemoveChildEP12wxWindowBase
_ZN12wxDialogBase11SetEscapeIdEi
_ZN12wxDialogBase12OnChildFocusER17wxChildFocusEvent
_ZN12wxDialogBase13OnCloseWindowER12wxCloseEvent
_ZN12wxDialogBase13SetReturnCodeEi
_ZN12wxDialogBase13sm_eventTableE
_ZN12wxDialogBase14AcceptAndCloseEv
_ZN12wxDialogBase15CreateTextSizerERK8wxString
_ZN12wxDialogBase15OnNavigationKeyER20wxNavigationKeyEvent
_ZN12wxDialogBase16SetAffirmativeIdEi
_ZN12wxDialogBase17CreateButtonSizerEl
_ZN12wxDialogBase17sm_eventHashTableE
_ZN12wxDialogBase18OnSysColourChangedER23wxSysColourChangedEvent
_ZN12wxDialogBase20sm_eventTableEntriesE
_ZN12wxDialogBase24SetFocusIgnoringChildrenEv
_ZN12wxDialogBase26CreateSeparatedButtonSizerEl
_ZN12wxDialogBase26CreateStdDialogButtonSizerEl
_ZN12wxDialogBase27EmulateButtonClickIfPresentEi
_ZN12wxDialogBase4InitEv
_ZN12wxDialogBase7OnFocusER12wxFocusEvent
_ZN12wxDialogBase8OnButtonER14wxCommandEvent
_ZN12wxDialogBase8SetFocusEv
_ZN12wxDialogBase9EndDialogEi
_ZN12wxDialogBaseC1Ev
_ZN12wxDialogBaseC2Ev
_ZN12wxDialogBaseC5Ev
_ZN12wxDialogBaseD0Ev
_ZN12wxDialogBaseD1Ev
_ZN12wxDialogBaseD2Ev
_ZN12wxDialogBaseD5Ev
_ZN12wxDLManifest4findERK8wxString
_ZN12wxDLManifest5eraseERK8wxString
_ZN12wxDLManifest5eraseERKN39wxDLManifest_wxImplementation_HashTable8iteratorE
_ZN12wxDLManifestC1Em12wxStringHash13wxStringEqual
_ZN12wxDLManifestC2Em12wxStringHash13wxStringEqual
_ZN12wxDLManifestC5Em12wxStringHash13wxStringEqual
_ZN12wxDLManifestD1Ev
_ZN12wxDLManifestD2Ev
_ZN12wxDLManifestD5Ev
_ZN12wxDLManifestixERK8wxString
_ZN12wxDocManager10CreateViewEP10wxDocumentl
_ZN12wxDocManager10InitializeEv
_ZN12wxDocManager10OnFileOpenER14wxCommandEvent
_ZN12wxDocManager10OnFileSaveER14wxCommandEvent
_ZN12wxDocManager11AddDocumentEP10wxDocument
_ZN12wxDocManager11OnFileCloseER14wxCommandEvent
_ZN12wxDocManager12ActivateViewEP6wxViewb
_ZN12wxDocManager12GetDocumentsEv
_ZN12wxDocManager12ms_classInfoE
_ZN12wxDocManager12OnFileRevertER14wxCommandEvent
_ZN12wxDocManager12OnFileSaveAsER14wxCommandEvent
_ZN12wxDocManager12OnUpdateRedoER15wxUpdateUIEvent
_ZN12wxDocManager12OnUpdateUndoER15wxUpdateUIEvent
_ZN12wxDocManager12ProcessEventER7wxEvent
_ZN12wxDocManager13CloseDocumentEP10wxDocumentb
_ZN12wxDocManager13MatchTemplateERK8wxString
_ZN12wxDocManager13OnUpdatePrintER15wxUpdateUIEvent
_ZN12wxDocManager13sm_docManagerE
_ZN12wxDocManager13sm_eventTableE
_ZN12wxDocManager14CloseDocumentsEb
_ZN12wxDocManager14CreateDocumentERK8wxStringl
_ZN12wxDocManager14DeleteTemplateEP13wxDocTemplatel
_ZN12wxDocManager14MakeFrameTitleEP10wxDocument
_ZN12wxDocManager14OnFileCloseAllER14wxCommandEvent
_ZN12wxDocManager14RemoveDocumentEP10wxDocument
_ZN12wxDocManager14SelectViewTypeEPP13wxDocTemplateib
_ZN12wxDocManager14wxCreateObjectEv
_ZN12wxDocManager15FileHistoryLoadER12wxConfigBase
_ZN12wxDocManager15FileHistorySaveER12wxConfigBase
_ZN12wxDocManager15MakeDefaultNameER8wxString
_ZN12wxDocManager15OnUpdateFileNewER15wxUpdateUIEvent
_ZN12wxDocManager15OnUpdatePreviewER15wxUpdateUIEvent
_ZN12wxDocManager16AddFileToHistoryERK8wxString
_ZN12wxDocManager16OnUpdateFileOpenER15wxUpdateUIEvent
_ZN12wxDocManager16OnUpdateFileSaveER15wxUpdateUIEvent
_ZN12wxDocManager17AssociateTemplateEP13wxDocTemplate
_ZN12wxDocManager17OnOpenFileFailureEv
_ZN12wxDocManager17OnUpdateFileCloseER15wxUpdateUIEvent
_ZN12wxDocManager17sm_eventHashTableE
_ZN12wxDocManager18FileHistoryUseMenuEP6wxMenu
_ZN12wxDocManager18OnUpdateFileRevertER15wxUpdateUIEvent
_ZN12wxDocManager18OnUpdateFileSaveAsER15wxUpdateUIEvent
_ZN12wxDocManager18SelectDocumentPathEPP13wxDocTemplateiR8wxStringlb
_ZN12wxDocManager18SelectDocumentTypeEPP13wxDocTemplateib
_ZN12wxDocManager19FindTemplateForPathERK8wxString
_ZN12wxDocManager19OnCreateFileHistoryEv
_ZN12wxDocManager20DisassociateTemplateEP13wxDocTemplate
_ZN12wxDocManager20sm_eventTableEntriesE
_ZN12wxDocManager21FileHistoryRemoveMenuEP6wxMenu
_ZN12wxDocManager21RemoveFileFromHistoryEm
_ZN12wxDocManager25FileHistoryAddFilesToMenuEP6wxMenu
_ZN12wxDocManager25FileHistoryAddFilesToMenuEv
_ZN12wxDocManager5ClearEb
_ZN12wxDocManager6OnRedoER14wxCommandEvent
_ZN12wxDocManager6OnUndoER14wxCommandEvent
_ZN12wxDocManager7OnPrintER14wxCommandEvent
_ZN12wxDocManager8FlushDocEP10wxDocument
_ZN12wxDocManager9OnFileNewER14wxCommandEvent
_ZN12wxDocManager9OnPreviewER14wxCommandEvent
_ZN12wxDocManagerC1Elb
_ZN12wxDocManagerC2Elb
_ZN12wxDocManagerD0Ev
_ZN12wxDocManagerD1Ev
_ZN12wxDocManagerD2Ev
_ZN12wxEraseEvent12ms_classInfoE
_ZN12wxEraseEvent14wxCreateObjectEv
_ZN12wxEraseEventC1EiP4wxDC
_ZN12wxEraseEventC1ERKS_
_ZN12wxEraseEventC2EiP4wxDC
_ZN12wxEraseEventC2ERKS_
_ZN12wxEraseEventC5EiP4wxDC
_ZN12wxEraseEventC5ERKS_
_ZN12wxEraseEventD0Ev
_ZN12wxEraseEventD1Ev
_ZN12wxEraseEventD2Ev
_ZN12wxEraseEventD5Ev
_ZN12wxEvtHandler10DisconnectEiiiM8wxObjectFvR7wxEventEPS0_PS_
_ZN12wxEvtHandler10DisconnectEiiM8wxObjectFvR7wxEventEPS0_PS_
_ZN12wxEvtHandler10DisconnectEiM8wxObjectFvR7wxEventEPS0_PS_
_ZN12wxEvtHandler12ms_classInfoE
_ZN12wxEvtHandler12ProcessEventER7wxEvent
_ZN12wxEvtHandler12TryValidatorER7wxEvent
_ZN12wxEvtHandler13SetClientDataEPv
_ZN12wxEvtHandler13sm_eventTableE
_ZN12wxEvtHandler14SetNextHandlerEPS_
_ZN12wxEvtHandler14wxCreateObjectEv
_ZN12wxEvtHandler15AddPendingEventER7wxEvent
_ZN12wxEvtHandler15DoSetClientDataEPv
_ZN12wxEvtHandler16ClearEventLockerEv
_ZN12wxEvtHandler16SearchEventTableER12wxEventTableR7wxEvent
_ZN12wxEvtHandler17DoSetClientObjectEP12wxClientData
_ZN12wxEvtHandler17sm_eventHashTableE
_ZN12wxEvtHandler18ProcessThreadEventER7wxEvent
_ZN12wxEvtHandler18SetPreviousHandlerEPS_
_ZN12wxEvtHandler20ProcessPendingEventsEv
_ZN12wxEvtHandler20sm_eventTableEntriesE
_ZN12wxEvtHandler21ProcessEventIfMatchesERK21wxEventTableEntryBasePS_R7wxEvent
_ZN12wxEvtHandler23SearchDynamicEventTableER7wxEvent
_ZN12wxEvtHandler4LockEv
_ZN12wxEvtHandler7ConnectEiiiM8wxObjectFvR7wxEventEPS0_PS_
_ZN12wxEvtHandler7ConnectEiiM8wxObjectFvR7wxEventEPS0_PS_
_ZN12wxEvtHandler7ConnectEiM8wxObjectFvR7wxEventEPS0_PS_
_ZN12wxEvtHandler9TryParentER7wxEvent
_ZN12wxEvtHandlerC1Ev
_ZN12wxEvtHandlerC2Ev
_ZN12wxEvtHandlerD0Ev
_ZN12wxEvtHandlerD1Ev
_ZN12wxEvtHandlerD2Ev
_ZN12wxFileConfig10ResetDirtyEv
_ZN12wxFileConfig11DeleteEntryERK8wxStringb
_ZN12wxFileConfig11DeleteGroupERK8wxString
_ZN12wxFileConfig11DoWriteLongERK8wxStringl
_ZN12wxFileConfig11GetLocalDirEv
_ZN12wxFileConfig11RenameEntryERK8wxStringS2_
_ZN12wxFileConfig11RenameGroupERK8wxStringS2_
_ZN12wxFileConfig11SetRootPathEv
_ZN12wxFileConfig12GetGlobalDirEv
_ZN12wxFileConfig13DoWriteStringERK8wxStringS2_
_ZN12wxFileConfig14LineListAppendERK8wxString
_ZN12wxFileConfig14LineListInsertERK8wxStringP20wxFileConfigLineList
_ZN12wxFileConfig14LineListRemoveEP20wxFileConfigLineList
_ZN12wxFileConfig15LineListIsEmptyEv
_ZN12wxFileConfig16GetLocalFileNameEPKc
_ZN12wxFileConfig17GetGlobalFileNameEPKc
_ZN12wxFileConfig4InitEv
_ZN12wxFileConfig4SaveER14wxOutputStreamRK8wxMBConv
_ZN12wxFileConfig5FlushEb
_ZN12wxFileConfig5ParseERK12wxTextBufferb
_ZN12wxFileConfig7CleanUpEv
_ZN12wxFileConfig7SetPathERK8wxString
_ZN12wxFileConfig8SetDirtyEv
_ZN12wxFileConfig8SetUmaskEi
_ZN12wxFileConfig9DeleteAllEv
_ZN12wxFileConfig9DoSetPathERK8wxStringb
_ZN12wxFileConfigC1ER13wxInputStreamRK8wxMBConv
_ZN12wxFileConfigC1ERK8wxStringS2_S2_S2_lRK8wxMBConv
_ZN12wxFileConfigC2ER13wxInputStreamRK8wxMBConv
_ZN12wxFileConfigC2ERK8wxStringS2_S2_S2_lRK8wxMBConv
_ZN12wxFileConfigD0Ev
_ZN12wxFileConfigD1Ev
_ZN12wxFileConfigD2Ev
_ZN12wxFileDialog12ms_classInfoE
_ZN12wxFileDialog14wxCreateObjectEv
_ZN12wxFileDialogC1EP8wxWindowRK8wxStringS4_S4_S4_lRK7wxPoint
_ZN12wxFileDialogC1Ev
_ZN12wxFileDialogC2EP8wxWindowRK8wxStringS4_S4_S4_lRK7wxPoint
_ZN12wxFileDialogC2Ev
_ZN12wxFileDialogC5EP8wxWindowRK8wxStringS4_S4_S4_lRK7wxPoint
_ZN12wxFileDialogC5Ev
_ZN12wxFileDialogD0Ev
_ZN12wxFileDialogD1Ev
_ZN12wxFileDialogD2Ev
_ZN12wxFileDialogD5Ev
_ZN12wxFileStreamC1ERK8wxString
_ZN12wxFileStreamC2ERK8wxString
_ZN12wxFileStreamD0Ev
_ZN12wxFileStreamD1Ev
_ZN12wxFileStreamD2Ev
_ZN12wxFileStreamD5Ev
_ZN12wxFileSystem10AddHandlerEP19wxFileSystemHandler
_ZN12wxFileSystem10m_HandlersE
_ZN12wxFileSystem12ChangePathToERK8wxStringb
_ZN12wxFileSystem12ms_classInfoE
_ZN12wxFileSystem13FileNameToURLERK10wxFileName
_ZN12wxFileSystem13RemoveHandlerEP19wxFileSystemHandler
_ZN12wxFileSystem13URLToFileNameERK8wxString
_ZN12wxFileSystem14FindFileInPathEP8wxStringPKcS3_
_ZN12wxFileSystem14wxCreateObjectEv
_ZN12wxFileSystem15CleanUpHandlersEv
_ZN12wxFileSystem17HasHandlerForPathERK8wxString
_ZN12wxFileSystem8FindNextEv
_ZN12wxFileSystem8OpenFileERK8wxStringi
_ZN12wxFileSystem9FindFirstERK8wxStringi
_ZN12wxFileSystem9MakeLocalEP19wxFileSystemHandler
_ZN12wxFileSystemC1Ev
_ZN12wxFileSystemC2Ev
_ZN12wxFileSystemC5Ev
_ZN12wxFileSystemD0Ev
_ZN12wxFileSystemD1Ev
_ZN12wxFileSystemD2Ev
_ZN12wxFocusEvent12ms_classInfoE
_ZN12wxFocusEvent14wxCreateObjectEv
_ZN12wxFocusEvent9SetWindowEP8wxWindow
_ZN12wxFocusEventC1Eii
_ZN12wxFocusEventC1ERKS_
_ZN12wxFocusEventC2Eii
_ZN12wxFocusEventC2ERKS_
_ZN12wxFocusEventC5Eii
_ZN12wxFocusEventC5ERKS_
_ZN12wxFocusEventD0Ev
_ZN12wxFocusEventD1Ev
_ZN12wxFocusEventD2Ev
_ZN12wxFocusEventD5Ev
_ZN12wxFontMapper15TestAltEncodingERK8wxString14wxFontEncodingP20wxNativeEncodingInfo
_ZN12wxFontMapper17CharsetToEncodingERK8wxStringb
_ZN12wxFontMapper17GetAltForEncodingE14wxFontEncodingP20wxNativeEncodingInfoRK8wxStringb
_ZN12wxFontMapper17GetAltForEncodingE14wxFontEncodingPS0_RK8wxStringb
_ZN12wxFontMapper19IsEncodingAvailableE14wxFontEncodingRK8wxString
_ZN12wxFontMapper3GetEv
_ZN12wxFontMapper7IsDummyEv
_ZN12wxFontMapperC1Ev
_ZN12wxFontMapperC2Ev
_ZN12wxFontMapperD0Ev
_ZN12wxFontMapperD1Ev
_ZN12wxFontMapperD2Ev
_ZN12wxFontModule12ms_classInfoE
_ZN12wxFontModule14wxCreateObjectEv
_ZN12wxFontModule6OnExitEv
_ZN12wxFontModule6OnInitEv
_ZN12wxFontModuleC1Ev
_ZN12wxFontModuleC2Ev
_ZN12wxFontModuleC5Ev
_ZN12wxFontModuleD0Ev
_ZN12wxFontModuleD1Ev
_ZN12wxFontModuleD2Ev
_ZN12wxFontModuleD5Ev
_ZN12wxGBPositionC1Eii
_ZN12wxGBPositionC2Eii
_ZN12wxGBPositionC5Eii
_ZN12wxGDIRefDataC1Ev
_ZN12wxGDIRefDataC2Ev
_ZN12wxGDIRefDataC5Ev
_ZN12wxGDIRefDataD0Ev
_ZN12wxGDIRefDataD1Ev
_ZN12wxGDIRefDataD2Ev
_ZN12wxGDIRefDataD5Ev
_ZN12wxGIFDecoder4dgifER13wxInputStreamP8GIFImageii
_ZN12wxGIFDecoder4LoadER13wxInputStream
_ZN12wxGIFDecoder7DestroyEv
_ZN12wxGIFDecoder7getcodeER13wxInputStreamii
_ZN12wxGIFDecoder7LoadGIFER13wxInputStream
_ZN12wxGIFDecoderC1Ev
_ZN12wxGIFDecoderC2Ev
_ZN12wxGIFDecoderD0Ev
_ZN12wxGIFDecoderD1Ev
_ZN12wxGIFDecoderD2Ev
_ZN12wxGIFHandler12ms_classInfoE
_ZN12wxGIFHandler14wxCreateObjectEv
_ZN12wxGIFHandler8LoadFileEP7wxImageR13wxInputStreambi
_ZN12wxGIFHandler8SaveFileEP7wxImageR14wxOutputStreamb
_ZN12wxGIFHandler9DoCanReadER13wxInputStream
_ZN12wxGIFHandlerC1Ev
_ZN12wxGIFHandlerC2Ev
_ZN12wxGIFHandlerC5Ev
_ZN12wxGIFHandlerD0Ev
_ZN12wxGIFHandlerD1Ev
_ZN12wxGIFHandlerD2Ev
_ZN12wxGIFHandlerD5Ev
_ZN12wxGridWindow12ms_classInfoE
_ZN12wxGridWindow12OnMouseEventER12wxMouseEvent
_ZN12wxGridWindow12OnMouseWheelER12wxMouseEvent
_ZN12wxGridWindow12ScrollWindowEiiPK6wxRect
_ZN12wxGridWindow13sm_eventTableE
_ZN12wxGridWindow14wxCreateObjectEv
_ZN12wxGridWindow17OnEraseBackgroundER12wxEraseEvent
_ZN12wxGridWindow17sm_eventHashTableE
_ZN12wxGridWindow20sm_eventTableEntriesE
_ZN12wxGridWindow6OnCharER10wxKeyEvent
_ZN12wxGridWindow7OnFocusER12wxFocusEvent
_ZN12wxGridWindow7OnKeyUpER10wxKeyEvent
_ZN12wxGridWindow7OnPaintER12wxPaintEvent
_ZN12wxGridWindow9OnKeyDownER10wxKeyEvent
_ZN12wxGridWindowC1EP6wxGridP20wxGridRowLabelWindowP20wxGridColLabelWindowiRK7wxPointRK6wxSize
_ZN12wxGridWindowC1Ev
_ZN12wxGridWindowC2EP6wxGridP20wxGridRowLabelWindowP20wxGridColLabelWindowiRK7wxPointRK6wxSize
_ZN12wxGridWindowC2Ev
_ZN12wxGridWindowC5Ev
_ZN12wxGridWindowD0Ev
_ZN12wxGridWindowD1Ev
_ZN12wxGridWindowD2Ev
_ZN12wxGridWindowD5Ev
_ZN12wxHtmlFilter12ms_classInfoE
_ZN12wxHtmlFilterC1Ev
_ZN12wxHtmlFilterC2Ev
_ZN12wxHtmlFilterC5Ev
_ZN12wxHtmlFilterD0Ev
_ZN12wxHtmlFilterD1Ev
_ZN12wxHtmlFilterD2Ev
_ZN12wxHtmlFilterD5Ev
_ZN12wxHtmlParser10DoneParserEv
_ZN12wxHtmlParser10InitParserERK8wxString
_ZN12wxHtmlParser11StopParsingEv
_ZN12wxHtmlParser12ms_classInfoE
_ZN12wxHtmlParser12RestoreStateEv
_ZN12wxHtmlParser13AddTagHandlerEP16wxHtmlTagHandler
_ZN12wxHtmlParser13CreateDOMTreeEv
_ZN12wxHtmlParser13PopTagHandlerEv
_ZN12wxHtmlParser14DestroyDOMTreeEv
_ZN12wxHtmlParser14GetInnerSourceERK9wxHtmlTag
_ZN12wxHtmlParser14PushTagHandlerEP16wxHtmlTagHandlerRK8wxString
_ZN12wxHtmlParser16CreateDOMSubTreeEP9wxHtmlTagiiP15wxHtmlTagsCache
_ZN12wxHtmlParser21SetSourceAndSaveStateERK8wxString
_ZN12wxHtmlParser25ExtractCharsetInformationERK8wxString
_ZN12wxHtmlParser5ParseERK8wxString
_ZN12wxHtmlParser5SetFSEP12wxFileSystem
_ZN12wxHtmlParser6AddTagERK9wxHtmlTag
_ZN12wxHtmlParser9DoParsingEii
_ZN12wxHtmlParser9DoParsingEv
_ZN12wxHtmlParser9GetSourceEv
_ZN12wxHtmlParser9SetSourceERK8wxString
_ZN12wxHtmlParserC1Ev
_ZN12wxHtmlParserC2Ev
_ZN12wxHtmlParserD0Ev
_ZN12wxHtmlParserD1Ev
_ZN12wxHtmlParserD2Ev
_ZN12wxHtmlWindow10OnSetTitleERK8wxString
_ZN12wxHtmlWindow10SelectLineERK7wxPoint
_ZN12wxHtmlWindow10SelectWordERK7wxPoint
_ZN12wxHtmlWindow10SetBordersEi
_ZN12wxHtmlWindow11HistoryBackEv
_ZN12wxHtmlWindow11OnMouseDownER12wxMouseEvent
_ZN12wxHtmlWindow11OnMouseMoveER12wxMouseEvent
_ZN12wxHtmlWindow12AddProcessorEP15wxHtmlProcessor
_ZN12wxHtmlWindow12AppendToPageERK8wxString
_ZN12wxHtmlWindow12CreateLayoutEv
_ZN12wxHtmlWindow12HistoryClearEv
_ZN12wxHtmlWindow12ms_classInfoE
_ZN12wxHtmlWindow12OnMouseEnterER12wxMouseEvent
_ZN12wxHtmlWindow12OnMouseLeaveER12wxMouseEvent
_ZN12wxHtmlWindow13CopySelectionENS_13ClipboardTypeE
_ZN12wxHtmlWindow13GetHTMLWindowEv
_ZN12wxHtmlWindow13ms_cursorLinkE
_ZN12wxHtmlWindow13ms_cursorTextE
_ZN12wxHtmlWindow13OnDoubleClickER12wxMouseEvent
_ZN12wxHtmlWindow13OnLinkClickedERK14wxHtmlLinkInfo
_ZN12wxHtmlWindow13sm_eventTableE
_ZN12wxHtmlWindow14CleanUpStaticsEv
_ZN12wxHtmlWindow14HistoryCanBackEv
_ZN12wxHtmlWindow14HistoryForwardEv
_ZN12wxHtmlWindow14OnInternalIdleEv
_ZN12wxHtmlWindow14ScrollToAnchorERK8wxString
_ZN12wxHtmlWindow14wxCreateObjectEv
_ZN12wxHtmlWindow15m_DefaultFilterE
_ZN12wxHtmlWindow15SelectionToTextEv
_ZN12wxHtmlWindow15SetRelatedFrameEP7wxFrameRK8wxString
_ZN12wxHtmlWindow16GetDefaultFilterEv
_ZN12wxHtmlWindow16OnClipboardEventER20wxClipboardTextEvent
_ZN12wxHtmlWindow16SetStandardFontsEiRK8wxStringS2_
_ZN12wxHtmlWindow17DoSelectionToTextEP15wxHtmlSelection
_ZN12wxHtmlWindow17HistoryCanForwardEv
_ZN12wxHtmlWindow17OnEraseBackgroundER12wxEraseEvent
_ZN12wxHtmlWindow17OnHTMLLinkClickedERK14wxHtmlLinkInfo
_ZN12wxHtmlWindow17ReadCustomizationEP12wxConfigBase8wxString
_ZN12wxHtmlWindow17SetHTMLStatusTextERK8wxString
_ZN12wxHtmlWindow17sm_eventHashTableE
_ZN12wxHtmlWindow17StopAutoScrollingEv
_ZN12wxHtmlWindow18AddGlobalProcessorEP15wxHtmlProcessor
_ZN12wxHtmlWindow18m_GlobalProcessorsE
_ZN12wxHtmlWindow18OnMouseCaptureLostER23wxMouseCaptureLostEvent
_ZN12wxHtmlWindow18SetBackgroundImageERK8wxBitmap
_ZN12wxHtmlWindow18SetHTMLWindowTitleERK8wxString
_ZN12wxHtmlWindow18WriteCustomizationEP12wxConfigBase8wxString
_ZN12wxHtmlWindow19SetRelatedStatusBarEi
_ZN12wxHtmlWindow20GetDefaultHTMLCursorEN21wxHtmlWindowInterface10HTMLCursorE
_ZN12wxHtmlWindow20sm_eventTableEntriesE
_ZN12wxHtmlWindow22SetHTMLBackgroundImageERK8wxBitmap
_ZN12wxHtmlWindow23SetHTMLBackgroundColourERK8wxColour
_ZN12wxHtmlWindow4InitEv
_ZN12wxHtmlWindow6CreateEP8wxWindowiRK7wxPointRK6wxSizelRK8wxString
_ZN12wxHtmlWindow6OnCopyER14wxCommandEvent
_ZN12wxHtmlWindow6OnSizeER11wxSizeEvent
_ZN12wxHtmlWindow6ToTextEv
_ZN12wxHtmlWindow7OnKeyUpER10wxKeyEvent
_ZN12wxHtmlWindow7OnPaintER12wxPaintEvent
_ZN12wxHtmlWindow7SetPageERK8wxString
_ZN12wxHtmlWindow8LoadFileERK10wxFileName
_ZN12wxHtmlWindow8LoadPageERK8wxString
_ZN12wxHtmlWindow8SetFontsERK8wxStringS2_PKi
_ZN12wxHtmlWindow9AddFilterEP12wxHtmlFilter
_ZN12wxHtmlWindow9DoSetPageERK8wxString
_ZN12wxHtmlWindow9m_FiltersE
_ZN12wxHtmlWindow9OnMouseUpER12wxMouseEvent
_ZN12wxHtmlWindow9SelectAllEv
_ZN12wxHtmlWindowC1EP8wxWindowiRK7wxPointRK6wxSizelRK8wxString
_ZN12wxHtmlWindowC1Ev
_ZN12wxHtmlWindowC2EP8wxWindowiRK7wxPointRK6wxSizelRK8wxString
_ZN12wxHtmlWindowC2Ev
_ZN12wxHtmlWindowC5EP8wxWindowiRK7wxPointRK6wxSizelRK8wxString
_ZN12wxHtmlWindowC5Ev
_ZN12wxHtmlWindowD0Ev
_ZN12wxHtmlWindowD1Ev
_ZN12wxHtmlWindowD2Ev
_ZN12wxHTTPStream9OnSysReadEPvm
_ZN12wxHTTPStreamC1EP6wxHTTP
_ZN12wxHTTPStreamC2EP6wxHTTP
_ZN12wxHTTPStreamC5EP6wxHTTP
_ZN12wxHTTPStreamD0Ev
_ZN12wxHTTPStreamD1Ev
_ZN12wxHTTPStreamD2Ev
_ZN12wxHTTPStreamD5Ev
_ZN12wxICOHandler10DoLoadFileEP7wxImageR13wxInputStreambi
_ZN12wxICOHandler12ms_classInfoE
_ZN12wxICOHandler13GetImageCountER13wxInputStream
_ZN12wxICOHandler14wxCreateObjectEv
_ZN12wxICOHandler8LoadFileEP7wxImageR13wxInputStreambi
_ZN12wxICOHandler8SaveFileEP7wxImageR14wxOutputStreamb
_ZN12wxICOHandler9DoCanReadER13wxInputStream
_ZN12wxICOHandlerC1Ev
_ZN12wxICOHandlerC2Ev
_ZN12wxICOHandlerC5Ev
_ZN12wxICOHandlerD0Ev
_ZN12wxICOHandlerD1Ev
_ZN12wxICOHandlerD2Ev
_ZN12wxICOHandlerD5Ev
_ZN12wxIconBundle11DeleteIconsEv
_ZN12wxIconBundle7AddIconERK6wxIcon
_ZN12wxIconBundle7AddIconERK8wxStringl
_ZN12wxIconBundleaSERKS_
_ZN12wxIconBundleC1ERK6wxIcon
_ZN12wxIconBundleC1Ev
_ZN12wxIconBundleC2ERK6wxIcon
_ZN12wxIconBundleC2Ev
_ZN12wxIconBundleC5ERK6wxIcon
_ZN12wxIconBundleC5Ev
_ZN12wxIconBundleD1Ev
_ZN12wxIconBundleD2Ev
_ZN12wxIconBundleD5Ev
_ZN12wxImageArray3AddERK7wxImagem
_ZN12wxImageArray5AllocEm
_ZN12wxImageArray5ClearEv
_ZN12wxImageArray5EmptyEv
_ZN12wxImageArray6DoCopyERKS_
_ZN12wxImageArray6InsertERK7wxImagemm
_ZN12wxImageArray7DoEmptyEv
_ZN12wxImageArray8RemoveAtEmm
_ZN12wxImageArrayaSERKS_
_ZN12wxImageArrayC1ERKS_
_ZN12wxImageArrayC1Ev
_ZN12wxImageArrayC2ERKS_
_ZN12wxImageArrayC2Ev
_ZN12wxImageArrayC5Ev
_ZN12wxImageArrayD1Ev
_ZN12wxImageArrayD2Ev
_ZN12wxListString10CreateNodeEP10wxNodeBaseS1_PvRK9wxListKey
_ZN12wxListString10DeleteNodeEP18wxwxListStringNode
_ZN12wxListString22compatibility_iteratorC1EP18wxwxListStringNode
_ZN12wxListString22compatibility_iteratorC2EP18wxwxListStringNode
_ZN12wxListString22compatibility_iteratorC5EP18wxwxListStringNode
_ZN12wxListString3endEv
_ZN12wxListString5beginEv
_ZN12wxListString5clearEv
_ZN12wxListString5EraseEP18wxwxListStringNode
_ZN12wxListString6InsertEP18wxwxListStringNodeP8wxString
_ZN12wxListString6InsertEP8wxString
_ZN12wxListString8iteratorC1EP18wxwxListStringNodeS2_
_ZN12wxListString8iteratorC1Ev
_ZN12wxListString8iteratorC2EP18wxwxListStringNodeS2_
_ZN12wxListString8iteratorC2Ev
_ZN12wxListString8iteratorC5EP18wxwxListStringNodeS2_
_ZN12wxListString8iteratorC5Ev
_ZN12wxListString8iteratorppEv
_ZN12wxListStringC1E9wxKeyType
_ZN12wxListStringC2E9wxKeyType
_ZN12wxListStringC5E9wxKeyType
_ZN12wxListStringD0Ev
_ZN12wxListStringD1Ev
_ZN12wxListStringD2Ev
_ZN12wxListStringD5Ev
_ZN12wxMBConvLibcC1Ev
_ZN12wxMBConvLibcC2Ev
_ZN12wxMBConvLibcC5Ev
_ZN12wxMBConvLibcD0Ev
_ZN12wxMBConvLibcD1Ev
_ZN12wxMBConvLibcD2Ev
_ZN12wxMBConvLibcD5Ev
_ZN12wxMBConvUTF7C1Ev
_ZN12wxMBConvUTF7C2Ev
_ZN12wxMBConvUTF7C5Ev
_ZN12wxMBConvUTF7D0Ev
_ZN12wxMBConvUTF7D1Ev
_ZN12wxMBConvUTF7D2Ev
_ZN12wxMBConvUTF7D5Ev
_ZN12wxMBConvUTF8C1Ei
_ZN12wxMBConvUTF8C2Ei
_ZN12wxMBConvUTF8C5Ei
_ZN12wxMBConvUTF8D0Ev
_ZN12wxMBConvUTF8D1Ev
_ZN12wxMBConvUTF8D2Ev
_ZN12wxMBConvUTF8D5Ev
_ZN12wxMemoryText6OnOpenERK8wxStringN12wxTextBuffer20wxTextBufferOpenModeE
_ZN12wxMemoryText6OnReadERK8wxMBConv
_ZN12wxMemoryText7OnCloseEv
_ZN12wxMemoryText7OnWriteE14wxTextFileTypeRK8wxMBConv
_ZN12wxMemoryTextC1Ev
_ZN12wxMemoryTextC2Ev
_ZN12wxMemoryTextC5Ev
_ZN12wxMemoryTextD0Ev
_ZN12wxMemoryTextD1Ev
_ZN12wxMemoryTextD2Ev
_ZN12wxMemoryTextD5Ev
_ZN12wxMetalTheme11GetRendererEv
_ZN12wxMetalTheme12ms_infoMetalE
_ZN12wxMetalThemeC1Ev
_ZN12wxMetalThemeC2Ev
_ZN12wxMetalThemeC5Ev
_ZN12wxMetalThemeD0Ev
_ZN12wxMetalThemeD1Ev
_ZN12wxMetalThemeD2Ev
_ZN12wxMetalThemeD5Ev
_ZN12wxModuleList10CreateNodeEP10wxNodeBaseS1_PvRK9wxListKey
_ZN12wxModuleList10DeleteNodeEP18wxwxModuleListNode
_ZN12wxModuleList12DeleteObjectEP8wxModule
_ZN12wxModuleList22compatibility_iteratorC1EP18wxwxModuleListNode
_ZN12wxModuleList22compatibility_iteratorC2EP18wxwxModuleListNode
_ZN12wxModuleList22compatibility_iteratorC5EP18wxwxModuleListNode
_ZN12wxModuleList3endEv
_ZN12wxModuleList5beginEv
_ZN12wxModuleList5clearEv
_ZN12wxModuleList5eraseERKNS_8iteratorE
_ZN12wxModuleList6AppendEP8wxModule
_ZN12wxModuleList8iteratorC1EP18wxwxModuleListNodeS2_
_ZN12wxModuleList8iteratorC1Ev
_ZN12wxModuleList8iteratorC2EP18wxwxModuleListNodeS2_
_ZN12wxModuleList8iteratorC2Ev
_ZN12wxModuleList8iteratorC5EP18wxwxModuleListNodeS2_
_ZN12wxModuleList8iteratorC5Ev
_ZN12wxModuleList8iteratorppEv
_ZN12wxModuleList9push_backERKP8wxModule
_ZN12wxModuleListaSERKS_
_ZN12wxModuleListC1E9wxKeyType
_ZN12wxModuleListC2E9wxKeyType
_ZN12wxModuleListC5E9wxKeyType
_ZN12wxModuleListD0Ev
_ZN12wxModuleListD1Ev
_ZN12wxModuleListD2Ev
_ZN12wxModuleListD5Ev
_ZN12wxMouseEvent12ms_classInfoE
_ZN12wxMouseEvent14wxCreateObjectEv
_ZN12wxMouseEvent6AssignERKS_
_ZN12wxMouseEventaSERKS_
_ZN12wxMouseEventC1Ei
_ZN12wxMouseEventC1ERKS_
_ZN12wxMouseEventC2Ei
_ZN12wxMouseEventC2ERKS_
_ZN12wxMouseEventC5ERKS_
_ZN12wxMouseEventD0Ev
_ZN12wxMouseEventD1Ev
_ZN12wxMouseEventD2Ev
_ZN12wxMouseEventD5Ev
_ZN12wxMouseState10SetAltDownEb
_ZN12wxMouseState11SetLeftDownEb
_ZN12wxMouseState11SetMetaDownEb
_ZN12wxMouseState12SetRightDownEb
_ZN12wxMouseState12SetShiftDownEb
_ZN12wxMouseState13SetMiddleDownEb
_ZN12wxMouseState14SetControlDownEb
_ZN12wxMouseState4SetXEi
_ZN12wxMouseState4SetYEi
_ZN12wxMouseState8LeftDownEv
_ZN12wxMouseStateC1Ev
_ZN12wxMouseStateC2Ev
_ZN12wxMouseStateC5Ev
_ZN12wxMsgCatalog4LoadEPKcS1_S1_b
_ZN12wxMsgCatalogC1Ev
_ZN12wxMsgCatalogC2Ev
_ZN12wxMsgCatalogC5Ev
_ZN12wxMsgCatalogD1Ev
_ZN12wxMsgCatalogD2Ev
_ZN12wxNoOptimize8ms_countE
_ZN12wxObjectList10CreateNodeEP10wxNodeBaseS1_PvRK9wxListKey
_ZN12wxObjectList10DeleteNodeEP16wxObjectListNode
_ZN12wxObjectList12DeleteObjectEP8wxObject
_ZN12wxObjectList22compatibility_iteratorC1EP16wxObjectListNode
_ZN12wxObjectList22compatibility_iteratorC2EP16wxObjectListNode
_ZN12wxObjectList22compatibility_iteratorC5EP16wxObjectListNode
_ZN12wxObjectList3endEv
_ZN12wxObjectList5beginEv
_ZN12wxObjectList5clearEv
_ZN12wxObjectList5EraseEP16wxObjectListNode
_ZN12wxObjectList6AppendEP8wxObject
_ZN12wxObjectList6InsertEmP8wxObject
_ZN12wxObjectList6InsertEP16wxObjectListNodeP8wxObject
_ZN12wxObjectList6InsertEP8wxObject
_ZN12wxObjectList8iteratorC1EP16wxObjectListNodeS2_
_ZN12wxObjectList8iteratorC1Ev
_ZN12wxObjectList8iteratorC2EP16wxObjectListNodeS2_
_ZN12wxObjectList8iteratorC2Ev
_ZN12wxObjectList8iteratorC5EP16wxObjectListNodeS2_
_ZN12wxObjectList8iteratorC5Ev
_ZN12wxObjectList8iteratorppEv
_ZN12wxObjectListC1E9wxKeyType
_ZN12wxObjectListC2E9wxKeyType
_ZN12wxObjectListC5E9wxKeyType
_ZN12wxObjectListD0Ev
_ZN12wxObjectListD1Ev
_ZN12wxObjectListD2Ev
_ZN12wxObjectListD5Ev
_ZN12wxPaintEvent12ms_classInfoE
_ZN12wxPaintEvent14wxCreateObjectEv
_ZN12wxPaintEventC1Ei
_ZN12wxPaintEventC1ERKS_
_ZN12wxPaintEventC2Ei
_ZN12wxPaintEventC2ERKS_
_ZN12wxPaintEventC5Ei
_ZN12wxPaintEventC5ERKS_
_ZN12wxPaintEventD0Ev
_ZN12wxPaintEventD1Ev
_ZN12wxPaintEventD2Ev
_ZN12wxPaintEventD5Ev
_ZN12wxPCXHandler12ms_classInfoE
_ZN12wxPCXHandler14wxCreateObjectEv
_ZN12wxPCXHandler8LoadFileEP7wxImageR13wxInputStreambi
_ZN12wxPCXHandler8SaveFileEP7wxImageR14wxOutputStreamb
_ZN12wxPCXHandler9DoCanReadER13wxInputStream
_ZN12wxPCXHandlerC1Ev
_ZN12wxPCXHandlerC2Ev
_ZN12wxPCXHandlerC5Ev
_ZN12wxPCXHandlerD0Ev
_ZN12wxPCXHandlerD1Ev
_ZN12wxPCXHandlerD2Ev
_ZN12wxPCXHandlerD5Ev
_ZN12wxPenRefDataC1ERKS_
_ZN12wxPenRefDataC1Ev
_ZN12wxPenRefDataC2ERKS_
_ZN12wxPenRefDataC2Ev
_ZN12wxPenRefDataC5ERKS_
_ZN12wxPenRefDataC5Ev
_ZN12wxPenRefDataD0Ev
_ZN12wxPenRefDataD1Ev
_ZN12wxPenRefDataD2Ev
_ZN12wxPenRefDataD5Ev
_ZN12wxPickerBase10CreateBaseEP8wxWindowiRK8wxStringRK7wxPointRK6wxSizelRK11wxValidatorS4_
_ZN12wxPickerBase11RemoveChildEP12wxWindowBase
_ZN12wxPickerBase12ms_classInfoE
_ZN12wxPickerBase12OnChildFocusER17wxChildFocusEvent
_ZN12wxPickerBase12PostCreationEv
_ZN12wxPickerBase13sm_eventTableE
_ZN12wxPickerBase15OnNavigationKeyER20wxNavigationKeyEvent
_ZN12wxPickerBase16OnTextCtrlDeleteER20wxWindowDestroyEvent
_ZN12wxPickerBase16OnTextCtrlUpdateER14wxCommandEvent
_ZN12wxPickerBase17sm_eventHashTableE
_ZN12wxPickerBase19OnTextCtrlKillFocusER12wxFocusEvent
_ZN12wxPickerBase20sm_eventTableEntriesE
_ZN12wxPickerBase24SetFocusIgnoringChildrenEv
_ZN12wxPickerBase6OnSizeER11wxSizeEvent
_ZN12wxPickerBase7OnFocusER12wxFocusEvent
_ZN12wxPickerBase8SetFocusEv
_ZN12wxPickerBaseC1Ev
_ZN12wxPickerBaseC2Ev
_ZN12wxPickerBaseC5Ev
_ZN12wxPickerBaseD0Ev
_ZN12wxPickerBaseD1Ev
_ZN12wxPickerBaseD2Ev
_ZN12wxPickerBaseD5Ev
_ZN12wxPNGHandler12ms_classInfoE
_ZN12wxPNGHandler14wxCreateObjectEv
_ZN12wxPNGHandler8LoadFileEP7wxImageR13wxInputStreambi
_ZN12wxPNGHandler8SaveFileEP7wxImageR14wxOutputStreamb
_ZN12wxPNGHandler9DoCanReadER13wxInputStream
_ZN12wxPNGHandlerC1Ev
_ZN12wxPNGHandlerC2Ev
_ZN12wxPNGHandlerC5Ev
_ZN12wxPNGHandlerD0Ev
_ZN12wxPNGHandlerD1Ev
_ZN12wxPNGHandlerD2Ev
_ZN12wxPNGHandlerD5Ev
_ZN12wxPNMHandler12ms_classInfoE
_ZN12wxPNMHandler14wxCreateObjectEv
_ZN12wxPNMHandler8LoadFileEP7wxImageR13wxInputStreambi
_ZN12wxPNMHandler8SaveFileEP7wxImageR14wxOutputStreamb
_ZN12wxPNMHandler9DoCanReadER13wxInputStream
_ZN12wxPNMHandlerC1Ev
_ZN12wxPNMHandlerC2Ev
_ZN12wxPNMHandlerC5Ev
_ZN12wxPNMHandlerD0Ev
_ZN12wxPNMHandlerD1Ev
_ZN12wxPNMHandlerD2Ev
_ZN12wxPNMHandlerD5Ev
_ZN12wxPoint2DInt14SetVectorAngleEd
_ZN12wxPoint2DInt8ReadFromER17wxDataInputStream
_ZN12wxPoint2DIntC1Eii
_ZN12wxPoint2DIntC1ERKS_
_ZN12wxPoint2DIntC2Eii
_ZN12wxPoint2DIntC2ERKS_
_ZN12wxPoint2DIntC5Eii
_ZN12wxPoint2DIntC5ERKS_
_ZN12wxRegionBase5UnionEiiii
_ZN12wxRegionBase5UnionERK6wxRect
_ZN12wxRegionBase5UnionERK8wxBitmap
_ZN12wxRegionBase5UnionERK8wxBitmapRK8wxColouri
_ZN12wxRegionBase5UnionERK8wxRegion
_ZN12wxRegionBase6OffsetEii
_ZN12wxRegionBase8SubtractERK6wxRect
_ZN12wxRegionBase9IntersectEiiii
_ZN12wxRegionBase9IntersectERK6wxRect
_ZN12wxRegionBase9IntersectERK8wxRegion
_ZN12wxRegionBaseaSERKS_
_ZN12wxRegionBaseC1ERKS_
_ZN12wxRegionBaseC1Ev
_ZN12wxRegionBaseC2ERKS_
_ZN12wxRegionBaseC2Ev
_ZN12wxRegionBaseC5ERKS_
_ZN12wxRegionBaseC5Ev
_ZN12wxRegionBaseD0Ev
_ZN12wxRegionBaseD1Ev
_ZN12wxRegionBaseD2Ev
_ZN12wxRegionBaseD5Ev
_ZN12wxReparenter12sm_newParentE
_ZN12wxReparenter13ProcessXEventEPv
_ZN12wxReparenter13sm_exactMatchE
_ZN12wxReparenter13sm_toReparentE
_ZN12wxReparenter15WaitAndReparentEP8wxWindowP15wxAdoptedWindowRK8wxStringb
_ZN12wxReparenter17FindAClientWindowEPvRK8wxString
_ZN12wxReparenter7sm_doneE
_ZN12wxReparenter7sm_nameE
_ZN12wxReparenter8ReparentEP8wxWindowP15wxAdoptedWindow
_ZN12wxSashWindow10DrawSashesER4wxDC
_ZN12wxSashWindow11DrawBordersER4wxDC
_ZN12wxSashWindow11InitColoursEv
_ZN12wxSashWindow11SashHitTestEiii
_ZN12wxSashWindow11SizeWindowsEv
_ZN12wxSashWindow12ms_classInfoE
_ZN12wxSashWindow12OnMouseEventER12wxMouseEvent
_ZN12wxSashWindow13sm_eventTableE
_ZN12wxSashWindow14SetSashVisibleE18wxSashEdgePositionb
_ZN12wxSashWindow14wxCreateObjectEv
_ZN12wxSashWindow15DrawSashTrackerE18wxSashEdgePositionii
_ZN12wxSashWindow15SetMaximumSizeXEi
_ZN12wxSashWindow15SetMaximumSizeYEi
_ZN12wxSashWindow15SetMinimumSizeXEi
_ZN12wxSashWindow15SetMinimumSizeYEi
_ZN12wxSashWindow17sm_eventHashTableE
_ZN12wxSashWindow20sm_eventTableEntriesE
_ZN12wxSashWindow4InitEv
_ZN12wxSashWindow6CreateEP8wxWindowiRK7wxPointRK6wxSizelRK8wxString
_ZN12wxSashWindow6OnSizeER11wxSizeEvent
_ZN12wxSashWindow7OnPaintER12wxPaintEvent
_ZN12wxSashWindow8DrawSashE18wxSashEdgePositionR4wxDC
_ZN12wxSashWindowC1Ev
_ZN12wxSashWindowC2Ev
_ZN12wxSashWindowC5Ev
_ZN12wxSashWindowD0Ev
_ZN12wxSashWindowD1Ev
_ZN12wxSashWindowD2Ev
_ZN12wxSearchCtrl10AppendTextERK8wxString
_ZN12wxSearchCtrl10DoSetValueERK8wxStringi
_ZN12wxSearchCtrl10OnSetFocusER12wxFocusEvent
_ZN12wxSearchCtrl11SetEditableEb
_ZN12wxSearchCtrl12DiscardEditsEv
_ZN12wxSearchCtrl12DoMoveWindowEiiii
_ZN12wxSearchCtrl12ms_classInfoE
_ZN12wxSearchCtrl12SetMaxLengthEm
_ZN12wxSearchCtrl12SetSelectionEll
_ZN12wxSearchCtrl12ShowPositionEl
_ZN12wxSearchCtrl13RecalcBitmapsEv
_ZN12wxSearchCtrl13sm_eventTableE
_ZN12wxSearchCtrl14LayoutControlsEiiii
_ZN12wxSearchCtrl14OnSearchButtonER14wxCommandEvent
_ZN12wxSearchCtrl14wxCreateObjectEv
_ZN12wxSearchCtrl15EmulateKeyPressERK10wxKeyEvent
_ZN12wxSearchCtrl15PopupSearchMenuEv
_ZN12wxSearchCtrl15SetCancelBitmapERK8wxBitmap
_ZN12wxSearchCtrl15SetDefaultStyleERK10wxTextAttr
_ZN12wxSearchCtrl15SetSearchBitmapERK8wxBitmap
_ZN12wxSearchCtrl16DoUpdateWindowUIER15wxUpdateUIEvent
_ZN12wxSearchCtrl16ShowCancelButtonEb
_ZN12wxSearchCtrl16ShowSearchButtonEb
_ZN12wxSearchCtrl17SetInsertionPointEl
_ZN12wxSearchCtrl17sm_eventHashTableE
_ZN12wxSearchCtrl18RenderCancelBitmapEii
_ZN12wxSearchCtrl18RenderSearchBitmapEiib
_ZN12wxSearchCtrl18SetDescriptiveTextERK8wxString
_ZN12wxSearchCtrl19SetSearchMenuBitmapERK8wxBitmap
_ZN12wxSearchCtrl20SetInsertionPointEndEv
_ZN12wxSearchCtrl20sm_eventTableEntriesE
_ZN12wxSearchCtrl3CutEv
_ZN12wxSearchCtrl4CopyEv
_ZN12wxSearchCtrl4InitEv
_ZN12wxSearchCtrl4RedoEv
_ZN12wxSearchCtrl4UndoEv
_ZN12wxSearchCtrl5ClearEv
_ZN12wxSearchCtrl5PasteEv
_ZN12wxSearchCtrl6CreateEP8wxWindowiRK8wxStringRK7wxPointRK6wxSizelRK11wxValidatorS4_
_ZN12wxSearchCtrl6OnSizeER11wxSizeEvent
_ZN12wxSearchCtrl6RemoveEll
_ZN12wxSearchCtrl7GetMenuEv
_ZN12wxSearchCtrl7ReplaceEllRK8wxString
_ZN12wxSearchCtrl7SetFontERK6wxFont
_ZN12wxSearchCtrl7SetMenuEP6wxMenu
_ZN12wxSearchCtrl8GetStyleElR10wxTextAttr
_ZN12wxSearchCtrl8LoadFileERK8wxString
_ZN12wxSearchCtrl8SaveFileERK8wxString
_ZN12wxSearchCtrl8SetStyleEllRK10wxTextAttr
_ZN12wxSearchCtrl8SetValueERK8wxString
_ZN12wxSearchCtrl9MarkDirtyEv
_ZN12wxSearchCtrl9SelectAllEv
_ZN12wxSearchCtrl9WriteTextERK8wxString
_ZN12wxSearchCtrlC1EP8wxWindowiRK8wxStringRK7wxPointRK6wxSizelRK11wxValidatorS4_
_ZN12wxSearchCtrlC1Ev
_ZN12wxSearchCtrlC2EP8wxWindowiRK8wxStringRK7wxPointRK6wxSizelRK11wxValidatorS4_
_ZN12wxSearchCtrlC2Ev
_ZN12wxSearchCtrlD0Ev
_ZN12wxSearchCtrlD1Ev
_ZN12wxSearchCtrlD2Ev
_ZN12wxServerBase12ms_classInfoE
_ZN12wxServerBaseC1Ev
_ZN12wxServerBaseC2Ev
_ZN12wxServerBaseC5Ev
_ZN12wxServerBaseD0Ev
_ZN12wxServerBaseD1Ev
_ZN12wxServerBaseD2Ev
_ZN12wxServerBaseD5Ev
_ZN12wxSizerFlags10HorzBorderEv
_ZN12wxSizerFlags10ProportionEi
_ZN12wxSizerFlags12DoubleBorderEi
_ZN12wxSizerFlags12TripleBorderEi
_ZN12wxSizerFlags16DoubleHorzBorderEv
_ZN12wxSizerFlags16GetDefaultBorderEv
_ZN12wxSizerFlags24ReserveSpaceEvenIfHiddenEv
_ZN12wxSizerFlags5AlignEi
_ZN12wxSizerFlags5RightEv
_ZN12wxSizerFlags6BorderEi
_ZN12wxSizerFlags6BorderEii
_ZN12wxSizerFlags6CentreEv
_ZN12wxSizerFlags6ExpandEv
_ZN12wxSizerFlagsC1Ei
_ZN12wxSizerFlagsC2Ei
_ZN12wxSizerFlagsC5Ei
_ZN12wxSliderBase10ClearTicksEv
_ZN12wxSliderBase11SetTickFreqEii
_ZN12wxSliderBase12SetSelectionEii
_ZN12wxSliderBase7SetTickEi
_ZN12wxSliderBase8ClearSelEv
_ZN12wxSliderBaseC1Ev
_ZN12wxSliderBaseC2Ev
_ZN12wxSliderBaseC5Ev
_ZN12wxSliderBaseD0Ev
_ZN12wxSliderBaseD1Ev
_ZN12wxSliderBaseD2Ev
_ZN12wxSliderBaseD5Ev
_ZN12wxSocketBase10InitializeEv
_ZN12wxSocketBase10SetTimeoutEl
_ZN12wxSocketBase11GetPushbackEPvjb
_ZN12wxSocketBase11m_countInitE
_ZN12wxSocketBase11WaitForLostEll
_ZN12wxSocketBase11WaitForReadEll
_ZN12wxSocketBase12ms_classInfoE
_ZN12wxSocketBase12RestoreStateEv
_ZN12wxSocketBase12WaitForWriteEll
_ZN12wxSocketBase13InterruptWaitEv
_ZN12wxSocketBase13IsInitializedEv
_ZN12wxSocketBase13SetClientDataEPv
_ZN12wxSocketBase15SetEventHandlerER12wxEvtHandleri
_ZN12wxSocketBase4InitEv
_ZN12wxSocketBase4PeekEPvj
_ZN12wxSocketBase4ReadEPvj
_ZN12wxSocketBase4WaitEll
_ZN12wxSocketBase5CloseEv
_ZN12wxSocketBase5_ReadEPvj
_ZN12wxSocketBase5_WaitElli
_ZN12wxSocketBase5WriteEPKvj
_ZN12wxSocketBase6NotifyEb
_ZN12wxSocketBase6UnreadEPKvj
_ZN12wxSocketBase6_WriteEPKvj
_ZN12wxSocketBase7DestroyEv
_ZN12wxSocketBase7DiscardEv
_ZN12wxSocketBase7ReadMsgEPvj
_ZN12wxSocketBase8PushbackEPKvj
_ZN12wxSocketBase8SetFlagsEi
_ZN12wxSocketBase8SetLocalER13wxIPV4address
_ZN12wxSocketBase8ShutdownEv
_ZN12wxSocketBase8WriteMsgEPKvj
_ZN12wxSocketBase9GetOptionEiiPvPi
_ZN12wxSocketBase9OnRequestE14wxSocketNotify
_ZN12wxSocketBase9SaveStateEv
_ZN12wxSocketBase9SetNotifyEi
_ZN12wxSocketBase9SetOptionEiiPKvi
_ZN12wxSocketBaseC1Ei12wxSocketType
_ZN12wxSocketBaseC1Ev
_ZN12wxSocketBaseC2Ei12wxSocketType
_ZN12wxSocketBaseC2Ev
_ZN12wxSocketBaseD0Ev
_ZN12wxSocketBaseD1Ev
_ZN12wxSocketBaseD2Ev
_ZN12wxSpinButton11ChangeValueEi
_ZN12wxSpinButton12ms_classInfoE
_ZN12wxSpinButton12SetArrowFlagEN14wxScrollArrows5ArrowEib
_ZN12wxSpinButton13PerformActionERK8wxStringlS2_
_ZN12wxSpinButton14wxCreateObjectEv
_ZN12wxSpinButton18GetStdInputHandlerEP14wxInputHandler
_ZN12wxSpinButton20DoGetStdInputHandlerEP14wxInputHandler
_ZN12wxSpinButton4InitEv
_ZN12wxSpinButton6CreateEP8wxWindowiRK7wxPointRK6wxSizelRK8wxString
_ZN12wxSpinButton6DoDrawEP17wxControlRenderer
_ZN12wxSpinButton7OnArrowEN14wxScrollArrows5ArrowE
_ZN12wxSpinButton8SetRangeEii
_ZN12wxSpinButton8SetValueEi
_ZN12wxSpinButton9GetArrowsEv
_ZN12wxSpinButton9GetWindowEv
_ZN12wxSpinButtonC1EP8wxWindowiRK7wxPointRK6wxSizelRK8wxString
_ZN12wxSpinButtonC1Ev
_ZN12wxSpinButtonC2EP8wxWindowiRK7wxPointRK6wxSizelRK8wxString
_ZN12wxSpinButtonC2Ev
_ZN12wxSpinButtonD0Ev
_ZN12wxSpinButtonD1Ev
_ZN12wxSpinButtonD2Ev
_ZN12wxSpinButtonD5Ev
_ZN12wxStackFrame3SetERK8wxStringS2_PKcmmPv
_ZN12wxStackFrame9OnGetNameEv
_ZN12wxStackFrameC1EmPvPKc
_ZN12wxStackFrameC2EmPvPKc
_ZN12wxStackFrameC5EmPvPKc
_ZN12wxStackFrameD0Ev
_ZN12wxStackFrameD1Ev
_ZN12wxStackFrameD2Ev
_ZN12wxStackFrameD5Ev
_ZN12wxStaticLine12ms_classInfoE
_ZN12wxStaticLine14wxCreateObjectEv
_ZN12wxStaticLine6CreateEP8wxWindowiRK7wxPointRK6wxSizelRK8wxString
_ZN12wxStaticLine6DoDrawEP17wxControlRenderer
_ZN12wxStaticLineC1EP8wxWindowiRK7wxPointRK6wxSizelRK8wxString
_ZN12wxStaticLineC1Ev
_ZN12wxStaticLineC2EP8wxWindowiRK7wxPointRK6wxSizelRK8wxString
_ZN12wxStaticLineC2Ev
_ZN12wxStaticLineC5EP8wxWindowiRK7wxPointRK6wxSizelRK8wxString
_ZN12wxStaticLineC5Ev
_ZN12wxStaticLineD0Ev
_ZN12wxStaticLineD1Ev
_ZN12wxStaticLineD2Ev
_ZN12wxStaticLineD5Ev
_ZN12wxStaticText12ms_classInfoE
_ZN12wxStaticText6CreateEP8wxWindowiRK8wxStringRK7wxPointRK6wxSizelS4_
_ZN12wxStaticText6DoDrawEP17wxControlRenderer
_ZN12wxStaticText8SetLabelERK8wxString
_ZN12wxStaticTextC1EP8wxWindowiRK8wxStringRK7wxPointRK6wxSizelS4_
_ZN12wxStaticTextC1Ev
_ZN12wxStaticTextC2EP8wxWindowiRK8wxStringRK7wxPointRK6wxSizelS4_
_ZN12wxStaticTextC2Ev
_ZN12wxStaticTextC5EP8wxWindowiRK8wxStringRK7wxPointRK6wxSizelS4_
_ZN12wxStaticTextC5Ev
_ZN12wxStaticTextD0Ev
_ZN12wxStaticTextD1Ev
_ZN12wxStaticTextD2Ev
_ZN12wxStaticTextD5Ev
_ZN12wxStreamBase5ResetEv
_ZN12wxStreamBase9OnSysSeekEl10wxSeekMode
_ZN12wxStreamBaseC1Ev
_ZN12wxStreamBaseC2Ev
_ZN12wxStreamBaseD0Ev
_ZN12wxStreamBaseD1Ev
_ZN12wxStreamBaseD2Ev
_ZN12wxStringBase10AssignCopyEmPKc
_ZN12wxStringBase10ConcatSelfEmPKc
_ZN12wxStringBase10ConcatSelfEmPKcm
_ZN12wxStringBase11AllocBufferEm
_ZN12wxStringBase15CopyBeforeWriteEv
_ZN12wxStringBase16AllocBeforeWriteEm
_ZN12wxStringBase16reverse_iteratorC1EPc
_ZN12wxStringBase16reverse_iteratorC1ERKS0_
_ZN12wxStringBase16reverse_iteratorC2EPc
_ZN12wxStringBase16reverse_iteratorC2ERKS0_
_ZN12wxStringBase16reverse_iteratorC5EPc
_ZN12wxStringBase16reverse_iteratorC5ERKS0_
_ZN12wxStringBase16reverse_iteratorppEi
_ZN12wxStringBase2atEm
_ZN12wxStringBase3endEv
_ZN12wxStringBase4InitEv
_ZN12wxStringBase4nposE
_ZN12wxStringBase4rendEv
_ZN12wxStringBase4swapERS_
_ZN12wxStringBase5AllocEm
_ZN12wxStringBase5beginEv
_ZN12wxStringBase5clearEv
_ZN12wxStringBase5eraseEmm
_ZN12wxStringBase5eraseEPc
_ZN12wxStringBase5eraseEPcS0_
_ZN12wxStringBase6appendEmc
_ZN12wxStringBase6appendEPKc
_ZN12wxStringBase6appendEPKcm
_ZN12wxStringBase6appendEPKcS1_
_ZN12wxStringBase6appendERKS_
_ZN12wxStringBase6appendERKS_mm
_ZN12wxStringBase6assignEPKcm
_ZN12wxStringBase6assignEPKcS1_
_ZN12wxStringBase6assignERKS_mm
_ZN12wxStringBase6insertEmmc
_ZN12wxStringBase6insertEmPKcm
_ZN12wxStringBase6insertEmRKS_
_ZN12wxStringBase6insertEPcc
_ZN12wxStringBase6rbeginEv
_ZN12wxStringBase6ReinitEv
_ZN12wxStringBase6resizeEmc
_ZN12wxStringBase7replaceEmmmc
_ZN12wxStringBase7replaceEmmPKc
_ZN12wxStringBase7replaceEmmPKcm
_ZN12wxStringBase7replaceEmmRKS_
_ZN12wxStringBase7replaceEmmRKS_mm
_ZN12wxStringBase7reserveEm
_ZN12wxStringBase8InitWithEPKcmm
_ZN12wxStringBaseaSEc
_ZN12wxStringBaseaSEPKc
_ZN12wxStringBaseaSERKS_
_ZN12wxStringBaseC1Emc
_ZN12wxStringBaseC1EPKc
_ZN12wxStringBaseC1EPKcm
_ZN12wxStringBaseC1EPKvS1_
_ZN12wxStringBaseC1ERKS_
_ZN12wxStringBaseC1ERKS_mm
_ZN12wxStringBaseC1Ev
_ZN12wxStringBaseC2Emc
_ZN12wxStringBaseC2EPKc
_ZN12wxStringBaseC2EPKcm
_ZN12wxStringBaseC2EPKvS1_
_ZN12wxStringBaseC2ERKS_
_ZN12wxStringBaseC2ERKS_mm
_ZN12wxStringBaseC2Ev
_ZN12wxStringBaseC5EPKc
_ZN12wxStringBaseC5EPKcm
_ZN12wxStringBaseC5ERKS_
_ZN12wxStringBaseC5ERKS_mm
_ZN12wxStringBaseC5Ev
_ZN12wxStringBaseD1Ev
_ZN12wxStringBaseD2Ev
_ZN12wxStringBaseD5Ev
_ZN12wxStringBasepLEc
_ZN12wxStringBasepLEPKc
_ZN12wxStringBasepLERKS_
_ZN12wxStringData4LockEv
_ZN12wxStringData6UnlockEv
_ZN12wxStringData8ValidateEb
_ZN12wxStringHash16wxCharStringHashEPKc
_ZN12wxStringHashC1Ev
_ZN12wxStringHashC2Ev
_ZN12wxStringHashC5Ev
_ZN12wxStringList12ms_classInfoE
_ZN12wxStringList14wxCreateObjectEv
_ZN12wxStringList3AddEPKc
_ZN12wxStringList4SortEv
_ZN12wxStringList6DeleteEPKc
_ZN12wxStringList6DoCopyERKS_
_ZN12wxStringList7PrependEPKc
_ZN12wxStringListC1EPKcz
_ZN12wxStringListC1Ev
_ZN12wxStringListC2EPKcz
_ZN12wxStringListC2Ev
_ZN12wxStringListD0Ev
_ZN12wxStringListD1Ev
_ZN12wxStringListD2Ev
_ZN12wxStringListD5Ev
_ZN12wxTextAttrEx12SetPageBreakEb
_ZN12wxTextAttrEx13SetBulletFontERK8wxString
_ZN12wxTextAttrEx13SetBulletNameERK8wxString
_ZN12wxTextAttrEx13SetBulletTextERK8wxString
_ZN12wxTextAttrEx14SetBulletStyleEi
_ZN12wxTextAttrEx14SetLineSpacingEi
_ZN12wxTextAttrEx14SetTextEffectsEi
_ZN12wxTextAttrEx15SetBulletNumberEi
_ZN12wxTextAttrEx15SetOutlineLevelEi
_ZN12wxTextAttrEx16SetListStyleNameERK8wxString
_ZN12wxTextAttrEx18SetTextEffectFlagsEi
_ZN12wxTextAttrEx21SetCharacterStyleNameERK8wxString
_ZN12wxTextAttrEx21SetParagraphStyleNameERK8wxString
_ZN12wxTextAttrEx24SetParagraphSpacingAfterEi
_ZN12wxTextAttrEx25SetParagraphSpacingBeforeEi
_ZN12wxTextAttrEx4CopyERKS_
_ZN12wxTextAttrEx4InitEv
_ZN12wxTextAttrEx6SetURLERK8wxString
_ZN12wxTextAttrEx9CombineExERKS_S1_PK14wxTextCtrlBase
_ZN12wxTextAttrExaSERK10wxTextAttr
_ZN12wxTextAttrExaSERKS_
_ZN12wxTextAttrExC1ERK10wxTextAttr
_ZN12wxTextAttrExC1ERKS_
_ZN12wxTextAttrExC1Ev
_ZN12wxTextAttrExC2ERK10wxTextAttr
_ZN12wxTextAttrExC2ERKS_
_ZN12wxTextAttrExC2Ev
_ZN12wxTextAttrExC5ERK10wxTextAttr
_ZN12wxTextAttrExC5Ev
_ZN12wxTextAttrExD1Ev
_ZN12wxTextAttrExD2Ev
_ZN12wxTextAttrExD5Ev
_ZN12wxTextBuffer10InsertLineERK8wxStringm14wxTextFileType
_ZN12wxTextBuffer11GetNextLineEv
_ZN12wxTextBuffer11typeDefaultE
_ZN12wxTextBuffer12GetFirstLineEv
_ZN12wxTextBuffer4OpenERK8wxMBConv
_ZN12wxTextBuffer4OpenERK8wxStringRK8wxMBConv
_ZN12wxTextBuffer5ClearEv
_ZN12wxTextBuffer5CloseEv
_ZN12wxTextBuffer5WriteE14wxTextFileTypeRK8wxMBConv
_ZN12wxTextBuffer6CreateERK8wxString
_ZN12wxTextBuffer6CreateEv
_ZN12wxTextBuffer6GetEOLE14wxTextFileType
_ZN12wxTextBuffer6ms_eofE
_ZN12wxTextBuffer7AddLineERK8wxString14wxTextFileType
_ZN12wxTextBuffer9TranslateERK8wxString14wxTextFileType
_ZN12wxTextBufferC1ERK8wxString
_ZN12wxTextBufferC1Ev
_ZN12wxTextBufferC2ERK8wxString
_ZN12wxTextBufferC2Ev
_ZN12wxTextBufferC5Ev
_ZN12wxTextBufferD0Ev
_ZN12wxTextBufferD1Ev
_ZN12wxTextBufferD2Ev
_ZN12wxTGAHandler12ms_classInfoE
_ZN12wxTGAHandler14wxCreateObjectEv
_ZN12wxTGAHandler8LoadFileEP7wxImageR13wxInputStreambi
_ZN12wxTGAHandler8SaveFileEP7wxImageR14wxOutputStreamb
_ZN12wxTGAHandler9DoCanReadER13wxInputStream
_ZN12wxTGAHandlerC1Ev
_ZN12wxTGAHandlerC2Ev
_ZN12wxTGAHandlerC5Ev
_ZN12wxTGAHandlerD0Ev
_ZN12wxTGAHandlerD1Ev
_ZN12wxTGAHandlerD2Ev
_ZN12wxTGAHandlerD5Ev
_ZN12wxTimerEvent12ms_classInfoE
_ZN12wxTimerEvent14wxCreateObjectEv
_ZN12wxTimerEventC1Eii
_ZN12wxTimerEventC1ERKS_
_ZN12wxTimerEventC2Eii
_ZN12wxTimerEventC2ERKS_
_ZN12wxTimerEventC5Eii
_ZN12wxTimerEventC5ERKS_
_ZN12wxTimerEventD0Ev
_ZN12wxTimerEventD1Ev
_ZN12wxTimerEventD2Ev
_ZN12wxTimerEventD5Ev
_ZN12wxTreeItemIdC1EPv
_ZN12wxTreeItemIdC1Ev
_ZN12wxTreeItemIdC2EPv
_ZN12wxTreeItemIdC2Ev
_ZN12wxTreeItemIdC5EPv
_ZN12wxTreeItemIdC5Ev
_ZN12wxWin32Theme11GetRendererEv
_ZN12wxWin32Theme12ms_infowin32E
_ZN12wxWin32Theme14GetArtProviderEv
_ZN12wxWin32Theme15GetColourSchemeEv
_ZN12wxWin32Theme15GetInputHandlerERK8wxStringP15wxInputConsumer
_ZN12wxWin32ThemeC1Ev
_ZN12wxWin32ThemeC2Ev
_ZN12wxWin32ThemeD0Ev
_ZN12wxWin32ThemeD1Ev
_ZN12wxWin32ThemeD2Ev
_ZN12wxWindowBase10CreateBaseEPS_iRK7wxPointRK6wxSizelRK11wxValidatorRK8wxString
_ZN12wxWindowBase10GetCaptureEv
_ZN12wxWindowBase10InitDialogEv
_ZN12wxWindowBase10SetMaxSizeERK6wxSize
_ZN12wxWindowBase10SetMinSizeERK6wxSize
_ZN12wxWindowBase10SetOwnFontERK6wxFont
_ZN12wxWindowBase10SetPaletteERK9wxPalette
_ZN12wxWindowBase10SetToolTipERK8wxString
_ZN12wxWindowBase11DoFindFocusEv
_ZN12wxWindowBase11GetChildrenEv
_ZN12wxWindowBase11RefreshRectERK6wxRectb
_ZN12wxWindowBase11RemoveChildEPS_
_ZN12wxWindowBase11ScrollLinesEi
_ZN12wxWindowBase11ScrollPagesEi
_ZN12wxWindowBase11SetHelpTextERK8wxString
_ZN12wxWindowBase11SetPositionERK7wxPoint
_ZN12wxWindowBase12CaptureMouseEv
_ZN12wxWindowBase12GetValidatorEv
_ZN12wxWindowBase12LayoutPhase1EPi
_ZN12wxWindowBase12LayoutPhase2EPi
_ZN12wxWindowBase12ms_classInfoE
_ZN12wxWindowBase12NewControlIdEv
_ZN12wxWindowBase12OnInitDialogER17wxInitDialogEvent
_ZN12wxWindowBase12ReleaseMouseEv
_ZN12wxWindowBase12SetSizeHintsEiiiiii
_ZN12wxWindowBase12SetValidatorERK11wxValidator
_ZN12wxWindowBase12TryValidatorER7wxEvent
_ZN12wxWindowBase12UnsetToolTipEv
_ZN12wxWindowBase13OnMiddleClickER12wxMouseEvent
_ZN12wxWindowBase13SetAutoLayoutEb
_ZN12wxWindowBase13SetClientSizeEii
_ZN12wxWindowBase13SetClientSizeERK6wxSize
_ZN12wxWindowBase13SetExtraStyleEl
_ZN12wxWindowBase13sm_eventTableE
_ZN12wxWindowBase14CentreOnParentEi
_ZN12wxWindowBase14DoSetSizeHintsEiiiiii
_ZN12wxWindowBase14FindWindowByIdElPK8wxWindow
_ZN12wxWindowBase14MoveConstraintEii
_ZN12wxWindowBase14OnInternalIdleEv
_ZN12wxWindowBase14SetConstraintsEP19wxLayoutConstraints
_ZN12wxWindowBase14SetInitialSizeERK6wxSize
_ZN12wxWindowBase14SetSizerAndFitEP7wxSizerb
_ZN12wxWindowBase14SetTransparentEh
_ZN12wxWindowBase14SetVirtualSizeEii
_ZN12wxWindowBase14SetVirtualSizeERK6wxSize
_ZN12wxWindowBase14SetWindowStyleEl
_ZN12wxWindowBase14UpdateWindowUIEl
_ZN12wxWindowBase15AssociateHandleEPv
_ZN12wxWindowBase15ClearBackgroundEv
_ZN12wxWindowBase15DestroyChildrenEv
_ZN12wxWindowBase15GetUpdateRegionEv
_ZN12wxWindowBase15PopEventHandlerEb
_ZN12wxWindowBase15SetEventHandlerEP12wxEvtHandler
_ZN12wxWindowBase15SetFocusFromKbdEv
_ZN12wxWindowBase15SetScrollHelperEP14wxScrollHelper
_ZN12wxWindowBase15SetThemeEnabledEb
_ZN12wxWindowBase16DissociateHandleEv
_ZN12wxWindowBase16DoMoveInTabOrderEP8wxWindowNS_8MoveKindE
_ZN12wxWindowBase16DoSetVirtualSizeEii
_ZN12wxWindowBase16DoUpdateWindowUIER15wxUpdateUIEvent
_ZN12wxWindowBase16FindWindowByNameERK8wxStringPK8wxWindow
_ZN12wxWindowBase16ms_lastControlIdE
_ZN12wxWindowBase16PushEventHandlerEP12wxEvtHandler
_ZN12wxWindowBase16ResetConstraintsEv
_ZN12wxWindowBase16SendDestroyEventEv
_ZN12wxWindowBase16SetHelpTextForIdERK8wxString
_ZN12wxWindowBase16SetWindowVariantE15wxWindowVariant
_ZN12wxWindowBase16UnsetConstraintsEP19wxLayoutConstraints
_ZN12wxWindowBase17CanSetTransparentEv
_ZN12wxWindowBase17FindWindowByLabelERK8wxStringPK8wxWindow
_ZN12wxWindowBase17InheritAttributesEv
_ZN12wxWindowBase17ms_winCaptureNextE
_ZN12wxWindowBase17NotifyCaptureLostEv
_ZN12wxWindowBase17SetSizeConstraintEiiii
_ZN12wxWindowBase17sm_eventHashTableE
_ZN12wxWindowBase17ToggleWindowStyleEi
_ZN12wxWindowBase18DoSetWindowVariantE15wxWindowVariant
_ZN12wxWindowBase18InvalidateBestSizeEv
_ZN12wxWindowBase18OnSysColourChangedER23wxSysColourChangedEvent
_ZN12wxWindowBase18RemoveEventHandlerEP12wxEvtHandler
_ZN12wxWindowBase18SatisfyConstraintsEv
_ZN12wxWindowBase18SetBackgroundStyleE17wxBackgroundStyle
_ZN12wxWindowBase18SetConstraintSizesEb
_ZN12wxWindowBase18SetContainingSizerEP7wxSizer
_ZN12wxWindowBase18SetInitialBestSizeERK6wxSize
_ZN12wxWindowBase18SetLayoutDirectionE17wxLayoutDirection
_ZN12wxWindowBase18SetWindowStyleFlagEl
_ZN12wxWindowBase19GetAcceleratorTableEv
_ZN12wxWindowBase19SetAcceleratorTableERK18wxAcceleratorTable
_ZN12wxWindowBase19SetBackgroundColourERK8wxColour
_ZN12wxWindowBase19SetForegroundColourERK8wxColour
_ZN12wxWindowBase19SetVirtualSizeHintsEiiii
_ZN12wxWindowBase20ms_winCaptureCurrentE
_ZN12wxWindowBase20sm_eventTableEntriesE
_ZN12wxWindowBase20TransferDataToWindowEv
_ZN12wxWindowBase21ConvertDialogToPixelsERK6wxSize
_ZN12wxWindowBase21ConvertDialogToPixelsERK7wxPoint
_ZN12wxWindowBase21ConvertPixelsToDialogERK7wxPoint
_ZN12wxWindowBase21ms_winCaptureChangingE
_ZN12wxWindowBase22AddConstraintReferenceEPS_
_ZN12wxWindowBase22SetOwnBackgroundColourERK8wxColour
_ZN12wxWindowBase22SetOwnForegroundColourERK8wxColour
_ZN12wxWindowBase22TransferDataFromWindowEv
_ZN12wxWindowBase24DeleteRelatedConstraintsEv
_ZN12wxWindowBase24HasTransparentBackgroundEv
_ZN12wxWindowBase25GetClassDefaultAttributesE15wxWindowVariant
_ZN12wxWindowBase25RemoveConstraintReferenceEPS_
_ZN12wxWindowBase31GetMainWindowOfCompositeControlEv
_ZN12wxWindowBase3FitEv
_ZN12wxWindowBase4HideEv
_ZN12wxWindowBase4MoveEiii
_ZN12wxWindowBase4MoveERK7wxPointi
_ZN12wxWindowBase4ShowEb
_ZN12wxWindowBase4ThawEv
_ZN12wxWindowBase5CloseEb
_ZN12wxWindowBase5SetIdEi
_ZN12wxWindowBase6CentreEi
_ZN12wxWindowBase6EnableEb
_ZN12wxWindowBase6FreezeEv
_ZN12wxWindowBase6LayoutEv
_ZN12wxWindowBase6OnHelpER11wxHelpEvent
_ZN12wxWindowBase6PageUpEv
_ZN12wxWindowBase6UpdateEv
_ZN12wxWindowBase7DestroyEv
_ZN12wxWindowBase7DisableEv
_ZN12wxWindowBase7DoPhaseEi
_ZN12wxWindowBase7SetFontERK6wxFont
_ZN12wxWindowBase7SetNameERK8wxString
_ZN12wxWindowBase7SetSizeEii
_ZN12wxWindowBase7SetSizeEiiiii
_ZN12wxWindowBase7SetSizeERK6wxRecti
_ZN12wxWindowBase7SetSizeERK6wxSize
_ZN12wxWindowBase8AddChildEPS_
_ZN12wxWindowBase8DoCentreEi
_ZN12wxWindowBase8NavigateEi
_ZN12wxWindowBase8PageDownEv
_ZN12wxWindowBase8ReparentEPS_
_ZN12wxWindowBase8SetCaretEP7wxCaret
_ZN12wxWindowBase8SetSizerEP7wxSizerb
_ZN12wxWindowBase8ValidateEv
_ZN12wxWindowBase9FindFocusEv
_ZN12wxWindowBase9FitInsideEv
_ZN12wxWindowBase9MakeModalEb
_ZN12wxWindowBase9PopupMenuEP6wxMenuii
_ZN12wxWindowBase9PopupMenuEP6wxMenuRK7wxPoint
_ZN12wxWindowBase9PrepareDCER4wxDC
_ZN12wxWindowBase9SetCursorERK8wxCursor
_ZN12wxWindowBase9SetParentEPS_
_ZN12wxWindowBase9TryParentER7wxEvent
_ZN12wxWindowBaseC1Ev
_ZN12wxWindowBaseC2Ev
_ZN12wxWindowBaseD0Ev
_ZN12wxWindowBaseD1Ev
_ZN12wxWindowBaseD2Ev
_ZN12wxWindowHash13Insert_ResultC1ERKN39wxWindowHash_wxImplementation_HashTable8iteratorERKb
_ZN12wxWindowHash13Insert_ResultC2ERKN39wxWindowHash_wxImplementation_HashTable8iteratorERKb
_ZN12wxWindowHash13Insert_ResultC5ERKN39wxWindowHash_wxImplementation_HashTable8iteratorERKb
_ZN12wxWindowHash4findERKm
_ZN12wxWindowHash5eraseERKm
_ZN12wxWindowHash6insertERK34wxWindowHash_wxImplementation_Pair
_ZN12wxWindowHashC1Em13wxIntegerHash14wxIntegerEqual
_ZN12wxWindowHashC2Em13wxIntegerHash14wxIntegerEqual
_ZN12wxWindowHashC5Em13wxIntegerHash14wxIntegerEqual
_ZN12wxWindowHashD1Ev
_ZN12wxWindowHashD2Ev
_ZN12wxWindowHashD5Ev
_ZN12wxWindowList10CreateNodeEP10wxNodeBaseS1_PvRK9wxListKey
_ZN12wxWindowList10DeleteNodeEP16wxWindowListNode
_ZN12wxWindowList12DeleteObjectEP12wxWindowBase
_ZN12wxWindowList14const_iteratorC1EP16wxWindowListNodeS2_
_ZN12wxWindowList14const_iteratorC1ERKNS_8iteratorE
_ZN12wxWindowList14const_iteratorC1Ev
_ZN12wxWindowList14const_iteratorC2EP16wxWindowListNodeS2_
_ZN12wxWindowList14const_iteratorC2ERKNS_8iteratorE
_ZN12wxWindowList14const_iteratorC2Ev
_ZN12wxWindowList14const_iteratorC5EP16wxWindowListNodeS2_
_ZN12wxWindowList14const_iteratorC5ERKNS_8iteratorE
_ZN12wxWindowList14const_iteratorC5Ev
_ZN12wxWindowList14const_iteratorppEv
_ZN12wxWindowList22compatibility_iteratorC1EP16wxWindowListNode
_ZN12wxWindowList22compatibility_iteratorC2EP16wxWindowListNode
_ZN12wxWindowList22compatibility_iteratorC5EP16wxWindowListNode
_ZN12wxWindowList3endEv
_ZN12wxWindowList5beginEv
_ZN12wxWindowList5EraseEP16wxWindowListNode
_ZN12wxWindowList6AppendEP12wxWindowBase
_ZN12wxWindowList6InsertEP16wxWindowListNodeP12wxWindowBase
_ZN12wxWindowList8iteratorC1EP16wxWindowListNodeS2_
_ZN12wxWindowList8iteratorC2EP16wxWindowListNodeS2_
_ZN12wxWindowList8iteratorC5EP16wxWindowListNodeS2_
_ZN12wxWindowList8iteratorppEv
_ZN12wxWindowListC1E9wxKeyType
_ZN12wxWindowListC1ERKS_
_ZN12wxWindowListC2E9wxKeyType
_ZN12wxWindowListC2ERKS_
_ZN12wxWindowListC5E9wxKeyType
_ZN12wxWindowListC5ERKS_
_ZN12wxWindowListD0Ev
_ZN12wxWindowListD1Ev
_ZN12wxWindowListD2Ev
_ZN12wxWindowListD5Ev
_ZN12wxWizardBase11HasNextPageEP12wxWizardPage
_ZN12wxWizardBase11HasPrevPageEP12wxWizardPage
_ZN12wxWizardBase20TransferDataToWindowEv
_ZN12wxWizardBase22TransferDataFromWindowEv
_ZN12wxWizardBase8ValidateEv
_ZN12wxWizardBaseC1Ev
_ZN12wxWizardBaseC2Ev
_ZN12wxWizardBaseC5Ev
_ZN12wxWizardBaseD0Ev
_ZN12wxWizardBaseD1Ev
_ZN12wxWizardBaseD2Ev
_ZN12wxWizardBaseD5Ev
_ZN12wxWizardPage12ms_classInfoE
_ZN12wxWizardPage20TransferDataToWindowEv
_ZN12wxWizardPage22TransferDataFromWindowEv
_ZN12wxWizardPage4InitEv
_ZN12wxWizardPage6CreateEP8wxWizardRK8wxBitmapPKc
_ZN12wxWizardPage8ValidateEv
_ZN12wxWizardPageC1EP8wxWizardRK8wxBitmapPKc
_ZN12wxWizardPageC1Ev
_ZN12wxWizardPageC2EP8wxWizardRK8wxBitmapPKc
_ZN12wxWizardPageC2Ev
_ZN12wxWizardPageC5Ev
_ZN12wxWizardPageD0Ev
_ZN12wxWizardPageD1Ev
_ZN12wxWizardPageD2Ev
_ZN12wxWizardPageD5Ev
_ZN12wxXPMDecoder7CanReadER13wxInputStream
_ZN12wxXPMDecoder8ReadDataEPKPKc
_ZN12wxXPMDecoder8ReadFileER13wxInputStream
_ZN12wxXPMDecoderC1Ev
_ZN12wxXPMDecoderC2Ev
_ZN12wxXPMDecoderC5Ev
_ZN12wxXPMDecoderD1Ev
_ZN12wxXPMDecoderD2Ev
_ZN12wxXPMDecoderD5Ev
_ZN12wxXPMHandler12ms_classInfoE
_ZN12wxXPMHandler14wxCreateObjectEv
_ZN12wxXPMHandler8LoadFileEP7wxImageR13wxInputStreambi
_ZN12wxXPMHandler8SaveFileEP7wxImageR14wxOutputStreamb
_ZN12wxXPMHandler9DoCanReadER13wxInputStream
_ZN12wxXPMHandlerC1Ev
_ZN12wxXPMHandlerC2Ev
_ZN12wxXPMHandlerC5Ev
_ZN12wxXPMHandlerD0Ev
_ZN12wxXPMHandlerD1Ev
_ZN12wxXPMHandlerD2Ev
_ZN12wxXPMHandlerD5Ev
_ZN13ColWidthArray3AddEP14wxColWidthInfom
_ZN13ColWidthArray6InsertEP14wxColWidthInfomm
_ZN13ColWidthArray8RemoveAtEmm
_ZN13ColWidthArrayC1Ev
_ZN13ColWidthArrayC2Ev
_ZN13ColWidthArrayC5Ev
_ZN13ColWidthArrayD1Ev
_ZN13ColWidthArrayD2Ev
_ZN13ColWidthArrayD5Ev
_ZN13HP_TagHandler16GetSupportedTagsEv
_ZN13HP_TagHandler5ResetER19wxHtmlHelpDataItems
_ZN13HP_TagHandler9HandleTagERK9wxHtmlTag
_ZN13HP_TagHandlerC1EP16wxHtmlBookRecord
_ZN13HP_TagHandlerC2EP16wxHtmlBookRecord
_ZN13HP_TagHandlerC5EP16wxHtmlBookRecord
_ZN13HP_TagHandlerD0Ev
_ZN13HP_TagHandlerD1Ev
_ZN13HP_TagHandlerD2Ev
_ZN13HP_TagHandlerD5Ev
_ZN13wxArrayParams3AddEPK14wxCmdLineParam
_ZN13wxArrayParams3AddERK14wxCmdLineParamm
_ZN13wxArrayParams5EmptyEv
_ZN13wxArrayParams6DoCopyERKS_
_ZN13wxArrayParams6InsertERK14wxCmdLineParammm
_ZN13wxArrayParams7DoEmptyEv
_ZN13wxArrayParams8RemoveAtEmm
_ZN13wxArrayParamsaSERKS_
_ZN13wxArrayParamsC1ERKS_
_ZN13wxArrayParamsC1Ev
_ZN13wxArrayParamsC2ERKS_
_ZN13wxArrayParamsC2Ev
_ZN13wxArrayParamsC5Ev
_ZN13wxArrayParamsD1Ev
_ZN13wxArrayParamsD2Ev
_ZN13wxArrayString3AddERK8wxStringm
_ZN13wxArrayString3endEv
_ZN13wxArrayString4CopyERKS_
_ZN13wxArrayString4FreeEv
_ZN13wxArrayString4GrowEm
_ZN13wxArrayString4InitEb
_ZN13wxArrayString4SortEb
_ZN13wxArrayString4SortEPFiP8wxStringS1_E
_ZN13wxArrayString4SortEPFiRK8wxStringS2_E
_ZN13wxArrayString5AllocEm
_ZN13wxArrayString5beginEv
_ZN13wxArrayString5clearEv
_ZN13wxArrayString5ClearEv
_ZN13wxArrayString5EmptyEv
_ZN13wxArrayString5eraseEP8wxString
_ZN13wxArrayString5eraseEP8wxStringS1_
_ZN13wxArrayString6assignEPK8wxStringS2_
_ZN13wxArrayString6DoSortEv
_ZN13wxArrayString6insertEP8wxStringPKS0_S3_
_ZN13wxArrayString6insertEP8wxStringRKS0_
_ZN13wxArrayString6InsertERK8wxStringmm
_ZN13wxArrayString6RemoveEPKc
_ZN13wxArrayString6ShrinkEv
_ZN13wxArrayString7reserveEm
_ZN13wxArrayString8RemoveAtEmm
_ZN13wxArrayString8SetCountEm
_ZN13wxArrayString9push_backERK8wxString
_ZN13wxArrayStringaSERKS_
_ZN13wxArrayStringC1Ei
_ZN13wxArrayStringC1EmPK8wxString
_ZN13wxArrayStringC1EmPPKc
_ZN13wxArrayStringC1ERKS_
_ZN13wxArrayStringC1Ev
_ZN13wxArrayStringC2Ei
_ZN13wxArrayStringC2EmPK8wxString
_ZN13wxArrayStringC2EmPPKc
_ZN13wxArrayStringC2ERKS_
_ZN13wxArrayStringC2Ev
_ZN13wxArrayStringC5Ei
_ZN13wxArrayStringC5Ev
_ZN13wxArrayStringD1Ev
_ZN13wxArrayStringD2Ev
_ZN13wxArrayThread3AddEP8wxThreadm
_ZN13wxArrayThread6RemoveEP8wxThread
_ZN13wxArrayThreadC1Ev
_ZN13wxArrayThreadC2Ev
_ZN13wxArrayThreadC5Ev
_ZN13wxArrayThreadD1Ev
_ZN13wxArrayThreadD2Ev
_ZN13wxArrayThreadD5Ev
_ZN13wxArtProvider11GetSizeHintERK8wxStringb
_ZN13wxArtProvider11PopProviderEv
_ZN13wxArtProvider12ms_classInfoE
_ZN13wxArtProvider12PushProviderEPS_
_ZN13wxArtProvider12sm_providersE
_ZN13wxArtProvider13DoGetSizeHintERK8wxString
_ZN13wxArtProvider14InsertProviderEPS_
_ZN13wxArtProvider14RemoveProviderEPS_
_ZN13wxArtProvider15InitStdProviderEv
_ZN13wxArtProvider16CleanUpProvidersEv
_ZN13wxArtProvider18InitNativeProviderEv
_ZN13wxArtProvider20CommonAddingProviderEv
_ZN13wxArtProvider3PopEv
_ZN13wxArtProvider4PushEPS_
_ZN13wxArtProvider6DeleteEPS_
_ZN13wxArtProvider6InsertEPS_
_ZN13wxArtProvider6RemoveEPS_
_ZN13wxArtProvider7GetIconERK8wxStringS2_RK6wxSize
_ZN13wxArtProvider8PushBackEPS_
_ZN13wxArtProvider8sm_cacheE
_ZN13wxArtProvider9GetBitmapERK8wxStringS2_RK6wxSize
_ZN13wxArtProviderC1Ev
_ZN13wxArtProviderC2Ev
_ZN13wxArtProviderC5Ev
_ZN13wxArtProviderD0Ev
_ZN13wxArtProviderD1Ev
_ZN13wxArtProviderD2Ev
_ZN13wxAuiDockInfoC1ERKS_
_ZN13wxAuiDockInfoC1Ev
_ZN13wxAuiDockInfoC2ERKS_
_ZN13wxAuiDockInfoC2Ev
_ZN13wxAuiDockInfoC5ERKS_
_ZN13wxAuiDockInfoC5Ev
_ZN13wxAuiDockInfoD1Ev
_ZN13wxAuiDockInfoD2Ev
_ZN13wxAuiDockInfoD5Ev
_ZN13wxAuiNotebook10DeletePageEm
_ZN13wxAuiNotebook10InsertPageEmP8wxWindowRK8wxStringbRK8wxBitmap
_ZN13wxAuiNotebook10RemovePageEm
_ZN13wxAuiNotebook11OnTabButtonER14wxCommandEvent
_ZN13wxAuiNotebook11SetPageTextEmRK8wxString
_ZN13wxAuiNotebook12InitNotebookEl
_ZN13wxAuiNotebook12ms_classInfoE
_ZN13wxAuiNotebook12OnChildFocusER17wxChildFocusEvent
_ZN13wxAuiNotebook12OnTabClickedER14wxCommandEvent
_ZN13wxAuiNotebook12OnTabEndDragER14wxCommandEvent
_ZN13wxAuiNotebook12OnTabRightUpER14wxCommandEvent
_ZN13wxAuiNotebook12SetSelectionEm
_ZN13wxAuiNotebook13OnTabBgDClickER14wxCommandEvent
_ZN13wxAuiNotebook13OnTabMiddleUpER14wxCommandEvent
_ZN13wxAuiNotebook13SetNormalFontERK6wxFont
_ZN13wxAuiNotebook13SetPageBitmapEmRK8wxBitmap
_ZN13wxAuiNotebook13sm_eventTableE
_ZN13wxAuiNotebook14OnTabBeginDragER14wxCommandEvent
_ZN13wxAuiNotebook14OnTabRightDownER14wxCommandEvent
_ZN13wxAuiNotebook14SetArtProviderEP11wxAuiTabArt
_ZN13wxAuiNotebook14ShowWindowMenuEv
_ZN13wxAuiNotebook15OnNavigationKeyER20wxNavigationKeyEvent
_ZN13wxAuiNotebook15OnTabDragMotionER14wxCommandEvent
_ZN13wxAuiNotebook15OnTabMiddleDownER14wxCommandEvent
_ZN13wxAuiNotebook15SetSelectedFontERK6wxFont
_ZN13wxAuiNotebook16AdvanceSelectionEb
_ZN13wxAuiNotebook16GetActiveTabCtrlEv
_ZN13wxAuiNotebook16SetMeasuringFontERK6wxFont
_ZN13wxAuiNotebook16SetTabCtrlHeightEi
_ZN13wxAuiNotebook17sm_eventHashTableE
_ZN13wxAuiNotebook18SetWindowStyleFlagEl
_ZN13wxAuiNotebook19GetTabCtrlFromPointERK7wxPoint
_ZN13wxAuiNotebook19UpdateTabCtrlHeightEv
_ZN13wxAuiNotebook20RemoveEmptyTabFramesEv
_ZN13wxAuiNotebook20SetUniformBitmapSizeERK6wxSize
_ZN13wxAuiNotebook20sm_eventTableEntriesE
_ZN13wxAuiNotebook20UpdateHintWindowSizeEv
_ZN13wxAuiNotebook21CalculateNewSplitSizeEv
_ZN13wxAuiNotebook22CalculateTabCtrlHeightEv
_ZN13wxAuiNotebook22GetHeightForPageHeightEi
_ZN13wxAuiNotebook22GetTabFrameFromTabCtrlEP8wxWindow
_ZN13wxAuiNotebook5SplitEmi
_ZN13wxAuiNotebook6CreateEP8wxWindowiRK7wxPointRK6wxSizel
_ZN13wxAuiNotebook6OnSizeER11wxSizeEvent
_ZN13wxAuiNotebook7AddPageEP8wxWindowRK8wxStringbRK8wxBitmap
_ZN13wxAuiNotebook7FindTabEP8wxWindowPP12wxAuiTabCtrlPi
_ZN13wxAuiNotebook7SetFontERK6wxFont
_ZN13wxAuiNotebook8DoSizingEv
_ZN13wxAuiNotebookC1EP8wxWindowiRK7wxPointRK6wxSizel
_ZN13wxAuiNotebookC1Ev
_ZN13wxAuiNotebookC2EP8wxWindowiRK7wxPointRK6wxSizel
_ZN13wxAuiNotebookC2Ev
_ZN13wxAuiNotebookD0Ev
_ZN13wxAuiNotebookD1Ev
_ZN13wxAuiNotebookD2Ev
_ZN13wxAuiPaneInfo10CenterPaneEv
_ZN13wxAuiPaneInfo10PaneBorderEb
_ZN13wxAuiPaneInfo11DefaultPaneEv
_ZN13wxAuiPaneInfo12FloatingSizeERK6wxSize
_ZN13wxAuiPaneInfo14CaptionVisibleEb
_ZN13wxAuiPaneInfo16FloatingPositionERK7wxPoint
_ZN13wxAuiPaneInfo3RowEi
_ZN13wxAuiPaneInfo3TopEv
_ZN13wxAuiPaneInfo4DockEv
_ZN13wxAuiPaneInfo4HideEv
_ZN13wxAuiPaneInfo4LeftEv
_ZN13wxAuiPaneInfo4NameERK8wxString
_ZN13wxAuiPaneInfo4ShowEb
_ZN13wxAuiPaneInfo5FloatEv
_ZN13wxAuiPaneInfo5LayerEi
_ZN13wxAuiPaneInfo5RightEv
_ZN13wxAuiPaneInfo6BottomEv
_ZN13wxAuiPaneInfo6CenterEv
_ZN13wxAuiPaneInfo6CentreEv
_ZN13wxAuiPaneInfo7CaptionERK8wxString
_ZN13wxAuiPaneInfo7MinSizeERK6wxSize
_ZN13wxAuiPaneInfo7RestoreEv
_ZN13wxAuiPaneInfo7SafeSetES_
_ZN13wxAuiPaneInfo7SetFlagEjb
_ZN13wxAuiPaneInfo8BestSizeERK6wxSize
_ZN13wxAuiPaneInfo8MaximizeEv
_ZN13wxAuiPaneInfo8PositionEi
_ZN13wxAuiPaneInfo9DirectionEi
_ZN13wxAuiPaneInfo9ResizableEb
_ZN13wxAuiPaneInfoaSERKS_
_ZN13wxAuiPaneInfoC1ERKS_
_ZN13wxAuiPaneInfoC1Ev
_ZN13wxAuiPaneInfoC2ERKS_
_ZN13wxAuiPaneInfoC2Ev
_ZN13wxAuiPaneInfoC5ERKS_
_ZN13wxAuiPaneInfoC5Ev
_ZN13wxAuiPaneInfoD1Ev
_ZN13wxAuiPaneInfoD2Ev
_ZN13wxAuiPaneInfoD5Ev
_ZN13wxBackingFileaSERKS_
_ZN13wxBackingFileC1EP13wxInputStreammRK8wxString
_ZN13wxBackingFileC1ERKS_
_ZN13wxBackingFileC1Ev
_ZN13wxBackingFileC2EP13wxInputStreammRK8wxString
_ZN13wxBackingFileC2ERKS_
_ZN13wxBackingFileC2Ev
_ZN13wxBackingFileC5Ev
_ZN13wxBackingFileD1Ev
_ZN13wxBackingFileD2Ev
_ZN13wxContextHelp12ms_classInfoE
_ZN13wxContextHelp13DispatchEventEP8wxWindowRK7wxPoint
_ZN13wxContextHelp14EndContextHelpEv
_ZN13wxContextHelp14wxCreateObjectEv
_ZN13wxContextHelp16BeginContextHelpEP8wxWindow
_ZN13wxContextHelp9EventLoopEv
_ZN13wxContextHelp9SetStatusEb
_ZN13wxContextHelpC1EP8wxWindowb
_ZN13wxContextHelpC2EP8wxWindowb
_ZN13wxContextHelpD0Ev
_ZN13wxContextHelpD1Ev
_ZN13wxContextHelpD2Ev
_ZN13wxControlBase12GetLabelTextERK8wxString
_ZN13wxControlBase13CreateControlEP12wxWindowBaseiRK7wxPointRK6wxSizelRK11wxValidatorRK8wxString
_ZN13wxControlBase16DoUpdateWindowUIER15wxUpdateUIEvent
_ZN13wxControlBase6CreateEP8wxWindowiRK7wxPointRK6wxSizelRK11wxValidatorRK8wxString
_ZN13wxControlBase7CommandER14wxCommandEvent
_ZN13wxControlBase7SetFontERK6wxFont
_ZN13wxControlBase8SetLabelERK8wxString
_ZN13wxControlBaseC1Ev
_ZN13wxControlBaseC2Ev
_ZN13wxControlBaseC5Ev
_ZN13wxControlBaseD0Ev
_ZN13wxControlBaseD1Ev
_ZN13wxControlBaseD2Ev
_ZN13wxDebugReport10AddContextENS_7ContextE
_ZN13wxDebugReport10RemoveFileERK8wxString
_ZN13wxDebugReport15DoAddSystemInfoEP9wxXmlNode
_ZN13wxDebugReport18DoAddCustomContextEP9wxXmlNode
_ZN13wxDebugReport18DoAddExceptionInfoEP9wxXmlNode
_ZN13wxDebugReport18DoAddLoadedModulesEP9wxXmlNode
_ZN13wxDebugReport5ResetEv
_ZN13wxDebugReport6AddAllENS_7ContextE
_ZN13wxDebugReport7AddFileERK8wxStringS2_
_ZN13wxDebugReport7AddTextERK8wxStringS2_S2_
_ZN13wxDebugReport7ProcessEv
_ZN13wxDebugReport9DoProcessEv
_ZN13wxDebugReportC1Ev
_ZN13wxDebugReportC2Ev
_ZN13wxDebugReportD0Ev
_ZN13wxDebugReportD1Ev
_ZN13wxDebugReportD2Ev
_ZN13wxDialProcess10DisconnectEv
_ZN13wxDialProcess11OnTerminateEii
_ZN13wxDialProcessC1EP19wxDialUpManagerImpl
_ZN13wxDialProcessC2EP19wxDialUpManagerImpl
_ZN13wxDialProcessC5EP19wxDialUpManagerImpl
_ZN13wxDialProcessD0Ev
_ZN13wxDialProcessD1Ev
_ZN13wxDialProcessD2Ev
_ZN13wxDialProcessD5Ev
_ZN13wxDialUpEventC1Ebb
_ZN13wxDialUpEventC1ERKS_
_ZN13wxDialUpEventC2Ebb
_ZN13wxDialUpEventC2ERKS_
_ZN13wxDialUpEventC5Ebb
_ZN13wxDialUpEventC5ERKS_
_ZN13wxDialUpEventD0Ev
_ZN13wxDialUpEventD1Ev
_ZN13wxDialUpEventD2Ev
_ZN13wxDialUpEventD5Ev
_ZN13wxDirItemData13SetNewDirNameERK8wxString
_ZN13wxDirItemDataC1ERK8wxStringS2_b
_ZN13wxDirItemDataC2ERK8wxStringS2_b
_ZN13wxDirItemDataD0Ev
_ZN13wxDirItemDataD1Ev
_ZN13wxDirItemDataD2Ev
_ZN13wxDirItemDataD5Ev
_ZN13wxDisplayImplC1Ej
_ZN13wxDisplayImplC2Ej
_ZN13wxDisplayImplC5Ej
_ZN13wxDisplayImplD0Ev
_ZN13wxDisplayImplD1Ev
_ZN13wxDisplayImplD2Ev
_ZN13wxDisplayImplD5Ev
_ZN13wxDocPrintout11GetPageInfoEPiS0_S0_S0_
_ZN13wxDocPrintout11OnPrintPageEi
_ZN13wxDocPrintout12ms_classInfoE
_ZN13wxDocPrintout14wxCreateObjectEv
_ZN13wxDocPrintout15OnBeginDocumentEii
_ZN13wxDocPrintout7GetViewEv
_ZN13wxDocPrintout7HasPageEi
_ZN13wxDocPrintoutC1EP6wxViewRK8wxString
_ZN13wxDocPrintoutC2EP6wxViewRK8wxString
_ZN13wxDocPrintoutD0Ev
_ZN13wxDocPrintoutD1Ev
_ZN13wxDocPrintoutD2Ev
_ZN13wxDocPrintoutD5Ev
_ZN13wxDocTemplate10CreateViewEP10wxDocumentl
_ZN13wxDocTemplate12DoCreateViewEv
_ZN13wxDocTemplate12InitDocumentEP10wxDocumentRK8wxStringl
_ZN13wxDocTemplate12ms_classInfoE
_ZN13wxDocTemplate14CreateDocumentERK8wxStringl
_ZN13wxDocTemplate16DoCreateDocumentEv
_ZN13wxDocTemplate19FileMatchesTemplateERK8wxString
_ZN13wxDocTemplateC1EP12wxDocManagerRK8wxStringS4_S4_S4_S4_S4_P11wxClassInfoS6_l
_ZN13wxDocTemplateC2EP12wxDocManagerRK8wxStringS4_S4_S4_S4_S4_P11wxClassInfoS6_l
_ZN13wxDocTemplateD0Ev
_ZN13wxDocTemplateD1Ev
_ZN13wxDocTemplateD2Ev
_ZN13wxExecuteDataC1Ev
_ZN13wxExecuteDataC2Ev
_ZN13wxExecuteDataC5Ev
_ZN13wxExecuteDataD1Ev
_ZN13wxExecuteDataD2Ev
_ZN13wxExecuteDataD5Ev
_ZN13wxFFileStreamC1ERK8wxString
_ZN13wxFFileStreamC2ERK8wxString
_ZN13wxFFileStreamD0Ev
_ZN13wxFFileStreamD1Ev
_ZN13wxFFileStreamD2Ev
_ZN13wxFFileStreamD5Ev
_ZN13wxFileHistory10RemoveMenuEP6wxMenu
_ZN13wxFileHistory12ms_classInfoE
_ZN13wxFileHistory14AddFilesToMenuEP6wxMenu
_ZN13wxFileHistory14AddFilesToMenuEv
_ZN13wxFileHistory14wxCreateObjectEv
_ZN13wxFileHistory16AddFileToHistoryERK8wxString
_ZN13wxFileHistory21RemoveFileFromHistoryEm
_ZN13wxFileHistory4LoadER12wxConfigBase
_ZN13wxFileHistory4SaveER12wxConfigBase
_ZN13wxFileHistory7UseMenuEP6wxMenu
_ZN13wxFileHistoryC1Emi
_ZN13wxFileHistoryC2Emi
_ZN13wxFileHistoryD0Ev
_ZN13wxFileHistoryD1Ev
_ZN13wxFileHistoryD2Ev
_ZN13wxFontRefData11SetEncodingE14wxFontEncoding
_ZN13wxFontRefData11SetFaceNameERK8wxString
_ZN13wxFontRefData12SetPointSizeEi
_ZN13wxFontRefData13ClearX11FontsEv
_ZN13wxFontRefData13SetUnderlinedEb
_ZN13wxFontRefData14InitFromNativeEv
_ZN13wxFontRefData17SetNativeFontInfoERK16wxNativeFontInfo
_ZN13wxFontRefData17SetNoAntiAliasingEb
_ZN13wxFontRefData4InitEiiiibRK8wxString14wxFontEncoding
_ZN13wxFontRefData8SetStyleEi
_ZN13wxFontRefData9SetFamilyEi
_ZN13wxFontRefData9SetWeightEi
_ZN13wxFontRefDataC1EiiiibRK8wxString14wxFontEncoding
_ZN13wxFontRefDataC1ERK8wxString
_ZN13wxFontRefDataC1ERKS_
_ZN13wxFontRefDataC2EiiiibRK8wxString14wxFontEncoding
_ZN13wxFontRefDataC2ERK8wxString
_ZN13wxFontRefDataC2ERKS_
_ZN13wxFontRefDataD0Ev
_ZN13wxFontRefDataD1Ev
_ZN13wxFontRefDataD2Ev
_ZN13wxGBSizerItem10IntersectsERK12wxGBPositionRK8wxGBSpan
_ZN13wxGBSizerItem10IntersectsERKS_
_ZN13wxGBSizerItem10SetGBSizerEP14wxGridBagSizer
_ZN13wxGBSizerItem12ms_classInfoE
_ZN13wxGBSizerItem14wxCreateObjectEv
_ZN13wxGBSizerItem6SetPosERK12wxGBPosition
_ZN13wxGBSizerItem7SetSpanERK8wxGBSpan
_ZN13wxGBSizerItem9GetEndPosERiS0_
_ZN13wxGBSizerItemC1EiiRK12wxGBPositionRK8wxGBSpaniiP8wxObject
_ZN13wxGBSizerItemC1EP7wxSizerRK12wxGBPositionRK8wxGBSpaniiP8wxObject
_ZN13wxGBSizerItemC1EP8wxWindowRK12wxGBPositionRK8wxGBSpaniiP8wxObject
_ZN13wxGBSizerItemC1Ev
_ZN13wxGBSizerItemC2EiiRK12wxGBPositionRK8wxGBSpaniiP8wxObject
_ZN13wxGBSizerItemC2EP7wxSizerRK12wxGBPositionRK8wxGBSpaniiP8wxObject
_ZN13wxGBSizerItemC2EP8wxWindowRK12wxGBPositionRK8wxGBSpaniiP8wxObject
_ZN13wxGBSizerItemC2Ev
_ZN13wxGBSizerItemD0Ev
_ZN13wxGBSizerItemD1Ev
_ZN13wxGBSizerItemD2Ev
_ZN13wxGBSizerItemD5Ev
_ZN13wxGTKRenderer10AdjustSizeEP6wxSizePK8wxWindow
_ZN13wxGTKRenderer11DrawDownZagER4wxDCiiii
_ZN13wxGTKRenderer12DrawMenuItemER4wxDCiRK18wxMenuGeometryInfoRK8wxStringS7_RK8wxBitmapii
_ZN13wxGTKRenderer13DrawFocusRectER4wxDCRK6wxRecti
_ZN13wxGTKRenderer14DoDrawMenuItemER4wxDCRK6wxRectRK8wxStringiiS7_RK8wxBitmapPK21wxGTKMenuGeometryInfo
_ZN13wxGTKRenderer14DrawTextBorderER4wxDC8wxBorderRK6wxRectiPS3_
_ZN13wxGTKRenderer14GetCheckBitmapEi
_ZN13wxGTKRenderer14GetRadioBitmapEi
_ZN13wxGTKRenderer15DrawArrowBorderER4wxDCP6wxRect11wxDirection
_ZN13wxGTKRenderer15DrawButtonLabelER4wxDCRK8wxStringRK8wxBitmapRK6wxRectiiiPS8_
_ZN13wxGTKRenderer15DrawCheckBitmapER4wxDCRK6wxRect
_ZN13wxGTKRenderer15DrawMenuBarItemER4wxDCRK6wxRectRK8wxStringii
_ZN13wxGTKRenderer15DrawRadioBitmapER4wxDCRK6wxRecti
_ZN13wxGTKRenderer15DrawSliderShaftER4wxDCRK6wxRecti13wxOrientationilPS2_
_ZN13wxGTKRenderer15DrawSliderThumbER4wxDCRK6wxRect13wxOrientationil
_ZN13wxGTKRenderer15DrawSliderTicksER4wxDCRK6wxRecti13wxOrientationiiiil
_ZN13wxGTKRenderer15DrawThumbBorderER4wxDCP6wxRect13wxOrientation
_ZN13wxGTKRenderer15GetComboBitmapsEP8wxBitmapS1_S1_S1_
_ZN13wxGTKRenderer16DrawButtonBorderER4wxDCRK6wxRectiPS2_
_ZN13wxGTKRenderer16DrawLineWrapMarkER4wxDCRK6wxRect
_ZN13wxGTKRenderer16DrawSunkenBorderER4wxDCP6wxRect
_ZN13wxGTKRenderer16InitComboBitmapsEv
_ZN13wxGTKRenderer17DrawMenuSeparatorER4wxDCiRK18wxMenuGeometryInfo
_ZN13wxGTKRenderer17DrawToolBarButtonER4wxDCRK8wxStringRK8wxBitmapRK6wxRectili
_ZN13wxGTKRenderer17DrawUncheckBitmapER4wxDCRK6wxRectb
_ZN13wxGTKRenderer18DrawAntiShadedRectER4wxDCP6wxRectRK5wxPenS6_
_ZN13wxGTKRenderer18DrawFrameWithLabelER4wxDCRK8wxStringRK6wxRectS7_iii
_ZN13wxGTKRenderer18DrawScrollbarArrowER4wxDC11wxDirectionRK6wxRecti
_ZN13wxGTKRenderer18DrawScrollbarShaftER4wxDC13wxOrientationRK6wxRecti
_ZN13wxGTKRenderer18DrawScrollbarThumbER4wxDC13wxOrientationRK6wxRecti
_ZN13wxGTKRenderer19DrawCheckItemBitmapER4wxDCRK8wxBitmapRK6wxRecti
_ZN13wxGTKRenderer19DrawInnerShadedRectER4wxDCP6wxRect
_ZN13wxGTKRenderer20DrawAntiRaisedBorderER4wxDCP6wxRect
_ZN13wxGTKRenderer20GetFrameButtonBitmapEN13wxStdRenderer15FrameButtonTypeE
_ZN13wxGTKRenderer22DrawAntiShadedRectSideER4wxDCRK6wxRectRK5wxPenS7_11wxDirection
_ZN13wxGTKRenderer22DrawUndeterminedBitmapER4wxDCRK6wxRectb
_ZN13wxGTKRenderer7DrawTabER4wxDCRK6wxRect11wxDirectionRK8wxStringRK8wxBitmapii
_ZN13wxGTKRenderer9DrawArrowER4wxDC11wxDirectionRK6wxRecti
_ZN13wxGTKRenderer9DrawUpZagER4wxDCiiii
_ZN13wxGTKRendererC1EPK14wxColourScheme
_ZN13wxGTKRendererC2EPK14wxColourScheme
_ZN13wxGTKRendererD0Ev
_ZN13wxGTKRendererD1Ev
_ZN13wxGTKRendererD2Ev
_ZN13wxGTKRendererD5Ev
_ZN13wxHtmlListBox10OnLeftDownER12wxMouseEvent
_ZN13wxHtmlListBox10RefreshAllEv
_ZN13wxHtmlListBox11OnMouseMoveER12wxMouseEvent
_ZN13wxHtmlListBox11RefreshLineEm
_ZN13wxHtmlListBox12ms_classInfoE
_ZN13wxHtmlListBox12RefreshLinesEmm
_ZN13wxHtmlListBox12SetItemCountEm
_ZN13wxHtmlListBox13GetHTMLWindowEv
_ZN13wxHtmlListBox13OnLinkClickedEmRK14wxHtmlLinkInfo
_ZN13wxHtmlListBox13sm_eventTableE
_ZN13wxHtmlListBox14OnInternalIdleEv
_ZN13wxHtmlListBox17OnHTMLLinkClickedERK14wxHtmlLinkInfo
_ZN13wxHtmlListBox17SetHTMLStatusTextERK8wxString
_ZN13wxHtmlListBox17sm_eventHashTableE
_ZN13wxHtmlListBox18SetHTMLWindowTitleERK8wxString
_ZN13wxHtmlListBox20sm_eventTableEntriesE
_ZN13wxHtmlListBox22SetHTMLBackgroundImageERK8wxBitmap
_ZN13wxHtmlListBox23SetHTMLBackgroundColourERK8wxColour
_ZN13wxHtmlListBox4InitEv
_ZN13wxHtmlListBox6CreateEP8wxWindowiRK7wxPointRK6wxSizelRK8wxString
_ZN13wxHtmlListBox6OnSizeER11wxSizeEvent
_ZN13wxHtmlListBoxC1EP8wxWindowiRK7wxPointRK6wxSizelRK8wxString
_ZN13wxHtmlListBoxC1Ev
_ZN13wxHtmlListBoxC2EP8wxWindowiRK7wxPointRK6wxSizelRK8wxString
_ZN13wxHtmlListBoxC2Ev
_ZN13wxHtmlListBoxD0Ev
_ZN13wxHtmlListBoxD1Ev
_ZN13wxHtmlListBoxD2Ev
_ZN13wxImageModule12ms_classInfoE
_ZN13wxImageModule14wxCreateObjectEv
_ZN13wxImageModule6OnExitEv
_ZN13wxImageModule6OnInitEv
_ZN13wxImageModuleC1Ev
_ZN13wxImageModuleC2Ev
_ZN13wxImageModuleC5Ev
_ZN13wxImageModuleD0Ev
_ZN13wxImageModuleD1Ev
_ZN13wxImageModuleD2Ev
_ZN13wxImageModuleD5Ev
_ZN13wxInitializerC1EiPPc
_ZN13wxInitializerC2EiPPc
_ZN13wxInitializerC5EiPPc
_ZN13wxInitializerD1Ev
_ZN13wxInitializerD2Ev
_ZN13wxInitializerD5Ev
_ZN13wxInputStream15AllocSpaceWBackEm
_ZN13wxInputStream4GetCEv
_ZN13wxInputStream4PeekEv
_ZN13wxInputStream4ReadEPvm
_ZN13wxInputStream4ReadER14wxOutputStream
_ZN13wxInputStream5SeekIEl10wxSeekMode
_ZN13wxInputStream7UngetchEc
_ZN13wxInputStream7UngetchEPKvm
_ZN13wxInputStream8GetWBackEPvm
_ZN13wxInputStreamC1Ev
_ZN13wxInputStreamC2Ev
_ZN13wxInputStreamD0Ev
_ZN13wxInputStreamD1Ev
_ZN13wxInputStreamD2Ev
_ZN13wxIntegerHashaSERKS_
_ZN13wxIntegerHashC1Ev
_ZN13wxIntegerHashC2Ev
_ZN13wxIntegerHashC5Ev
_ZN13wxIPV4address10AnyAddressEv
_ZN13wxIPV4address12ms_classInfoE
_ZN13wxIPV4address12OrigHostnameEv
_ZN13wxIPV4address14wxCreateObjectEv
_ZN13wxIPV4address4TypeEv
_ZN13wxIPV4address7ServiceERK8wxString
_ZN13wxIPV4address7ServiceEt
_ZN13wxIPV4address8HostnameEm
_ZN13wxIPV4address8HostnameERK8wxString
_ZN13wxIPV4address9LocalHostEv
_ZN13wxIPV4addressaSERKS_
_ZN13wxIPV4addressC1ERKS_
_ZN13wxIPV4addressC1Ev
_ZN13wxIPV4addressC2ERKS_
_ZN13wxIPV4addressC2Ev
_ZN13wxIPV4addressD0Ev
_ZN13wxIPV4addressD1Ev
_ZN13wxIPV4addressD2Ev
_ZN13wxJPEGHandler12ms_classInfoE
_ZN13wxJPEGHandler14wxCreateObjectEv
_ZN13wxJPEGHandler8LoadFileEP7wxImageR13wxInputStreambi
_ZN13wxJPEGHandler8SaveFileEP7wxImageR14wxOutputStreamb
_ZN13wxJPEGHandler9DoCanReadER13wxInputStream
_ZN13wxJPEGHandlerC1Ev
_ZN13wxJPEGHandlerC2Ev
_ZN13wxJPEGHandlerC5Ev
_ZN13wxJPEGHandlerD0Ev
_ZN13wxJPEGHandlerD1Ev
_ZN13wxJPEGHandlerD2Ev
_ZN13wxJPEGHandlerD5Ev
_ZN13wxListBoxBase11DeselectAllEi
_ZN13wxListBoxBase11InsertItemsEjPK8wxStringj
_ZN13wxListBoxBase12SetFirstItemERK8wxString
_ZN13wxListBoxBase12SetSelectionEi
_ZN13wxListBoxBase12SetSelectionEib
_ZN13wxListBoxBase13EnsureVisibleEi
_ZN13wxListBoxBase18SetStringSelectionERK8wxString
_ZN13wxListBoxBase18SetStringSelectionERK8wxStringb
_ZN13wxListBoxBase22AppendAndEnsureVisibleERK8wxString
_ZN13wxListBoxBase3SetEiPK8wxStringPPv
_ZN13wxListBoxBase6InsertERK8wxStringj
_ZN13wxListBoxBase6InsertERK8wxStringjPv
_ZN13wxListBoxBase7CommandER14wxCommandEvent
_ZN13wxListBoxBase8DeselectEi
_ZN13wxListBoxBase8DoInsertERK8wxStringj
_ZN13wxListBoxBaseC1Ev
_ZN13wxListBoxBaseC2Ev
_ZN13wxListBoxBaseC5Ev
_ZN13wxListBoxBaseD0Ev
_ZN13wxListBoxBaseD1Ev
_ZN13wxListBoxBaseD2Ev
_ZN13wxLogTextCtrl11DoLogStringEPKcl
_ZN13wxLogTextCtrlC1EP10wxTextCtrl
_ZN13wxLogTextCtrlC2EP10wxTextCtrl
_ZN13wxLogTextCtrlD0Ev
_ZN13wxLogTextCtrlD1Ev
_ZN13wxLogTextCtrlD2Ev
_ZN13wxLogTextCtrlD5Ev
_ZN13wxMenuBarBase11UpdateMenusEv
_ZN13wxMenuBarBase13SetHelpStringEiRK8wxString
_ZN13wxMenuBarBase5CheckEib
_ZN13wxMenuBarBase6AppendEP6wxMenuRK8wxString
_ZN13wxMenuBarBase6AttachEP7wxFrame
_ZN13wxMenuBarBase6DetachEv
_ZN13wxMenuBarBase6EnableEb
_ZN13wxMenuBarBase6EnableEib
_ZN13wxMenuBarBase6InsertEmP6wxMenuRK8wxString
_ZN13wxMenuBarBase6RemoveEm
_ZN13wxMenuBarBase7ReplaceEmP6wxMenuRK8wxString
_ZN13wxMenuBarBase8SetLabelEiRK8wxString
_ZN13wxMenuBarBase8SetLabelERK8wxString
_ZN13wxMenuBarBaseC1Ev
_ZN13wxMenuBarBaseC2Ev
_ZN13wxMenuBarBaseD0Ev
_ZN13wxMenuBarBaseD1Ev
_ZN13wxMenuBarBaseD2Ev
_ZN13wxMutexLockerC1ER7wxMutex
_ZN13wxMutexLockerC2ER7wxMutex
_ZN13wxMutexLockerC5ER7wxMutex
_ZN13wxMutexLockerD1Ev
_ZN13wxMutexLockerD2Ev
_ZN13wxMutexLockerD5Ev
_ZN13wxNotifyEvent12ms_classInfoE
_ZN13wxNotifyEvent14wxCreateObjectEv
_ZN13wxNotifyEvent4VetoEv
_ZN13wxNotifyEvent5AllowEv
_ZN13wxNotifyEventC1Eii
_ZN13wxNotifyEventC1ERKS_
_ZN13wxNotifyEventC2Eii
_ZN13wxNotifyEventC2ERKS_
_ZN13wxNotifyEventC5Eii
_ZN13wxNotifyEventC5ERKS_
_ZN13wxNotifyEventD0Ev
_ZN13wxNotifyEventD1Ev
_ZN13wxNotifyEventD2Ev
_ZN13wxNotifyEventD5Ev
_ZN13wxOverlayImpl10EndDrawingEP10wxWindowDC
_ZN13wxOverlayImpl12BeginDrawingEP10wxWindowDC
_ZN13wxOverlayImpl4InitEP10wxWindowDCiiii
_ZN13wxOverlayImpl4IsOkEv
_ZN13wxOverlayImpl5ClearEP10wxWindowDC
_ZN13wxOverlayImpl5ResetEv
_ZN13wxOverlayImplC1Ev
_ZN13wxOverlayImplC2Ev
_ZN13wxOverlayImplD1Ev
_ZN13wxOverlayImplD2Ev
_ZN13wxPaletteBaseaSERKS_
_ZN13wxPaletteBaseC1ERKS_
_ZN13wxPaletteBaseC1Ev
_ZN13wxPaletteBaseC2ERKS_
_ZN13wxPaletteBaseC2Ev
_ZN13wxPaletteBaseC5ERKS_
_ZN13wxPaletteBaseC5Ev
_ZN13wxPaletteBaseD0Ev
_ZN13wxPaletteBaseD1Ev
_ZN13wxPaletteBaseD2Ev
_ZN13wxPaletteBaseD5Ev
_ZN13wxPointerHashC1Ev
_ZN13wxPointerHashC2Ev
_ZN13wxPointerHashC5Ev
_ZN13wxPopupWindow12DoMoveWindowEiiii
_ZN13wxPopupWindow12ms_classInfoE
_ZN13wxPopupWindow13sm_eventTableE
_ZN13wxPopupWindow14wxCreateObjectEv
_ZN13wxPopupWindow17sm_eventHashTableE
_ZN13wxPopupWindow20sm_eventTableEntriesE
_ZN13wxPopupWindow4ShowEb
_ZN13wxPopupWindow6CreateEP8wxWindowi
_ZN13wxPopupWindow9DoSetSizeEiiiii
_ZN13wxPopupWindowC1Ev
_ZN13wxPopupWindowC2Ev
_ZN13wxPopupWindowC5Ev
_ZN13wxPopupWindowD0Ev
_ZN13wxPopupWindowD1Ev
_ZN13wxPopupWindowD2Ev
_ZN13wxPrintDialog10GetPrintDCEv
_ZN13wxPrintDialog12GetPrintDataEv
_ZN13wxPrintDialog12ms_classInfoE
_ZN13wxPrintDialog18GetPrintDialogDataEv
_ZN13wxPrintDialog9ShowModalEv
_ZN13wxPrintDialogC1EP8wxWindowP11wxPrintData
_ZN13wxPrintDialogC1EP8wxWindowP17wxPrintDialogData
_ZN13wxPrintDialogC2EP8wxWindowP11wxPrintData
_ZN13wxPrintDialogC2EP8wxWindowP17wxPrintDialogData
_ZN13wxPrintDialogD0Ev
_ZN13wxPrintDialogD1Ev
_ZN13wxPrintDialogD2Ev
_ZN13wxPrinterBase10sm_abortItE
_ZN13wxPrinterBase11ReportErrorEP8wxWindowP10wxPrintoutRK8wxString
_ZN13wxPrinterBase12ms_classInfoE
_ZN13wxPrinterBase12sm_lastErrorE
_ZN13wxPrinterBase14sm_abortWindowE
_ZN13wxPrinterBase17CreateAbortWindowEP8wxWindowP10wxPrintout
_ZN13wxPrinterBaseC1EP17wxPrintDialogData
_ZN13wxPrinterBaseC2EP17wxPrintDialogData
_ZN13wxPrinterBaseD0Ev
_ZN13wxPrinterBaseD1Ev
_ZN13wxPrinterBaseD2Ev
_ZN13wxRadioButton10ClearValueEv
_ZN13wxRadioButton11ChangeValueEb
_ZN13wxRadioButton12ms_classInfoE
_ZN13wxRadioButton14wxCreateObjectEv
_ZN13wxRadioButton6CreateEP8wxWindowiRK8wxStringRK7wxPointRK6wxSizelRK11wxValidatorS4_
_ZN13wxRadioButton6DoDrawEP17wxControlRenderer
_ZN13wxRadioButton7OnCheckEv
_ZN13wxRadioButton9SendEventEv
_ZN13wxRadioButtonC1EP8wxWindowiRK8wxStringRK7wxPointRK6wxSizelRK11wxValidatorS4_
_ZN13wxRadioButtonC1Ev
_ZN13wxRadioButtonC2EP8wxWindowiRK8wxStringRK7wxPointRK6wxSizelRK11wxValidatorS4_
_ZN13wxRadioButtonC2Ev
_ZN13wxRadioButtonC5EP8wxWindowiRK8wxStringRK7wxPointRK6wxSizelRK11wxValidatorS4_
_ZN13wxRadioButtonC5Ev
_ZN13wxRadioButtonD0Ev
_ZN13wxRadioButtonD1Ev
_ZN13wxRadioButtonD2Ev
_ZN13wxRadioButtonD5Ev
_ZN13wxRendererPtr3GetEv
_ZN13wxRendererPtr4IsOkEv
_ZN13wxRendererPtr6DoInitEv
_ZN13wxRendererPtrC1Ev
_ZN13wxRendererPtrC2Ev
_ZN13wxRendererPtrC5Ev
_ZN13wxRendererPtrD1Ev
_ZN13wxRendererPtrD2Ev
_ZN13wxRendererPtrD5Ev
_ZN13wxRichTextBox12ms_classInfoE
_ZN13wxRichTextBox14wxCreateObjectEv
_ZN13wxRichTextBox4CopyERKS_
_ZN13wxRichTextBox4DrawER4wxDCRK15wxRichTextRangeS4_RK6wxRectii
_ZN13wxRichTextBox6LayoutER4wxDCRK6wxRecti
_ZN13wxRichTextBoxC1EP16wxRichTextObject
_ZN13wxRichTextBoxC1ERKS_
_ZN13wxRichTextBoxC2EP16wxRichTextObject
_ZN13wxRichTextBoxC2ERKS_
_ZN13wxRichTextBoxC5ERKS_
_ZN13wxRichTextBoxD0Ev
_ZN13wxRichTextBoxD1Ev
_ZN13wxRichTextBoxD2Ev
_ZN13wxRichTextBoxD5Ev
_ZN13wxScrollEvent11SetPositionEi
_ZN13wxScrollEvent12ms_classInfoE
_ZN13wxScrollEvent14wxCreateObjectEv
_ZN13wxScrollEventC1Eiiii
_ZN13wxScrollEventC1ERKS_
_ZN13wxScrollEventC2Eiiii
_ZN13wxScrollEventC2ERKS_
_ZN13wxScrollEventC5ERKS_
_ZN13wxScrollEventD0Ev
_ZN13wxScrollEventD1Ev
_ZN13wxScrollEventD2Ev
_ZN13wxScrollEventD5Ev
_ZN13wxScrollThumbC1EP18wxControlWithThumb
_ZN13wxScrollThumbC2EP18wxControlWithThumb
_ZN13wxScrollThumbD1Ev
_ZN13wxScrollThumbD2Ev
_ZN13wxScrollTimer15StartAutoScrollEv
_ZN13wxScrollTimer6NotifyEv
_ZN13wxScrollTimerC1Ev
_ZN13wxScrollTimerC2Ev
_ZN13wxScrollTimerD0Ev
_ZN13wxScrollTimerD1Ev
_ZN13wxScrollTimerD2Ev
_ZN13wxScrollTimerD5Ev
_ZN13wxSizerSpacer4ShowEb
_ZN13wxSizerSpacer7SetSizeERK6wxSize
_ZN13wxSizerSpacerC1ERK6wxSize
_ZN13wxSizerSpacerC2ERK6wxSize
_ZN13wxSizerSpacerC5ERK6wxSize
_ZN13wxSockAddress10SetAddressEP9_GAddress
_ZN13wxSockAddress12ms_classInfoE
_ZN13wxSockAddress4InitEv
_ZN13wxSockAddress5ClearEv
_ZN13wxSockAddressaSERKS_
_ZN13wxSockAddressC1ERKS_
_ZN13wxSockAddressC1Ev
_ZN13wxSockAddressC2ERKS_
_ZN13wxSockAddressC2Ev
_ZN13wxSockAddressD0Ev
_ZN13wxSockAddressD1Ev
_ZN13wxSockAddressD2Ev
_ZN13wxSocketEvent12ms_classInfoE
_ZN13wxSocketEvent14wxCreateObjectEv
_ZN13wxSocketEventC1Ei
_ZN13wxSocketEventC1ERKS_
_ZN13wxSocketEventC2Ei
_ZN13wxSocketEventC2ERKS_
_ZN13wxSocketEventC5Ei
_ZN13wxSocketEventC5ERKS_
_ZN13wxSocketEventD0Ev
_ZN13wxSocketEventD1Ev
_ZN13wxSocketEventD2Ev
_ZN13wxSocketEventD5Ev
_ZN13wxSocketStateC1Ev
_ZN13wxSocketStateC2Ev
_ZN13wxSocketStateC5Ev
_ZN13wxSocketStateD0Ev
_ZN13wxSocketStateD1Ev
_ZN13wxSocketStateD2Ev
_ZN13wxSocketStateD5Ev
_ZN13wxStackWalker10GetExePathEv
_ZN13wxStackWalker10InitFramesEP12wxStackFramemPPvPPc
_ZN13wxStackWalker10ms_exepathE
_ZN13wxStackWalker10ms_symbolsE
_ZN13wxStackWalker12ms_addressesE
_ZN13wxStackWalker13ProcessFramesEm
_ZN13wxStackWalker17WalkFromExceptionEv
_ZN13wxStackWalker4WalkEmm
_ZN13wxStackWalker7m_depthE
_ZN13wxStackWalker9FreeStackEv
_ZN13wxStackWalker9SaveStackEm
_ZN13wxStackWalkerC1EPKc
_ZN13wxStackWalkerC2EPKc
_ZN13wxStackWalkerC5EPKc
_ZN13wxStackWalkerD0Ev
_ZN13wxStackWalkerD1Ev
_ZN13wxStackWalkerD2Ev
_ZN13wxStackWalkerD5Ev
_ZN13wxStdRenderer10AdjustSizeEP6wxSizePK8wxWindow
_ZN13wxStdRenderer10DrawBorderER4wxDC8wxBorderRK6wxRectiPS3_
_ZN13wxStdRenderer12DrawTextLineER4wxDCRK8wxStringRK6wxRectiii
_ZN13wxStdRenderer13DrawBoxBorderER4wxDCP6wxRect
_ZN13wxStdRenderer13DrawCheckItemER4wxDCRK8wxStringRK8wxBitmapRK6wxRecti
_ZN13wxStdRenderer13DrawFocusRectER4wxDCRK6wxRecti
_ZN13wxStdRenderer13DrawFrameIconER4wxDCRK6wxRectRK6wxIconi
_ZN13wxStdRenderer13DrawSolidRectER4wxDCRK8wxColourRK6wxRect
_ZN13wxStdRenderer14DrawBackgroundER4wxDCRK8wxColourRK6wxRectiP8wxWindow
_ZN13wxStdRenderer14DrawFrameTitleER4wxDCRK6wxRectRK8wxStringi
_ZN13wxStdRenderer14DrawShadedRectER4wxDCP6wxRectRK5wxPenS6_
_ZN13wxStdRenderer14DrawTextBorderER4wxDC8wxBorderRK6wxRectiPS3_
_ZN13wxStdRenderer15DrawButtonLabelER4wxDCRK8wxStringRK8wxBitmapRK6wxRectiiiPS8_
_ZN13wxStdRenderer15DrawCheckButtonER4wxDCRK8wxStringRK8wxBitmapRK6wxRecti11wxAlignmenti
_ZN13wxStdRenderer15DrawExtraBorderER4wxDCP6wxRect
_ZN13wxStdRenderer15DrawFrameBorderER4wxDCRK6wxRecti
_ZN13wxStdRenderer15DrawFrameButtonER4wxDCiiii
_ZN13wxStdRenderer15DrawRadioButtonER4wxDCRK8wxStringRK8wxBitmapRK6wxRecti11wxAlignmenti
_ZN13wxStdRenderer15DrawStatusFieldER4wxDCRK6wxRectRK8wxStringii
_ZN13wxStdRenderer16DrawLineWrapMarkER4wxDCRK6wxRect
_ZN13wxStdRenderer16DrawRaisedBorderER4wxDCP6wxRect
_ZN13wxStdRenderer16DrawScrollCornerER4wxDCRK6wxRect
_ZN13wxStdRenderer16DrawStaticBorderER4wxDCP6wxRect
_ZN13wxStdRenderer16DrawSunkenBorderER4wxDCP6wxRect
_ZN13wxStdRenderer16DrawVerticalLineER4wxDCiii
_ZN13wxStdRenderer17DrawButtonSurfaceER4wxDCRK8wxColourRK6wxRecti
_ZN13wxStdRenderer17DrawFrameTitleBarER4wxDCRK6wxRectRK8wxStringRK6wxIconiii
_ZN13wxStdRenderer17GetArrowDirectionE11wxDirection
_ZN13wxStdRenderer18DrawFrameWithLabelER4wxDCRK8wxStringRK6wxRectS7_iii
_ZN13wxStdRenderer18DrawHorizontalLineER4wxDCiii
_ZN13wxStdRenderer18DrawScrollbarArrowER4wxDC11wxDirectionRK6wxRecti
_ZN13wxStdRenderer19DrawCheckItemBitmapER4wxDCRK8wxBitmapRK6wxRecti
_ZN13wxStdRenderer19DrawFrameBackgroundER4wxDCRK6wxRecti
_ZN13wxStdRenderer20DrawAntiSunkenBorderER4wxDCP6wxRect
_ZN13wxStdRenderer20GetListboxItemHeightEi
_ZN13wxStdRenderer21DrawFrameWithoutLabelER4wxDCRK6wxRectS4_
_ZN13wxStdRenderer22DrawCheckOrRadioButtonER4wxDCRK8wxStringRK8wxBitmapRK6wxRecti11wxAlignmenti
_ZN13wxStdRenderer22GetIndicatorsFromFlagsEiRNS_14IndicatorStateERNS_15IndicatorStatusE
_ZN13wxStdRenderer8DrawItemER4wxDCRK8wxStringRK6wxRecti
_ZN13wxStdRenderer8DrawRectER4wxDCP6wxRectRK5wxPen
_ZN13wxStdRenderer9DrawFrameER4wxDCRK8wxStringRK6wxRectiii
_ZN13wxStdRenderer9DrawLabelER4wxDCRK8wxStringRK6wxRectiiiPS5_
_ZN13wxStdRendererC1EPK14wxColourScheme
_ZN13wxStdRendererC2EPK14wxColourScheme
_ZN13wxStdRendererD0Ev
_ZN13wxStdRendererD1Ev
_ZN13wxStdRendererD2Ev
_ZN13wxStdRendererD5Ev
_ZN13wxStringEqualC1Ev
_ZN13wxStringEqualC2Ev
_ZN13wxStringEqualC5Ev
_ZN13wxTaskBarIcon10RemoveIconEv
_ZN13wxTaskBarIcon12ms_classInfoE
_ZN13wxTaskBarIcon14wxCreateObjectEv
_ZN13wxTaskBarIcon7SetIconERK6wxIconRK8wxString
_ZN13wxTaskBarIcon9OnDestroyER20wxWindowDestroyEvent
_ZN13wxTaskBarIcon9PopupMenuEP6wxMenu
_ZN13wxTaskBarIconC1Ev
_ZN13wxTaskBarIconC2Ev
_ZN13wxTaskBarIconD0Ev
_ZN13wxTaskBarIconD1Ev
_ZN13wxTaskBarIconD2Ev
_ZN13wxTextWrapper12DoOutputLineERK8wxString
_ZN13wxTextWrapper16IsStartOfNewLineEv
_ZN13wxTextWrapper4WrapEP8wxWindowRK8wxStringi
_ZN13wxTextWrapper9OnNewLineEv
_ZN13wxTextWrapperC1Ev
_ZN13wxTextWrapperC2Ev
_ZN13wxTextWrapperC5Ev
_ZN13wxTextWrapperD0Ev
_ZN13wxTextWrapperD1Ev
_ZN13wxTextWrapperD2Ev
_ZN13wxTextWrapperD5Ev
_ZN13wxTIFFHandler12ms_classInfoE
_ZN13wxTIFFHandler13GetImageCountER13wxInputStream
_ZN13wxTIFFHandler14wxCreateObjectEv
_ZN13wxTIFFHandler8LoadFileEP7wxImageR13wxInputStreambi
_ZN13wxTIFFHandler8SaveFileEP7wxImageR14wxOutputStreamb
_ZN13wxTIFFHandler9DoCanReadER13wxInputStream
_ZN13wxTIFFHandlerC1Ev
_ZN13wxTIFFHandlerC2Ev
_ZN13wxTIFFHandlerD0Ev
_ZN13wxTIFFHandlerD1Ev
_ZN13wxTIFFHandlerD2Ev
_ZN13wxTIFFHandlerD5Ev
_ZN13wxTimerModule12ms_classInfoE
_ZN13wxTimerModule14wxCreateObjectEv
_ZN13wxTimerModule6OnExitEv
_ZN13wxTimerModule6OnInitEv
_ZN13wxTimerModuleC1Ev
_ZN13wxTimerModuleC2Ev
_ZN13wxTimerModuleC5Ev
_ZN13wxTimerModuleD0Ev
_ZN13wxTimerModuleD1Ev
_ZN13wxTimerModuleD2Ev
_ZN13wxTimerModuleD5Ev
_ZN13wxTipProvider13PreprocessTipERK8wxString
_ZN13wxTipProviderC1Em
_ZN13wxTipProviderC2Em
_ZN13wxTipProviderC5Em
_ZN13wxTipProviderD0Ev
_ZN13wxTipProviderD1Ev
_ZN13wxTipProviderD2Ev
_ZN13wxTipProviderD5Ev
_ZN13wxToolBarBase10AddControlEP9wxControl
_ZN13wxToolBarBase10ClearToolsEv
_ZN13wxToolBarBase10DeleteToolEi
_ZN13wxToolBarBase10EnableToolEib
_ZN13wxToolBarBase10FixupStyleEv
_ZN13wxToolBarBase10InsertToolEmiRK8wxStringRK8wxBitmapS5_10wxItemKindS2_S2_P8wxObject
_ZN13wxToolBarBase10InsertToolEmP17wxToolBarToolBase
_ZN13wxToolBarBase10RemoveToolEi
_ZN13wxToolBarBase10SetMarginsEii
_ZN13wxToolBarBase10ToggleToolEib
_ZN13wxToolBarBase11FindControlEi
_ZN13wxToolBarBase11OnLeftClickEib
_ZN13wxToolBarBase12AddRadioToolEiRK8wxStringRK8wxBitmapS5_S2_S2_P8wxObject
_ZN13wxToolBarBase12AddSeparatorEv
_ZN13wxToolBarBase12OnMouseEnterEi
_ZN13wxToolBarBase12OnRightClickEill
_ZN13wxToolBarBase13InsertControlEmP9wxControl
_ZN13wxToolBarBase13sm_eventTableE
_ZN13wxToolBarBase14SetToolPackingEi
_ZN13wxToolBarBase14UpdateWindowUIEl
_ZN13wxToolBarBase15DeleteToolByPosEm
_ZN13wxToolBarBase15InsertSeparatorEm
_ZN13wxToolBarBase15SetToolLongHelpEiRK8wxString
_ZN13wxToolBarBase16SetToolShortHelpEiRK8wxString
_ZN13wxToolBarBase17SetToolBitmapSizeERK6wxSize
_ZN13wxToolBarBase17SetToolClientDataEiP8wxObject
_ZN13wxToolBarBase17SetToolSeparationEi
_ZN13wxToolBarBase17sm_eventHashTableE
_ZN13wxToolBarBase18UnToggleRadioGroupEP17wxToolBarToolBase
_ZN13wxToolBarBase20sm_eventTableEntriesE
_ZN13wxToolBarBase7AddToolEiRK8wxBitmapS2_biiP8wxObjectRK8wxStringS7_
_ZN13wxToolBarBase7AddToolEiRK8wxStringRK8wxBitmapS5_10wxItemKindS2_S2_P8wxObject
_ZN13wxToolBarBase7AddToolEP17wxToolBarToolBase
_ZN13wxToolBarBase7RealizeEv
_ZN13wxToolBarBase7SetRowsEi
_ZN13wxToolBarBase9DoAddToolEiRK8wxStringRK8wxBitmapS5_10wxItemKindS2_S2_P8wxObjectii
_ZN13wxToolBarBase9SetToggleEib
_ZN13wxToolBarBaseC1Ev
_ZN13wxToolBarBaseC2Ev
_ZN13wxToolBarBaseD0Ev
_ZN13wxToolBarBaseD1Ev
_ZN13wxToolBarBaseD2Ev
_ZN13wxToolBarTool12IsUnderMouseEv
_ZN13wxToolBarTool13SetUnderMouseEb
_ZN13wxToolBarTool6InvertEv
_ZN13wxToolBarToolC1EP9wxToolBariRK8wxStringRK8wxBitmapS7_10wxItemKindP8wxObjectS4_S4_
_ZN13wxToolBarToolC1EP9wxToolBarP9wxControl
_ZN13wxToolBarToolC2EP9wxToolBariRK8wxStringRK8wxBitmapS7_10wxItemKindP8wxObjectS4_S4_
_ZN13wxToolBarToolC2EP9wxToolBarP9wxControl
_ZN13wxToolBarToolC5EP9wxToolBariRK8wxStringRK8wxBitmapS7_10wxItemKindP8wxObjectS4_S4_
_ZN13wxToolBarToolC5EP9wxToolBarP9wxControl
_ZN13wxToolBarToolD0Ev
_ZN13wxToolBarToolD1Ev
_ZN13wxToolBarToolD2Ev
_ZN13wxToolBarToolD5Ev
_ZN13wxUNIXaddress12ms_classInfoE
_ZN13wxUNIXaddress14wxCreateObjectEv
_ZN13wxUNIXaddress4TypeEv
_ZN13wxUNIXaddress8FilenameERK8wxString
_ZN13wxUNIXaddress8FilenameEv
_ZN13wxUNIXaddressC1ERKS_
_ZN13wxUNIXaddressC1Ev
_ZN13wxUNIXaddressC2ERKS_
_ZN13wxUNIXaddressC2Ev
_ZN13wxUNIXaddressD0Ev
_ZN13wxUNIXaddressD1Ev
_ZN13wxUNIXaddressD2Ev
_ZN13wxVariantData12ms_classInfoE
_ZN13wxVariantData17GetValueClassInfoEv
_ZN13wxVariantData4ReadER8wxString
_ZN13wxVariantData4ReadERSi
_ZN13wxVariantData6DecRefEv
_ZN13wxVariantDataC1Ev
_ZN13wxVariantDataC2Ev
_ZN13wxVariantDataC5Ev
_ZN13wxVariantDataD0Ev
_ZN13wxVariantDataD1Ev
_ZN13wxVariantDataD2Ev
_ZN13wxVariantDataD5Ev
_ZN13wxWCharBuffer4dataEv
_ZN13wxWCharBufferaSERKS_
_ZN13wxWCharBufferC1Em
_ZN13wxWCharBufferC1EPKw
_ZN13wxWCharBufferC1ERKS_
_ZN13wxWCharBufferC2Em
_ZN13wxWCharBufferC2EPKw
_ZN13wxWCharBufferC2ERKS_
_ZN13wxWCharBufferC5Em
_ZN13wxWCharBufferC5EPKw
_ZN13wxWCharBufferC5ERKS_
_ZN13wxWCharBufferD1Ev
_ZN13wxWCharBufferD2Ev
_ZN13wxWCharBufferD5Ev
_ZN13wxWizardEvent12ms_classInfoE
_ZN13wxWizardEvent14wxCreateObjectEv
_ZN13wxWizardEventC1EiibP12wxWizardPage
_ZN13wxWizardEventC2EiibP12wxWizardPage
_ZN13wxWizardEventD0Ev
_ZN13wxWizardEventD1Ev
_ZN13wxWizardEventD2Ev
_ZN13wxWizardEventD5Ev
_ZN13wxWizardSizer11RecalcSizesEv
_ZN13wxWizardSizer11SiblingSizeEP11wxSizerItem
_ZN13wxWizardSizer15GetMaxChildSizeEv
_ZN13wxWizardSizer6InsertEmP11wxSizerItem
_ZN13wxWizardSizer7CalcMinEv
_ZN13wxWizardSizer9HidePagesEv
_ZN13wxWizardSizerC1EP8wxWizard
_ZN13wxWizardSizerC2EP8wxWizard
_ZN13wxWizardSizerD0Ev
_ZN13wxWizardSizerD1Ev
_ZN13wxWizardSizerD2Ev
_ZN13wxWizardSizerD5Ev
_ZN13wxXmlDocument10SetVersionERK8wxString
_ZN13wxXmlDocument12ms_classInfoE
_ZN13wxXmlDocument15SetFileEncodingERK8wxString
_ZN13wxXmlDocument4LoadER13wxInputStreamRK8wxStringi
_ZN13wxXmlDocument4LoadERK8wxStringS2_i
_ZN13wxXmlDocument6DoCopyERKS_
_ZN13wxXmlDocument7SetRootEP9wxXmlNode
_ZN13wxXmlDocumentaSERKS_
_ZN13wxXmlDocumentC1ER13wxInputStreamRK8wxString
_ZN13wxXmlDocumentC1ERK8wxStringS2_
_ZN13wxXmlDocumentC1ERKS_
_ZN13wxXmlDocumentC1Ev
_ZN13wxXmlDocumentC2ER13wxInputStreamRK8wxString
_ZN13wxXmlDocumentC2ERK8wxStringS2_
_ZN13wxXmlDocumentC2ERKS_
_ZN13wxXmlDocumentC2Ev
_ZN13wxXmlDocumentD0Ev
_ZN13wxXmlDocumentD1Ev
_ZN13wxXmlDocumentD2Ev
_ZN13wxXmlDocumentD5Ev
_ZN13wxXmlProperty7SetNextEPS_
_ZN13wxXmlProperty8SetValueERK8wxString
_ZN13wxXmlPropertyC1ERK8wxStringS2_PS_
_ZN13wxXmlPropertyC2ERK8wxStringS2_PS_
_ZN13wxXmlPropertyC5ERK8wxStringS2_PS_
_ZN13wxXmlPropertyD0Ev
_ZN13wxXmlPropertyD1Ev
_ZN13wxXmlPropertyD2Ev
_ZN13wxXmlPropertyD5Ev
_ZN13wxXmlResource10AddHandlerEP20wxXmlResourceHandler
_ZN13wxXmlResource10LoadBitmapERK8wxString
_ZN13wxXmlResource10LoadDialogEP8wxDialogP8wxWindowRK8wxString
_ZN13wxXmlResource10LoadDialogEP8wxWindowRK8wxString
_ZN13wxXmlResource10LoadObjectEP8wxObjectP8wxWindowRK8wxStringS6_
_ZN13wxXmlResource10LoadObjectEP8wxWindowRK8wxStringS4_
_ZN13wxXmlResource11LoadMenuBarEP8wxWindowRK8wxString
_ZN13wxXmlResource11LoadToolBarEP8wxWindowRK8wxString
_ZN13wxXmlResource11ms_instanceE
_ZN13wxXmlResource12FindResourceERK8wxStringS2_b
_ZN13wxXmlResource13ClearHandlersEv
_ZN13wxXmlResource13InsertHandlerEP20wxXmlResourceHandler
_ZN13wxXmlResource14DoFindResourceEP9wxXmlNodeRK8wxStringS4_b
_ZN13wxXmlResource15InitAllHandlersEv
_ZN13wxXmlResource15UpdateResourcesEv
_ZN13wxXmlResource16GetCurFileSystemEv
_ZN13wxXmlResource17CreateResFromNodeEP9wxXmlNodeP8wxObjectS3_P20wxXmlResourceHandler
_ZN13wxXmlResource18AddSubclassFactoryEP20wxXmlSubclassFactory
_ZN13wxXmlResource20AttachUnknownControlERK8wxStringP8wxWindowS4_
_ZN13wxXmlResource20ConvertFileNameToURLERK8wxString
_ZN13wxXmlResource20ms_subclassFactoriesE
_ZN13wxXmlResource3GetEv
_ZN13wxXmlResource3SetEPS_
_ZN13wxXmlResource4LoadERK8wxString
_ZN13wxXmlResource6UnloadERK8wxString
_ZN13wxXmlResource8GetXRCIDEPKci
_ZN13wxXmlResource8LoadIconERK8wxString
_ZN13wxXmlResource8LoadMenuERK8wxString
_ZN13wxXmlResource9IsArchiveERK8wxString
_ZN13wxXmlResource9LoadFrameEP7wxFrameP8wxWindowRK8wxString
_ZN13wxXmlResource9LoadFrameEP8wxWindowRK8wxString
_ZN13wxXmlResource9LoadPanelEP7wxPanelP8wxWindowRK8wxString
_ZN13wxXmlResource9LoadPanelEP8wxWindowRK8wxString
_ZN13wxXmlResource9SetDomainEPKc
_ZN13wxXmlResourceC1EiRK8wxString
_ZN13wxXmlResourceC1ERK8wxStringiS2_
_ZN13wxXmlResourceC2EiRK8wxString
_ZN13wxXmlResourceC2ERK8wxStringiS2_
_ZN13wxXmlResourceD0Ev
_ZN13wxXmlResourceD1Ev
_ZN13wxXmlResourceD2Ev
_ZN13wxXVisualInfo4InitEP9_XDisplayP11XVisualInfo
_ZN13wxXVisualInfoC1Ev
_ZN13wxXVisualInfoC2Ev
_ZN13wxXVisualInfoD1Ev
_ZN13wxXVisualInfoD2Ev
_ZN14AutoCheckTimer6NotifyEv
_ZN14AutoCheckTimerC1EP19wxDialUpManagerImpl
_ZN14AutoCheckTimerC2EP19wxDialUpManagerImpl
_ZN14AutoCheckTimerC5EP19wxDialUpManagerImpl
_ZN14AutoCheckTimerD0Ev
_ZN14AutoCheckTimerD1Ev
_ZN14AutoCheckTimerD2Ev
_ZN14AutoCheckTimerD5Ev
_ZN14FontWidthCache5ResetEv
_ZN14FontWidthCacheC1Ev
_ZN14FontWidthCacheC2Ev
_ZN14FontWidthCacheC5Ev
_ZN14FontWidthCacheD1Ev
_ZN14FontWidthCacheD2Ev
_ZN14FontWidthCacheD5Ev
_ZN14wxAccelRefDataC1ERKS_
_ZN14wxAccelRefDataC1Ev
_ZN14wxAccelRefDataC2ERKS_
_ZN14wxAccelRefDataC2Ev
_ZN14wxAccelRefDataC5ERKS_
_ZN14wxAccelRefDataC5Ev
_ZN14wxAccelRefDataD0Ev
_ZN14wxAccelRefDataD1Ev
_ZN14wxAccelRefDataD2Ev
_ZN14wxAccelRefDataD5Ev
_ZN14wxANIFrameInfoC1Eji
_ZN14wxANIFrameInfoC2Eji
_ZN14wxANIFrameInfoC5Eji
_ZN14wxArchiveEntry11SetNotifierER17wxArchiveNotifier
_ZN14wxArchiveEntry12ms_classInfoE
_ZN14wxArchiveEntry13UnsetNotifierEv
_ZN14wxArchiveEntryaSERKS_
_ZN14wxArchiveEntryC1ERKS_
_ZN14wxArchiveEntryC1Ev
_ZN14wxArchiveEntryC2ERKS_
_ZN14wxArchiveEntryC2Ev
_ZN14wxArchiveEntryC5ERKS_
_ZN14wxArchiveEntryC5Ev
_ZN14wxArchiveEntryD0Ev
_ZN14wxArchiveEntryD1Ev
_ZN14wxArchiveEntryD2Ev
_ZN14wxArchiveEntryD5Ev
_ZN14wxArrayOptions3AddEPK15wxCmdLineOption
_ZN14wxArrayOptions3AddERK15wxCmdLineOptionm
_ZN14wxArrayOptions5EmptyEv
_ZN14wxArrayOptions6DoCopyERKS_
_ZN14wxArrayOptions6InsertERK15wxCmdLineOptionmm
_ZN14wxArrayOptions7DoEmptyEv
_ZN14wxArrayOptions8RemoveAtEmm
_ZN14wxArrayOptionsaSERKS_
_ZN14wxArrayOptionsC1ERKS_
_ZN14wxArrayOptionsC1Ev
_ZN14wxArrayOptionsC2ERKS_
_ZN14wxArrayOptionsC2Ev
_ZN14wxArrayOptionsC5Ev
_ZN14wxArrayOptionsD1Ev
_ZN14wxArrayOptionsD2Ev
_ZN14wxArrayPtrVoid3AddEPvm
_ZN14wxArrayPtrVoid3endEv
_ZN14wxArrayPtrVoid4SortEPFiPPvS1_E
_ZN14wxArrayPtrVoid5beginEv
_ZN14wxArrayPtrVoid5eraseEPPvS1_
_ZN14wxArrayPtrVoid6insertEPPvmRKS0_
_ZN14wxArrayPtrVoid6insertEPPvRKS0_
_ZN14wxArrayPtrVoid6InsertEPvmm
_ZN14wxArrayPtrVoid7reserveEm
_ZN14wxArrayPtrVoid8RemoveAtEmm
_ZN14wxArrayPtrVoid9push_backERKPv
_ZN14wxArrayPtrVoidC1Ev
_ZN14wxArrayPtrVoidC2Ev
_ZN14wxArrayPtrVoidC5Ev
_ZN14wxArrayPtrVoidD1Ev
_ZN14wxArrayPtrVoidD2Ev
_ZN14wxArrayPtrVoidD5Ev
_ZN14wxAuiRectArray3AddERK6wxRectm
_ZN14wxAuiRectArray5EmptyEv
_ZN14wxAuiRectArray6DoCopyERKS_
_ZN14wxAuiRectArray6InsertERK6wxRectmm
_ZN14wxAuiRectArray7DoEmptyEv
_ZN14wxAuiRectArray8RemoveAtEmm
_ZN14wxAuiRectArrayaSERKS_
_ZN14wxAuiRectArrayC1ERKS_
_ZN14wxAuiRectArrayC1Ev
_ZN14wxAuiRectArrayC2ERKS_
_ZN14wxAuiRectArrayC2Ev
_ZN14wxAuiRectArrayC5Ev
_ZN14wxAuiRectArrayD1Ev
_ZN14wxAuiRectArrayD2Ev
_ZN14wxBaseArrayInt3AddEim
_ZN14wxBaseArrayInt3AddEiPFiPKvS1_E
_ZN14wxBaseArrayInt4GrowEm
_ZN14wxBaseArrayInt4SortEPFiPKvS1_E
_ZN14wxBaseArrayInt5AllocEm
_ZN14wxBaseArrayInt5beginEv
_ZN14wxBaseArrayInt5clearEv
_ZN14wxBaseArrayInt5ClearEv
_ZN14wxBaseArrayInt5EmptyEv
_ZN14wxBaseArrayInt6assignEmRKi
_ZN14wxBaseArrayInt6assignEPKiS1_
_ZN14wxBaseArrayInt6InsertEimm
_ZN14wxBaseArrayInt6insertEPiPKiS2_
_ZN14wxBaseArrayInt6insertEPiRKi
_ZN14wxBaseArrayInt6RemoveEi
_ZN14wxBaseArrayInt6ShrinkEv
_ZN14wxBaseArrayInt7ReallocEm
_ZN14wxBaseArrayInt7reserveEm
_ZN14wxBaseArrayInt8RemoveAtEmm
_ZN14wxBaseArrayInt8SetCountEmi
_ZN14wxBaseArrayInt9push_backERKi
_ZN14wxBaseArrayIntaSERKS_
_ZN14wxBaseArrayIntC1ERKS_
_ZN14wxBaseArrayIntC1Ev
_ZN14wxBaseArrayIntC2ERKS_
_ZN14wxBaseArrayIntC2Ev
_ZN14wxBaseArrayIntD1Ev
_ZN14wxBaseArrayIntD2Ev
_ZN14wxBitmapButton10OnSetFocusER12wxFocusEvent
_ZN14wxBitmapButton10SetCurrentEb
_ZN14wxBitmapButton10SetMarginsEii
_ZN14wxBitmapButton11OnKillFocusER12wxFocusEvent
_ZN14wxBitmapButton11OnSetBitmapEv
_ZN14wxBitmapButton12ChangeBitmapERK8wxBitmap
_ZN14wxBitmapButton12ms_classInfoE
_ZN14wxBitmapButton13sm_eventTableE
_ZN14wxBitmapButton14wxCreateObjectEv
_ZN14wxBitmapButton17sm_eventHashTableE
_ZN14wxBitmapButton20sm_eventTableEntriesE
_ZN14wxBitmapButton5PressEv
_ZN14wxBitmapButton6CreateEP8wxWindowiRK8wxBitmapRK7wxPointRK6wxSizelRK11wxValidatorRK8wxString
_ZN14wxBitmapButton6EnableEb
_ZN14wxBitmapButton7ReleaseEv
_ZN14wxBitmapButtonC1EP8wxWindowiRK8wxBitmapRK7wxPointRK6wxSizelRK11wxValidatorRK8wxString
_ZN14wxBitmapButtonC1Ev
_ZN14wxBitmapButtonC2EP8wxWindowiRK8wxBitmapRK7wxPointRK6wxSizelRK11wxValidatorRK8wxString
_ZN14wxBitmapButtonC2Ev
_ZN14wxBitmapButtonC5EP8wxWindowiRK8wxBitmapRK7wxPointRK6wxSizelRK11wxValidatorRK8wxString
_ZN14wxBitmapButtonC5Ev
_ZN14wxBitmapButtonD0Ev
_ZN14wxBitmapButtonD1Ev
_ZN14wxBitmapButtonD2Ev
_ZN14wxBitmapButtonD5Ev
_ZN14wxBookCtrlBase10DeletePageEm
_ZN14wxBookCtrlBase10InsertPageEmP8wxWindowRK8wxStringbi
_ZN14wxBookCtrlBase10RemovePageEm
_ZN14wxBookCtrlBase11SetPageSizeERK6wxSize
_ZN14wxBookCtrlBase12DoRemovePageEm
_ZN14wxBookCtrlBase12ms_classInfoE
_ZN14wxBookCtrlBase12SetImageListEP11wxImageList
_ZN14wxBookCtrlBase13sm_eventTableE
_ZN14wxBookCtrlBase14DeleteAllPagesEv
_ZN14wxBookCtrlBase14DoSetSelectionEmi
_ZN14wxBookCtrlBase15AssignImageListEP11wxImageList
_ZN14wxBookCtrlBase16MakeChangedEventER19wxBookCtrlBaseEvent
_ZN14wxBookCtrlBase17sm_eventHashTableE
_ZN14wxBookCtrlBase18UpdateSelectedPageEm
_ZN14wxBookCtrlBase19SetFitToCurrentPageEb
_ZN14wxBookCtrlBase20DoInvalidateBestSizeEv
_ZN14wxBookCtrlBase20sm_eventTableEntriesE
_ZN14wxBookCtrlBase4InitEv
_ZN14wxBookCtrlBase6CreateEP8wxWindowiRK7wxPointRK6wxSizelRK8wxString
_ZN14wxBookCtrlBase6DoSizeEv
_ZN14wxBookCtrlBase6OnHelpER11wxHelpEvent
_ZN14wxBookCtrlBase6OnSizeER11wxSizeEvent
_ZN14wxBookCtrlBase7AddPageEP8wxWindowRK8wxStringbi
_ZN14wxBookCtrlBase7GetPageEm
_ZN14wxBookCtrlBaseC1Ev
_ZN14wxBookCtrlBaseC2Ev
_ZN14wxBookCtrlBaseC5Ev
_ZN14wxBookCtrlBaseD0Ev
_ZN14wxBookCtrlBaseD1Ev
_ZN14wxBookCtrlBaseD2Ev
_ZN14wxBrushRefDataC1ERKS_
_ZN14wxBrushRefDataC1Ev
_ZN14wxBrushRefDataC2ERKS_
_ZN14wxBrushRefDataC2Ev
_ZN14wxBrushRefDataC5ERKS_
_ZN14wxBrushRefDataC5Ev
_ZN14wxBrushRefDataD0Ev
_ZN14wxBrushRefDataD1Ev
_ZN14wxBrushRefDataD2Ev
_ZN14wxBrushRefDataD5Ev
_ZN14wxCalendarCtrl10SetHolidayEm
_ZN14wxCalendarCtrl11InitColoursEv
_ZN14wxCalendarCtrl11RefreshDateERK10wxDateTime
_ZN14wxCalendarCtrl12DoMoveWindowEiiii
_ZN14wxCalendarCtrl12ms_classInfoE
_ZN14wxCalendarCtrl12OnYearChangeER14wxCommandEvent
_ZN14wxCalendarCtrl12SetDateRangeERK10wxDateTimeS2_
_ZN14wxCalendarCtrl13GenerateEventEi
_ZN14wxCalendarCtrl13OnMonthChangeER14wxCommandEvent
_ZN14wxCalendarCtrl13sm_eventTableE
_ZN14wxCalendarCtrl14GenerateEventsEii
_ZN14wxCalendarCtrl14HighlightRangeEP9wxPaintDCRK10wxDateTimeS4_PK5wxPenPK7wxBrush
_ZN14wxCalendarCtrl14RecalcGeometryEv
_ZN14wxCalendarCtrl14wxCreateObjectEv
_ZN14wxCalendarCtrl15SetHolidayAttrsEv
_ZN14wxCalendarCtrl16EnableYearChangeEb
_ZN14wxCalendarCtrl16OnYearTextChangeER14wxCommandEvent
_ZN14wxCalendarCtrl16SetDateAndNotifyERK10wxDateTime
_ZN14wxCalendarCtrl17EnableMonthChangeEb
_ZN14wxCalendarCtrl17ResetHolidayAttrsEv
_ZN14wxCalendarCtrl17SetLowerDateLimitERK10wxDateTime
_ZN14wxCalendarCtrl17SetUpperDateLimitERK10wxDateTime
_ZN14wxCalendarCtrl17sm_eventHashTableE
_ZN14wxCalendarCtrl18CreateYearSpinCtrlEv
_ZN14wxCalendarCtrl18OnSysColourChangedER23wxSysColourChangedEvent
_ZN14wxCalendarCtrl18SetUserChangedYearEv
_ZN14wxCalendarCtrl18SetWindowStyleFlagEl
_ZN14wxCalendarCtrl19CreateMonthComboBoxEv
_ZN14wxCalendarCtrl19ShowCurrentControlsEv
_ZN14wxCalendarCtrl20EnableHolidayDisplayEb
_ZN14wxCalendarCtrl20sm_eventTableEntriesE
_ZN14wxCalendarCtrl25GetClassDefaultAttributesE15wxWindowVariant
_ZN14wxCalendarCtrl4InitEv
_ZN14wxCalendarCtrl4ShowEb
_ZN14wxCalendarCtrl6CreateEP8wxWindowiRK10wxDateTimeRK7wxPointRK6wxSizelRK8wxString
_ZN14wxCalendarCtrl6EnableEb
_ZN14wxCalendarCtrl6OnCharER10wxKeyEvent
_ZN14wxCalendarCtrl7DestroyEv
_ZN14wxCalendarCtrl7HitTestERK7wxPointP10wxDateTimePNS3_7WeekDayE
_ZN14wxCalendarCtrl7OnClickER12wxMouseEvent
_ZN14wxCalendarCtrl7OnPaintER12wxPaintEvent
_ZN14wxCalendarCtrl7SetDateERK10wxDateTime
_ZN14wxCalendarCtrl8OnDClickER12wxMouseEvent
_ZN14wxCalendarCtrl9ChangeDayERK10wxDateTime
_ZN14wxCalendarCtrl9DoSetSizeEiiiii
_ZN14wxCalendarCtrlC1EP8wxWindowiRK10wxDateTimeRK7wxPointRK6wxSizelRK8wxString
_ZN14wxCalendarCtrlC1Ev
_ZN14wxCalendarCtrlC2EP8wxWindowiRK10wxDateTimeRK7wxPointRK6wxSizelRK8wxString
_ZN14wxCalendarCtrlC2Ev
_ZN14wxCalendarCtrlC5Ev
_ZN14wxCalendarCtrlD0Ev
_ZN14wxCalendarCtrlD1Ev
_ZN14wxCalendarCtrlD2Ev
_ZN14wxCaretSuspendC1EP8wxWindow
_ZN14wxCaretSuspendC2EP8wxWindow
_ZN14wxCaretSuspendC5EP8wxWindow
_ZN14wxCaretSuspendD1Ev
_ZN14wxCaretSuspendD2Ev
_ZN14wxCaretSuspendD5Ev
_ZN14wxCArrayString10GetStringsEv
_ZN14wxCArrayString7ReleaseEv
_ZN14wxCArrayStringC1ERK13wxArrayString
_ZN14wxCArrayStringC2ERK13wxArrayString
_ZN14wxCArrayStringC5ERK13wxArrayString
_ZN14wxCArrayStringD1Ev
_ZN14wxCArrayStringD2Ev
_ZN14wxCArrayStringD5Ev
_ZN14wxCheckBoxBase14Set3StateValueE15wxCheckBoxState
_ZN14wxCheckBoxBase16DoSet3StateValueE15wxCheckBoxState
_ZN14wxCheckBoxBase16DoUpdateWindowUIER15wxUpdateUIEvent
_ZN14wxCheckBoxBase24HasTransparentBackgroundEv
_ZN14wxCheckBoxBaseC1Ev
_ZN14wxCheckBoxBaseC2Ev
_ZN14wxCheckBoxBaseC5Ev
_ZN14wxCheckBoxBaseD0Ev
_ZN14wxCheckBoxBaseD1Ev
_ZN14wxCheckBoxBaseD2Ev
_ZN14wxCheckBoxBaseD5Ev
_ZN14wxCheckListBox10DoSetItemsERK13wxArrayStringPPv
_ZN14wxCheckListBox11DoDrawRangeEP17wxControlRendererii
_ZN14wxCheckListBox12ms_classInfoE
_ZN14wxCheckListBox13DoInsertItemsERK13wxArrayStringj
_ZN14wxCheckListBox13PerformActionERK8wxStringlS2_
_ZN14wxCheckListBox14wxCreateObjectEv
_ZN14wxCheckListBox18GetStdInputHandlerEP14wxInputHandler
_ZN14wxCheckListBox20DoGetStdInputHandlerEP14wxInputHandler
_ZN14wxCheckListBox4InitEv
_ZN14wxCheckListBox5CheckEjb
_ZN14wxCheckListBox6CreateEP8wxWindowiRK7wxPointRK6wxSizeiPK8wxStringlRK11wxValidatorRS9_
_ZN14wxCheckListBox6CreateEP8wxWindowiRK7wxPointRK6wxSizeRK13wxArrayStringlRK11wxValidatorRK8wxString
_ZN14wxCheckListBox6DeleteEj
_ZN14wxCheckListBox7DoClearEv
_ZN14wxCheckListBox8DoAppendERK8wxString
_ZN14wxCheckListBoxC1EP8wxWindowiRK7wxPointRK6wxSizeiPK8wxStringlRK11wxValidatorRS9_
_ZN14wxCheckListBoxC1EP8wxWindowiRK7wxPointRK6wxSizeRK13wxArrayStringlRK11wxValidatorRK8wxString
_ZN14wxCheckListBoxC1Ev
_ZN14wxCheckListBoxC2EP8wxWindowiRK7wxPointRK6wxSizeiPK8wxStringlRK11wxValidatorRS9_
_ZN14wxCheckListBoxC2EP8wxWindowiRK7wxPointRK6wxSizeRK13wxArrayStringlRK11wxValidatorRK8wxString
_ZN14wxCheckListBoxC2Ev
_ZN14wxCheckListBoxC5EP8wxWindowiRK7wxPointRK6wxSizeiPK8wxStringlRK11wxValidatorRS9_
_ZN14wxCheckListBoxC5Ev
_ZN14wxCheckListBoxD0Ev
_ZN14wxCheckListBoxD1Ev
_ZN14wxCheckListBoxD2Ev
_ZN14wxCheckListBoxD5Ev
_ZN14wxCmdLineParamC1ERK8wxString18wxCmdLineParamTypei
_ZN14wxCmdLineParamC1ERKS_
_ZN14wxCmdLineParamC2ERK8wxString18wxCmdLineParamTypei
_ZN14wxCmdLineParamC2ERKS_
_ZN14wxCmdLineParamC5ERK8wxString18wxCmdLineParamTypei
_ZN14wxCmdLineParamC5ERKS_
_ZN14wxCmdLineParamD1Ev
_ZN14wxCmdLineParamD2Ev
_ZN14wxCmdLineParamD5Ev
_ZN14wxColourSchemeC1Ev
_ZN14wxColourSchemeC2Ev
_ZN14wxColourSchemeC5Ev
_ZN14wxColourSchemeD0Ev
_ZN14wxColourSchemeD1Ev
_ZN14wxColourSchemeD2Ev
_ZN14wxColWidthInfoC1Eib
_ZN14wxColWidthInfoC2Eib
_ZN14wxColWidthInfoC5Eib
_ZN14wxComboBoxBase20SetInsertionPointEndEv
_ZN14wxComboBoxBase6RemoveEll
_ZN14wxComboBoxBaseC1Ev
_ZN14wxComboBoxBaseC2Ev
_ZN14wxComboBoxBaseC5Ev
_ZN14wxComboBoxBaseD0Ev
_ZN14wxComboBoxBaseD1Ev
_ZN14wxComboBoxBaseD2Ev
_ZN14wxComboBoxBaseD5Ev
_ZN14wxComboListBox10GetControlEv
_ZN14wxComboListBox12SetSelectionEi
_ZN14wxComboListBox13PerformActionERK8wxStringlS2_
_ZN14wxComboListBox13sm_eventTableE
_ZN14wxComboListBox14SetStringValueERK8wxString
_ZN14wxComboListBox15GetAdjustedSizeEiii
_ZN14wxComboListBox17sm_eventHashTableE
_ZN14wxComboListBox20sm_eventTableEntriesE
_ZN14wxComboListBox6CreateEP8wxWindow
_ZN14wxComboListBox7OnPopupEv
_ZN14wxComboListBox8OnLeftUpER12wxMouseEvent
_ZN14wxComboListBoxC1Ev
_ZN14wxComboListBoxC2Ev
_ZN14wxComboListBoxD0Ev
_ZN14wxComboListBoxD1Ev
_ZN14wxComboListBoxD2Ev
_ZN14wxCommandEvent12ms_classInfoE
_ZN14wxCommandEvent12SetExtraLongEl
_ZN14wxCommandEvent13SetClientDataEPv
_ZN14wxCommandEvent14wxCreateObjectEv
_ZN14wxCommandEvent15SetClientObjectEP12wxClientData
_ZN14wxCommandEvent6SetIntEi
_ZN14wxCommandEvent9SetStringERK8wxString
_ZN14wxCommandEventC1Eii
_ZN14wxCommandEventC1ERKS_
_ZN14wxCommandEventC2Eii
_ZN14wxCommandEventC2ERKS_
_ZN14wxCommandEventC5ERKS_
_ZN14wxCommandEventD0Ev
_ZN14wxCommandEventD1Ev
_ZN14wxCommandEventD2Ev
_ZN14wxCommandEventD5Ev
_ZN14wxDCPenChangerC1ER4wxDCRK5wxPen
_ZN14wxDCPenChangerC2ER4wxDCRK5wxPen
_ZN14wxDCPenChangerC5ER4wxDCRK5wxPen
_ZN14wxDCPenChangerD1Ev
_ZN14wxDCPenChangerD2Ev
_ZN14wxDCPenChangerD5Ev
_ZN14wxDirTraverser11OnOpenErrorERK8wxString
_ZN14wxDirTraverserC1Ev
_ZN14wxDirTraverserC2Ev
_ZN14wxDirTraverserC5Ev
_ZN14wxDirTraverserD0Ev
_ZN14wxDirTraverserD1Ev
_ZN14wxDirTraverserD2Ev
_ZN14wxDirTraverserD5Ev
_ZN14wxEventLoopPtrC1EP11wxEventLoop
_ZN14wxEventLoopPtrC2EP11wxEventLoop
_ZN14wxEventLoopPtrC5EP11wxEventLoop
_ZN14wxEventLoopPtrD1Ev
_ZN14wxEventLoopPtrD2Ev
_ZN14wxFileTypeImpl10SetCommandERK8wxStringS2_b
_ZN14wxFileTypeImpl11UnassociateEP10wxFileType
_ZN14wxFileTypeImpl13GetExtensionsER13wxArrayString
_ZN14wxFileTypeImpl14SetDefaultIconERK8wxStringi
_ZN14wxFileTypeImpl4InitEP22wxMimeTypesManagerImplm
_ZN14wxFileTypeImplC1Ev
_ZN14wxFileTypeImplC2Ev
_ZN14wxFileTypeImplC5Ev
_ZN14wxFileTypeImplD1Ev
_ZN14wxFileTypeImplD2Ev
_ZN14wxFileTypeImplD5Ev
_ZN14wxFileTypeInfoC1EPKcS1_S1_S1_z
_ZN14wxFileTypeInfoC1ERK13wxArrayString
_ZN14wxFileTypeInfoC1ERKS_
_ZN14wxFileTypeInfoC1Ev
_ZN14wxFileTypeInfoC2EPKcS1_S1_S1_z
_ZN14wxFileTypeInfoC2ERK13wxArrayString
_ZN14wxFileTypeInfoC2ERKS_
_ZN14wxFileTypeInfoC2Ev
_ZN14wxFileTypeInfoC5ERKS_
_ZN14wxFileTypeInfoC5Ev
_ZN14wxFileTypeInfoD1Ev
_ZN14wxFileTypeInfoD2Ev
_ZN14wxFileTypeInfoD5Ev
_ZN14wxGridBagSizer11GetItemSpanEm
_ZN14wxGridBagSizer11GetItemSpanEP7wxSizer
_ZN14wxGridBagSizer11GetItemSpanEP8wxWindow
_ZN14wxGridBagSizer11RecalcSizesEv
_ZN14wxGridBagSizer11SetItemSpanEmRK8wxGBSpan
_ZN14wxGridBagSizer11SetItemSpanEP7wxSizerRK8wxGBSpan
_ZN14wxGridBagSizer11SetItemSpanEP8wxWindowRK8wxGBSpan
_ZN14wxGridBagSizer12ms_classInfoE
_ZN14wxGridBagSizer13FindEmptyCellEv
_ZN14wxGridBagSizer15FindItemAtPointERK7wxPoint
_ZN14wxGridBagSizer15GetItemPositionEm
_ZN14wxGridBagSizer15GetItemPositionEP7wxSizer
_ZN14wxGridBagSizer15GetItemPositionEP8wxWindow
_ZN14wxGridBagSizer15SetItemPositionEmRK12wxGBPosition
_ZN14wxGridBagSizer15SetItemPositionEP7wxSizerRK12wxGBPosition
_ZN14wxGridBagSizer15SetItemPositionEP8wxWindowRK12wxGBPosition
_ZN14wxGridBagSizer16FindItemWithDataEPK8wxObject
_ZN14wxGridBagSizer17AdjustForOverflowEv
_ZN14wxGridBagSizer18FindItemAtPositionERK12wxGBPosition
_ZN14wxGridBagSizer20CheckForIntersectionEP13wxGBSizerItemS1_
_ZN14wxGridBagSizer20CheckForIntersectionERK12wxGBPositionRK8wxGBSpanP13wxGBSizerItem
_ZN14wxGridBagSizer3AddEiiiiiP8wxObject
_ZN14wxGridBagSizer3AddEiiRK12wxGBPositionRK8wxGBSpaniiP8wxObject
_ZN14wxGridBagSizer3AddEP11wxSizerItem
_ZN14wxGridBagSizer3AddEP13wxGBSizerItem
_ZN14wxGridBagSizer3AddEP7wxSizeriiiP8wxObject
_ZN14wxGridBagSizer3AddEP7wxSizerRK12wxGBPositionRK8wxGBSpaniiP8wxObject
_ZN14wxGridBagSizer3AddEP8wxWindowiiiP8wxObject
_ZN14wxGridBagSizer3AddEP8wxWindowRK12wxGBPositionRK8wxGBSpaniiP8wxObject
_ZN14wxGridBagSizer6InsertEmiiiiiP8wxObject
_ZN14wxGridBagSizer6InsertEmP11wxSizerItem
_ZN14wxGridBagSizer6InsertEmP7wxSizeriiiP8wxObject
_ZN14wxGridBagSizer6InsertEmP8wxWindowiiiP8wxObject
_ZN14wxGridBagSizer7CalcMinEv
_ZN14wxGridBagSizer7PrependEiiiiiP8wxObject
_ZN14wxGridBagSizer7PrependEP11wxSizerItem
_ZN14wxGridBagSizer7PrependEP7wxSizeriiiP8wxObject
_ZN14wxGridBagSizer7PrependEP8wxWindowiiiP8wxObject
_ZN14wxGridBagSizer8FindItemEP7wxSizer
_ZN14wxGridBagSizer8FindItemEP8wxWindow
_ZN14wxGridBagSizerC1Eii
_ZN14wxGridBagSizerC2Eii
_ZN14wxGridBagSizerD0Ev
_ZN14wxGridBagSizerD1Ev
_ZN14wxGridBagSizerD2Ev
_ZN14wxGridBagSizerD5Ev
_ZN14wxGridCellAttr10SetDefAttrEPS_
_ZN14wxGridCellAttr11SetOverflowEb
_ZN14wxGridCellAttr11SetReadOnlyEb
_ZN14wxGridCellAttr11SetRendererEP18wxGridCellRenderer
_ZN14wxGridCellAttr12SetAlignmentEii
_ZN14wxGridCellAttr13SetTextColourERK8wxColour
_ZN14wxGridCellAttr19SetBackgroundColourERK8wxColour
_ZN14wxGridCellAttr4InitEPS_
_ZN14wxGridCellAttr6DecRefEv
_ZN14wxGridCellAttr6IncRefEv
_ZN14wxGridCellAttr7SetFontERK6wxFont
_ZN14wxGridCellAttr7SetKindENS_10wxAttrKindE
_ZN14wxGridCellAttr7SetSizeEii
_ZN14wxGridCellAttr9MergeWithEPS_
_ZN14wxGridCellAttr9SetEditorEP16wxGridCellEditor
_ZN14wxGridCellAttrC1EPS_
_ZN14wxGridCellAttrC2EPS_
_ZN14wxGridCellAttrC5EPS_
_ZN14wxGridCellAttrD0Ev
_ZN14wxGridCellAttrD1Ev
_ZN14wxGridCellAttrD2Ev
_ZN14wxGridCellAttrD5Ev
_ZN14wxGUIAppTraits12WaitForChildER13wxExecuteData
_ZN14wxGUIAppTraits20CreateEndProcessPipeER13wxExecuteData
_ZN14wxGUIAppTraits25IsWriteFDOfEndProcessPipeER13wxExecuteDatai
_ZN14wxGUIAppTraits29DetachWriteFDOfEndProcessPipeER13wxExecuteData
_ZN14wxGUIAppTraitsC1Ev
_ZN14wxGUIAppTraitsC2Ev
_ZN14wxGUIAppTraitsC5Ev
_ZN14wxGUIAppTraitsD0Ev
_ZN14wxGUIAppTraitsD1Ev
_ZN14wxGUIAppTraitsD2Ev
_ZN14wxGUIAppTraitsD5Ev
_ZN14wxHelpProvider10RemoveHelpEP12wxWindowBase
_ZN14wxHelpProvider15ms_helpProviderE
_ZN14wxHelpProvider15ShowHelpAtPointEP12wxWindowBaseRK7wxPointN11wxHelpEvent6OriginE
_ZN14wxHelpProvider23GetHelpTextMaybeAtPointEP12wxWindowBase
_ZN14wxHelpProvider3GetEv
_ZN14wxHelpProvider3SetEPS_
_ZN14wxHelpProvider7AddHelpEiRK8wxString
_ZN14wxHelpProvider7AddHelpEP12wxWindowBaseRK8wxString
_ZN14wxHelpProvider8ShowHelpEP12wxWindowBase
_ZN14wxHelpProviderC1Ev
_ZN14wxHelpProviderC2Ev
_ZN14wxHelpProviderC5Ev
_ZN14wxHelpProviderD0Ev
_ZN14wxHelpProviderD1Ev
_ZN14wxHelpProviderD2Ev
_ZN14wxHtmlFontCell12ms_classInfoE
_ZN14wxHtmlFontCell13DrawInvisibleER4wxDCiiR19wxHtmlRenderingInfo
_ZN14wxHtmlFontCell4DrawER4wxDCiiiiR19wxHtmlRenderingInfo
_ZN14wxHtmlFontCellC1EP6wxFont
_ZN14wxHtmlFontCellC2EP6wxFont
_ZN14wxHtmlFontCellC5EP6wxFont
_ZN14wxHtmlFontCellD0Ev
_ZN14wxHtmlFontCellD1Ev
_ZN14wxHtmlFontCellD2Ev
_ZN14wxHtmlFontCellD5Ev
_ZN14wxHtmlHelpData10SetTempDirERK8wxString
_ZN14wxHtmlHelpData12AddBookParamERK8wxFSFile14wxFontEncodingRK8wxStringS6_S6_S6_S6_
_ZN14wxHtmlHelpData12FindPageByIdEi
_ZN14wxHtmlHelpData12ms_classInfoE
_ZN14wxHtmlHelpData13LoadMSProjectEP16wxHtmlBookRecordR12wxFileSystemRK8wxStringS6_
_ZN14wxHtmlHelpData14FindPageByNameERK8wxString
_ZN14wxHtmlHelpData14LoadCachedBookEP16wxHtmlBookRecordP13wxInputStream
_ZN14wxHtmlHelpData14SaveCachedBookEP16wxHtmlBookRecordP14wxOutputStream
_ZN14wxHtmlHelpData14wxCreateObjectEv
_ZN14wxHtmlHelpData7AddBookERK8wxString
_ZN14wxHtmlHelpDataC1Ev
_ZN14wxHtmlHelpDataC2Ev
_ZN14wxHtmlHelpDataD0Ev
_ZN14wxHtmlHelpDataD1Ev
_ZN14wxHtmlHelpDataD2Ev
_ZN14wxHtmlLineCell4DrawER4wxDCiiiiR19wxHtmlRenderingInfo
_ZN14wxHtmlLineCell6LayoutEi
_ZN14wxHtmlLineCellC1Eib
_ZN14wxHtmlLineCellC2Eib
_ZN14wxHtmlLineCellC5Eib
_ZN14wxHtmlLineCellD0Ev
_ZN14wxHtmlLineCellD1Ev
_ZN14wxHtmlLineCellD2Ev
_ZN14wxHtmlLineCellD5Ev
_ZN14wxHtmlLinkInfo11SetHtmlCellEPK10wxHtmlCell
_ZN14wxHtmlLinkInfo8SetEventEPK12wxMouseEvent
_ZN14wxHtmlLinkInfoaSERKS_
_ZN14wxHtmlLinkInfoC1ERK8wxStringS2_
_ZN14wxHtmlLinkInfoC1ERKS_
_ZN14wxHtmlLinkInfoC1Ev
_ZN14wxHtmlLinkInfoC2ERK8wxStringS2_
_ZN14wxHtmlLinkInfoC2ERKS_
_ZN14wxHtmlLinkInfoC2Ev
_ZN14wxHtmlLinkInfoC5ERK8wxStringS2_
_ZN14wxHtmlLinkInfoC5ERKS_
_ZN14wxHtmlLinkInfoC5Ev
_ZN14wxHtmlLinkInfoD0Ev
_ZN14wxHtmlLinkInfoD1Ev
_ZN14wxHtmlLinkInfoD2Ev
_ZN14wxHtmlLinkInfoD5Ev
_ZN14wxHtmlListCell11ReallocRowsEi
_ZN14wxHtmlListCell14ComputeMaxBaseEP10wxHtmlCell
_ZN14wxHtmlListCell19ComputeMinMaxWidthsEv
_ZN14wxHtmlListCell6AddRowEP19wxHtmlContainerCellS1_
_ZN14wxHtmlListCell6LayoutEi
_ZN14wxHtmlListCellC1EP19wxHtmlContainerCell
_ZN14wxHtmlListCellC2EP19wxHtmlContainerCell
_ZN14wxHtmlListCellD0Ev
_ZN14wxHtmlListCellD1Ev
_ZN14wxHtmlListCellD2Ev
_ZN14wxHtmlPrintout10CountPagesEv
_ZN14wxHtmlPrintout10RenderPageEP4wxDCi
_ZN14wxHtmlPrintout10SetMarginsEfffff
_ZN14wxHtmlPrintout11GetPageInfoEPiS0_S0_S0_
_ZN14wxHtmlPrintout11OnPrintPageEi
_ZN14wxHtmlPrintout11SetHtmlFileERK8wxString
_ZN14wxHtmlPrintout11SetHtmlTextERK8wxStringS2_b
_ZN14wxHtmlPrintout14CleanUpStaticsEv
_ZN14wxHtmlPrintout15OnBeginDocumentEii
_ZN14wxHtmlPrintout15TranslateHeaderERK8wxStringi
_ZN14wxHtmlPrintout16SetStandardFontsEiRK8wxStringS2_
_ZN14wxHtmlPrintout17OnPreparePrintingEv
_ZN14wxHtmlPrintout7HasPageEi
_ZN14wxHtmlPrintout8SetFontsERK8wxStringS2_PKi
_ZN14wxHtmlPrintout9AddFilterEP12wxHtmlFilter
_ZN14wxHtmlPrintout9m_FiltersE
_ZN14wxHtmlPrintout9SetFooterERK8wxStringi
_ZN14wxHtmlPrintout9SetHeaderERK8wxStringi
_ZN14wxHtmlPrintoutC1ERK8wxString
_ZN14wxHtmlPrintoutC2ERK8wxString
_ZN14wxHtmlPrintoutD0Ev
_ZN14wxHtmlPrintoutD1Ev
_ZN14wxHtmlPrintoutD2Ev
_ZN14wxHtmlWordCell12ms_classInfoE
_ZN14wxHtmlWordCell15SetPreviousWordEPS_
_ZN14wxHtmlWordCell4DrawER4wxDCiiiiR19wxHtmlRenderingInfo
_ZN14wxHtmlWordCellC1ERK8wxStringRK4wxDC
_ZN14wxHtmlWordCellC2ERK8wxStringRK4wxDC
_ZN14wxHtmlWordCellD0Ev
_ZN14wxHtmlWordCellD1Ev
_ZN14wxHtmlWordCellD2Ev
_ZN14wxHtmlWordCellD5Ev
_ZN14wxIconizeEvent12ms_classInfoE
_ZN14wxIconizeEvent14wxCreateObjectEv
_ZN14wxIconizeEventC1Eib
_ZN14wxIconizeEventC1ERKS_
_ZN14wxIconizeEventC2Eib
_ZN14wxIconizeEventC2ERKS_
_ZN14wxIconizeEventC5Eib
_ZN14wxIconizeEventC5ERKS_
_ZN14wxIconizeEventD0Ev
_ZN14wxIconizeEventD1Ev
_ZN14wxIconizeEventD2Ev
_ZN14wxIconizeEventD5Ev
_ZN14wxIconLocationC1ERK8wxString
_ZN14wxIconLocationC2ERK8wxString
_ZN14wxIconLocationC5ERK8wxString
_ZN14wxIconLocationD1Ev
_ZN14wxIconLocationD2Ev
_ZN14wxIconLocationD5Ev
_ZN14wxImageHandler12ms_classInfoE
_ZN14wxImageHandler13CallDoCanReadER13wxInputStream
_ZN14wxImageHandler13GetImageCountER13wxInputStream
_ZN14wxImageHandler7CanReadER13wxInputStream
_ZN14wxImageHandler7CanReadERK8wxString
_ZN14wxImageHandler8LoadFileEP7wxImageR13wxInputStreambi
_ZN14wxImageHandler8SaveFileEP7wxImageR14wxOutputStreamb
_ZN14wxImageHandlerC1Ev
_ZN14wxImageHandlerC2Ev
_ZN14wxImageHandlerC5Ev
_ZN14wxImageHandlerD0Ev
_ZN14wxImageHandlerD1Ev
_ZN14wxImageHandlerD2Ev
_ZN14wxImageHandlerD5Ev
_ZN14wxImageRefDataC1Ev
_ZN14wxImageRefDataC2Ev
_ZN14wxImageRefDataD0Ev
_ZN14wxImageRefDataD1Ev
_ZN14wxImageRefDataD2Ev
_ZN14wxInputHandler11HandleFocusEP15wxInputConsumerRK12wxFocusEvent
_ZN14wxInputHandler15HandleMouseMoveEP15wxInputConsumerRK12wxMouseEvent
_ZN14wxInputHandler16HandleActivationEP15wxInputConsumerb
_ZN14wxInputHandlerC1Ev
_ZN14wxInputHandlerC2Ev
_ZN14wxInputHandlerC5Ev
_ZN14wxInputHandlerD0Ev
_ZN14wxInputHandlerD1Ev
_ZN14wxInputHandlerD2Ev
_ZN14wxIntegerEqualaSERKS_
_ZN14wxIntegerEqualC1Ev
_ZN14wxIntegerEqualC2Ev
_ZN14wxIntegerEqualC5Ev
_ZN14wxLabelWrapper12OnOutputLineERK8wxString
_ZN14wxLabelWrapper9OnNewLineEv
_ZN14wxLabelWrapper9WrapLabelEP8wxWindowi
_ZN14wxLabelWrapperC1Ev
_ZN14wxLabelWrapperC2Ev
_ZN14wxLabelWrapperC5Ev
_ZN14wxLabelWrapperD0Ev
_ZN14wxLabelWrapperD1Ev
_ZN14wxLabelWrapperD2Ev
_ZN14wxLabelWrapperD5Ev
_ZN14wxLanguageInfoC1ERKS_
_ZN14wxLanguageInfoC1Ev
_ZN14wxLanguageInfoC2ERKS_
_ZN14wxLanguageInfoC2Ev
_ZN14wxLanguageInfoC5ERKS_
_ZN14wxLanguageInfoC5Ev
_ZN14wxLanguageInfoD1Ev
_ZN14wxLanguageInfoD2Ev
_ZN14wxLanguageInfoD5Ev
_ZN14wxListItemAttr10AssignFromERKS_
_ZN14wxListItemAttr13SetTextColourERK8wxColour
_ZN14wxListItemAttr19SetBackgroundColourERK8wxColour
_ZN14wxListItemAttr7SetFontERK6wxFont
_ZN14wxListItemAttrC1ERKS_
_ZN14wxListItemAttrC1Ev
_ZN14wxListItemAttrC2ERKS_
_ZN14wxListItemAttrC2Ev
_ZN14wxListItemAttrC5ERKS_
_ZN14wxListItemAttrC5Ev
_ZN14wxListItemAttrD1Ev
_ZN14wxListItemAttrD2Ev
_ZN14wxListItemAttrD5Ev
_ZN14wxListItemData11SetPositionEii
_ZN14wxListItemData4InitEv
_ZN14wxListItemData7SetAttrEP14wxListItemAttr
_ZN14wxListItemData7SetItemERK10wxListItem
_ZN14wxListItemData7SetSizeEii
_ZN14wxListItemData7SetTextERK8wxString
_ZN14wxListItemData8SetImageEi
_ZN14wxListItemDataC1EP16wxListMainWindow
_ZN14wxListItemDataC2EP16wxListMainWindow
_ZN14wxListItemDataD1Ev
_ZN14wxListItemDataD2Ev
_ZN14wxListLineData11SetPositionEiii
_ZN14wxListLineData12GeometryInfo11ExtendWidthEi
_ZN14wxListLineData12GeometryInfoC1Ev
_ZN14wxListLineData12GeometryInfoC2Ev
_ZN14wxListLineData12GeometryInfoC5Ev
_ZN14wxListLineData13CalculateSizeEP4wxDCi
_ZN14wxListLineData13SetAttributesEP4wxDCPK14wxListItemAttrb
_ZN14wxListLineData16DrawInReportModeEP4wxDCRK6wxRectS4_b
_ZN14wxListLineData16ReverseHighlightEv
_ZN14wxListLineData17DrawTextFormattedEP4wxDCRK8wxStringiiii
_ZN14wxListLineData4DrawEP4wxDC
_ZN14wxListLineData7GetItemEiR10wxListItem
_ZN14wxListLineData7SetAttrEP14wxListItemAttr
_ZN14wxListLineData7SetItemEiRK10wxListItem
_ZN14wxListLineData7SetTextEiRK8wxString
_ZN14wxListLineData8SetImageEii
_ZN14wxListLineData9HighlightEb
_ZN14wxListLineData9InitItemsEi
_ZN14wxListLineDataC1EP16wxListMainWindow
_ZN14wxListLineDataC1ERKS_
_ZN14wxListLineDataC2EP16wxListMainWindow
_ZN14wxListLineDataC2ERKS_
_ZN14wxListLineDataC5ERKS_
_ZN14wxListLineDataD1Ev
_ZN14wxListLineDataD2Ev
_ZN14wxListLineDataD5Ev
_ZN14wxLocaleModule12ms_classInfoE
_ZN14wxLocaleModule14wxCreateObjectEv
_ZN14wxLocaleModule6OnExitEv
_ZN14wxLocaleModule6OnInitEv
_ZN14wxLocaleModuleC1Ev
_ZN14wxLocaleModuleC2Ev
_ZN14wxLocaleModuleC5Ev
_ZN14wxLocaleModuleD0Ev
_ZN14wxLocaleModuleD1Ev
_ZN14wxLocaleModuleD2Ev
_ZN14wxLocaleModuleD5Ev
_ZN14wxMBConv_iconv14ms_wcNeedsSwapE
_ZN14wxMBConv_iconv16ms_wcCharsetNameE
_ZN14wxMBConv_iconvC1EPKc
_ZN14wxMBConv_iconvC2EPKc
_ZN14wxMBConv_iconvD0Ev
_ZN14wxMBConv_iconvD1Ev
_ZN14wxMBConv_iconvD2Ev
_ZN14wxMBConv_wxwin4InitEv
_ZN14wxMBConv_wxwinC1E14wxFontEncoding
_ZN14wxMBConv_wxwinC1EPKc
_ZN14wxMBConv_wxwinC2E14wxFontEncoding
_ZN14wxMBConv_wxwinC2EPKc
_ZN14wxMBConv_wxwinC5E14wxFontEncoding
_ZN14wxMBConv_wxwinC5EPKc
_ZN14wxMBConv_wxwinD0Ev
_ZN14wxMBConv_wxwinD1Ev
_ZN14wxMBConv_wxwinD2Ev
_ZN14wxMBConv_wxwinD5Ev
_ZN14wxMemoryBuffer10AppendDataEPKvm
_ZN14wxMemoryBuffer10SetDataLenEm
_ZN14wxMemoryBuffer11GetWriteBufEm
_ZN14wxMemoryBuffer12GetAppendBufEm
_ZN14wxMemoryBuffer13UngetWriteBufEm
_ZN14wxMemoryBuffer14UngetAppendBufEm
_ZN14wxMemoryBufferC1Em
_ZN14wxMemoryBufferC2Em
_ZN14wxMemoryBufferC5Em
_ZN14wxMemoryBufferD1Ev
_ZN14wxMemoryBufferD2Ev
_ZN14wxMemoryBufferD5Ev
_ZN14wxMemoryConfigC1Ev
_ZN14wxMemoryConfigC2Ev
_ZN14wxMemoryConfigC5Ev
_ZN14wxMemoryConfigD0Ev
_ZN14wxMemoryConfigD1Ev
_ZN14wxMemoryConfigD2Ev
_ZN14wxMemoryConfigD5Ev
_ZN14wxMemoryDCBase12SelectObjectER8wxBitmap
_ZN14wxMemoryDCBase20SelectObjectAsSourceERK8wxBitmap
_ZN14wxMemoryDCBaseC1Ev
_ZN14wxMemoryDCBaseC2Ev
_ZN14wxMemoryDCBaseC5Ev
_ZN14wxMemoryDCBaseD0Ev
_ZN14wxMemoryDCBaseD1Ev
_ZN14wxMemoryDCBaseD2Ev
_ZN14wxMemoryDCBaseD5Ev
_ZN14wxMenuItemBase10SetSubMenuEP6wxMenu
_ZN14wxMenuItemBase12GetLabelTextERK8wxString
_ZN14wxMenuItemBase12SetCheckableEb
_ZN14wxMenuItemBase16GetLabelFromTextERK8wxString
_ZN14wxMenuItemBase3NewEP6wxMenuiRK8wxStringS4_10wxItemKindS1_
_ZN14wxMenuItemBase5CheckEb
_ZN14wxMenuItemBase6EnableEb
_ZN14wxMenuItemBase6ToggleEv
_ZN14wxMenuItemBase7SetHelpERK8wxString
_ZN14wxMenuItemBase7SetMenuEP6wxMenu
_ZN14wxMenuItemBase7SetTextERK8wxString
_ZN14wxMenuItemBase8SetAccelEP18wxAcceleratorEntry
_ZN14wxMenuItemBaseC1EP6wxMenuiRK8wxStringS4_10wxItemKindS1_
_ZN14wxMenuItemBaseC2EP6wxMenuiRK8wxStringS4_10wxItemKindS1_
_ZN14wxMenuItemBaseD0Ev
_ZN14wxMenuItemBaseD1Ev
_ZN14wxMenuItemBaseD2Ev
_ZN14wxMenuItemList10CreateNodeEP10wxNodeBaseS1_PvRK9wxListKey
_ZN14wxMenuItemList10DeleteNodeEP20wxwxMenuItemListNode
_ZN14wxMenuItemList22compatibility_iteratorC1EP20wxwxMenuItemListNode
_ZN14wxMenuItemList22compatibility_iteratorC2EP20wxwxMenuItemListNode
_ZN14wxMenuItemList22compatibility_iteratorC5EP20wxwxMenuItemListNode
_ZN14wxMenuItemList3endEv
_ZN14wxMenuItemList5beginEv
_ZN14wxMenuItemList5clearEv
_ZN14wxMenuItemList5EraseEP20wxwxMenuItemListNode
_ZN14wxMenuItemList6AppendEP10wxMenuItem
_ZN14wxMenuItemList6InsertEP20wxwxMenuItemListNodeP10wxMenuItem
_ZN14wxMenuItemList8iteratorC1EP20wxwxMenuItemListNodeS2_
_ZN14wxMenuItemList8iteratorC1Ev
_ZN14wxMenuItemList8iteratorC2EP20wxwxMenuItemListNodeS2_
_ZN14wxMenuItemList8iteratorC2Ev
_ZN14wxMenuItemList8iteratorC5EP20wxwxMenuItemListNodeS2_
_ZN14wxMenuItemList8iteratorC5Ev
_ZN14wxMenuItemList8iteratorppEv
_ZN14wxMenuItemListC1E9wxKeyType
_ZN14wxMenuItemListC2E9wxKeyType
_ZN14wxMenuItemListC5E9wxKeyType
_ZN14wxMenuItemListD0Ev
_ZN14wxMenuItemListD1Ev
_ZN14wxMenuItemListD2Ev
_ZN14wxMenuItemListD5Ev
_ZN14wxMessagesHashC1Em12wxStringHash13wxStringEqual
_ZN14wxMessagesHashC2Em12wxStringHash13wxStringEqual
_ZN14wxMessagesHashC5Em12wxStringHash13wxStringEqual
_ZN14wxMessagesHashD1Ev
_ZN14wxMessagesHashD2Ev
_ZN14wxMessagesHashD5Ev
_ZN14wxMessagesHashixERK8wxString
_ZN14wxMimeTextFile11CommentLineEi
_ZN14wxMimeTextFile11CommentLineERK8wxString
_ZN14wxMimeTextFile6GetCmdEm
_ZN14wxMimeTextFile6GetCmdERK8wxStringRS0_
_ZN14wxMimeTextFile6OnReadERK8wxMBConv
_ZN14wxMimeTextFile7GetVerbEm
_ZN14wxMimeTextFile8pIndexOfERK8wxStringbi
_ZN14wxMimeTextFileC1ERK8wxString
_ZN14wxMimeTextFileC1Ev
_ZN14wxMimeTextFileC2ERK8wxString
_ZN14wxMimeTextFileC2Ev
_ZN14wxMimeTextFileC5ERK8wxString
_ZN14wxMimeTextFileC5Ev
_ZN14wxMimeTextFileD0Ev
_ZN14wxMimeTextFileD1Ev
_ZN14wxMimeTextFileD2Ev
_ZN14wxMimeTextFileD5Ev
_ZN14wxMonoRenderer12DrawMenuItemER4wxDCiRK18wxMenuGeometryInfoRK8wxStringS7_RK8wxBitmapii
_ZN14wxMonoRenderer12GetIndicatorEN13wxStdRenderer13IndicatorTypeEi
_ZN14wxMonoRenderer12ms_xpmArrowsE
_ZN14wxMonoRenderer13DrawBoxBorderER4wxDCP6wxRect
_ZN14wxMonoRenderer13DrawFocusRectER4wxDCRK6wxRecti
_ZN14wxMonoRenderer13GetStdBmpSizeEv
_ZN14wxMonoRenderer14GetCheckBitmapEi
_ZN14wxMonoRenderer14GetRadioBitmapEi
_ZN14wxMonoRenderer15DrawButtonLabelER4wxDCRK8wxStringRK8wxBitmapRK6wxRectiiiPS8_
_ZN14wxMonoRenderer15DrawExtraBorderER4wxDCP6wxRect
_ZN14wxMonoRenderer15DrawMenuBarItemER4wxDCRK6wxRectRK8wxStringii
_ZN14wxMonoRenderer15DrawSliderShaftER4wxDCRK6wxRecti13wxOrientationilPS2_
_ZN14wxMonoRenderer15DrawSliderThumbER4wxDCRK6wxRect13wxOrientationil
_ZN14wxMonoRenderer15DrawSliderTicksER4wxDCRK6wxRecti13wxOrientationiiiil
_ZN14wxMonoRenderer15GetComboBitmapsEP8wxBitmapS1_S1_S1_
_ZN14wxMonoRenderer16DrawButtonBorderER4wxDCRK6wxRectiPS2_
_ZN14wxMonoRenderer16DrawRaisedBorderER4wxDCP6wxRect
_ZN14wxMonoRenderer16DrawSimpleBorderER4wxDCP6wxRect
_ZN14wxMonoRenderer16DrawStaticBorderER4wxDCP6wxRect
_ZN14wxMonoRenderer16DrawSunkenBorderER4wxDCP6wxRect
_ZN14wxMonoRenderer16DrawVerticalLineER4wxDCiii
_ZN14wxMonoRenderer16ms_xpmIndicatorsE
_ZN14wxMonoRenderer17DrawMenuSeparatorER4wxDCiRK18wxMenuGeometryInfo
_ZN14wxMonoRenderer17DrawToolBarButtonER4wxDCRK8wxStringRK8wxBitmapRK6wxRectili
_ZN14wxMonoRenderer18DrawHorizontalLineER4wxDCiii
_ZN14wxMonoRenderer18DrawScrollbarShaftER4wxDC13wxOrientationRK6wxRecti
_ZN14wxMonoRenderer18DrawScrollbarThumbER4wxDC13wxOrientationRK6wxRecti
_ZN14wxMonoRenderer20DrawAntiSunkenBorderER4wxDCP6wxRect
_ZN14wxMonoRenderer20GetFrameButtonBitmapEN13wxStdRenderer15FrameButtonTypeE
_ZN14wxMonoRenderer7DrawTabER4wxDCRK6wxRect11wxDirectionRK8wxStringRK8wxBitmapii
_ZN14wxMonoRenderer9DrawArrowER4wxDC11wxDirectionRK6wxRecti
_ZN14wxMonoRendererC1EPK14wxColourScheme
_ZN14wxMonoRendererC2EPK14wxColourScheme
_ZN14wxMonoRendererD0Ev
_ZN14wxMonoRendererD1Ev
_ZN14wxMonoRendererD2Ev
_ZN14wxMonoRendererD5Ev
_ZN14wxNcPaintEvent12ms_classInfoE
_ZN14wxNcPaintEvent14wxCreateObjectEv
_ZN14wxNcPaintEventC1Ei
_ZN14wxNcPaintEventC1ERKS_
_ZN14wxNcPaintEventC2Ei
_ZN14wxNcPaintEventC2ERKS_
_ZN14wxNcPaintEventC5Ei
_ZN14wxNcPaintEventC5ERKS_
_ZN14wxNcPaintEventD0Ev
_ZN14wxNcPaintEventD1Ev
_ZN14wxNcPaintEventD2Ev
_ZN14wxNcPaintEventD5Ev
_ZN14wxNotebookBase20SendPageChangedEventEii
_ZN14wxNotebookBase21SendPageChangingEventEi
_ZN14wxNotebookBaseC1Ev
_ZN14wxNotebookBaseC2Ev
_ZN14wxNotebookBaseC5Ev
_ZN14wxNotebookBaseD0Ev
_ZN14wxNotebookBaseD1Ev
_ZN14wxNotebookBaseD2Ev
_ZN14wxNotebookBaseD5Ev
_ZN14wxOutputStream10OnSysWriteEPKvm
_ZN14wxOutputStream4PutCEc
_ZN14wxOutputStream4SyncEv
_ZN14wxOutputStream5CloseEv
_ZN14wxOutputStream5SeekOEl10wxSeekMode
_ZN14wxOutputStream5WriteEPKvm
_ZN14wxOutputStream5WriteER13wxInputStream
_ZN14wxOutputStreamC1Ev
_ZN14wxOutputStreamC2Ev
_ZN14wxOutputStreamD0Ev
_ZN14wxOutputStreamD1Ev
_ZN14wxOutputStreamD2Ev
_ZN14wxPlatformInfo11GetArchNameE14wxArchitecture
_ZN14wxPlatformInfo13GetEndiannessERK8wxString
_ZN14wxPlatformInfo13GetPortIdNameE8wxPortIdb
_ZN14wxPlatformInfo14DoCheckVersionEiiii
_ZN14wxPlatformInfo17GetEndiannessNameE12wxEndianness
_ZN14wxPlatformInfo18GetPortIdShortNameE8wxPortIdb
_ZN14wxPlatformInfo20GetOperatingSystemIdERK8wxString
_ZN14wxPlatformInfo22InitForCurrentPlatformEv
_ZN14wxPlatformInfo24GetOperatingSystemIdNameE19wxOperatingSystemId
_ZN14wxPlatformInfo28GetOperatingSystemFamilyNameE19wxOperatingSystemId
_ZN14wxPlatformInfo3GetEv
_ZN14wxPlatformInfo7GetArchERK8wxString
_ZN14wxPlatformInfo9GetPortIdERK8wxString
_ZN14wxPlatformInfoC1E8wxPortIdii19wxOperatingSystemIdii14wxArchitecture12wxEndiannessb
_ZN14wxPlatformInfoC1Ev
_ZN14wxPlatformInfoC2E8wxPortIdii19wxOperatingSystemIdii14wxArchitecture12wxEndiannessb
_ZN14wxPlatformInfoC2Ev
_ZN14wxPointerEqualC1Ev
_ZN14wxPointerEqualC2Ev
_ZN14wxPointerEqualC5Ev
_ZN14wxPostScriptDC10DoDrawIconERK6wxIconii
_ZN14wxPostScriptDC10DoDrawLineEiiii
_ZN14wxPostScriptDC10DoDrawTextERK8wxStringii
_ZN14wxPostScriptDC10SetPaletteERK9wxPalette
_ZN14wxPostScriptDC11DoCrossHairEii
_ZN14wxPostScriptDC11DoDrawLinesEiP7wxPointii
_ZN14wxPostScriptDC11DoDrawPointEii
_ZN14wxPostScriptDC11DoFloodFillEiiRK8wxColouri
_ZN14wxPostScriptDC12DoDrawBitmapERK8wxBitmapiib
_ZN14wxPostScriptDC12DoDrawSplineEP6wxList
_ZN14wxPostScriptDC12ms_classInfoE
_ZN14wxPostScriptDC13DoDrawEllipseEiiii
_ZN14wxPostScriptDC13DoDrawPolygonEiP7wxPointiii
_ZN14wxPostScriptDC13GetResolutionEv
_ZN14wxPostScriptDC13SetBackgroundERK7wxBrush
_ZN14wxPostScriptDC13SetResolutionEi
_ZN14wxPostScriptDC14wxCreateObjectEv
_ZN14wxPostScriptDC15DoDrawRectangleEiiii
_ZN14wxPostScriptDC15SetDeviceOriginEii
_ZN14wxPostScriptDC16ms_PSScaleFactorE
_ZN14wxPostScriptDC17DoDrawEllipticArcEiiiidd
_ZN14wxPostScriptDC17DoDrawPolyPolygonEiPiP7wxPointiii
_ZN14wxPostScriptDC17DoDrawRotatedTextERK8wxStringiid
_ZN14wxPostScriptDC17SetBackgroundModeEi
_ZN14wxPostScriptDC18SetAxisOrientationEbb
_ZN14wxPostScriptDC18SetLogicalFunctionEi
_ZN14wxPostScriptDC19DoSetClippingRegionEiiii
_ZN14wxPostScriptDC21DestroyClippingRegionEv
_ZN14wxPostScriptDC22DoDrawRoundedRectangleEiiiid
_ZN14wxPostScriptDC27DoSetClippingRegionAsRegionERK8wxRegion
_ZN14wxPostScriptDC5ClearEv
_ZN14wxPostScriptDC6DoBlitEiiiiP4wxDCiiibii
_ZN14wxPostScriptDC6EndDocEv
_ZN14wxPostScriptDC6SetPenERK5wxPen
_ZN14wxPostScriptDC7EndPageEv
_ZN14wxPostScriptDC7PsPrintEi
_ZN14wxPostScriptDC7PsPrintEPKc
_ZN14wxPostScriptDC7SetFontERK6wxFont
_ZN14wxPostScriptDC8PsPrintfEPKcz
_ZN14wxPostScriptDC8SetBrushERK7wxBrush
_ZN14wxPostScriptDC8StartDocERK8wxString
_ZN14wxPostScriptDC9DoDrawArcEiiiiii
_ZN14wxPostScriptDC9StartPageEv
_ZN14wxPostScriptDCC1ERK11wxPrintData
_ZN14wxPostScriptDCC1Ev
_ZN14wxPostScriptDCC2ERK11wxPrintData
_ZN14wxPostScriptDCC2Ev
_ZN14wxPostScriptDCD0Ev
_ZN14wxPostScriptDCD1Ev
_ZN14wxPostScriptDCD2Ev
_ZN14wxPreviewFrame10InitializeEv
_ZN14wxPreviewFrame12CreateCanvasEv
_ZN14wxPreviewFrame12ms_classInfoE
_ZN14wxPreviewFrame13OnCloseWindowER12wxCloseEvent
_ZN14wxPreviewFrame13sm_eventTableE
_ZN14wxPreviewFrame16CreateControlBarEv
_ZN14wxPreviewFrame17sm_eventHashTableE
_ZN14wxPreviewFrame20sm_eventTableEntriesE
_ZN14wxPreviewFrameC1EP18wxPrintPreviewBaseP8wxWindowRK8wxStringRK7wxPointRK6wxSizelS6_
_ZN14wxPreviewFrameC2EP18wxPrintPreviewBaseP8wxWindowRK8wxStringRK7wxPointRK6wxSizelS6_
_ZN14wxPreviewFrameD0Ev
_ZN14wxPreviewFrameD1Ev
_ZN14wxPreviewFrameD2Ev
_ZN14wxPrintFactory10GetFactoryEv
_ZN14wxPrintFactory15SetPrintFactoryEPS_
_ZN14wxPrintFactory9m_factoryE
_ZN14wxPrintFactoryC1Ev
_ZN14wxPrintFactoryC2Ev
_ZN14wxPrintFactoryC5Ev
_ZN14wxPrintFactoryD0Ev
_ZN14wxPrintFactoryD1Ev
_ZN14wxPrintFactoryD2Ev
_ZN14wxPrintFactoryD5Ev
_ZN14wxPrintPreview10RenderPageEi
_ZN14wxPrintPreview11SetPrintoutEP10wxPrintout
_ZN14wxPrintPreview12ms_classInfoE
_ZN14wxPrintPreview13DrawBlankPageEP15wxPreviewCanvasR4wxDC
_ZN14wxPrintPreview14SetCurrentPageEi
_ZN14wxPrintPreview16AdjustScrollbarsEP15wxPreviewCanvas
_ZN14wxPrintPreview16DetermineScalingEv
_ZN14wxPrintPreview18GetPrintDialogDataEv
_ZN14wxPrintPreview5PrintEb
_ZN14wxPrintPreview5SetOkEb
_ZN14wxPrintPreview7SetZoomEi
_ZN14wxPrintPreview8SetFrameEP7wxFrame
_ZN14wxPrintPreview9PaintPageEP15wxPreviewCanvasR4wxDC
_ZN14wxPrintPreview9SetCanvasEP15wxPreviewCanvas
_ZN14wxPrintPreviewC1EP10wxPrintoutS1_P11wxPrintData
_ZN14wxPrintPreviewC1EP10wxPrintoutS1_P17wxPrintDialogData
_ZN14wxPrintPreviewC2EP10wxPrintoutS1_P11wxPrintData
_ZN14wxPrintPreviewC2EP10wxPrintoutS1_P17wxPrintDialogData
_ZN14wxPrintPreviewD0Ev
_ZN14wxPrintPreviewD1Ev
_ZN14wxPrintPreviewD2Ev
_ZN14wxProcessEvent12ms_classInfoE
_ZN14wxProcessEvent14wxCreateObjectEv
_ZN14wxProcessEventC1Eiii
_ZN14wxProcessEventC1ERKS_
_ZN14wxProcessEventC2Eiii
_ZN14wxProcessEventC2ERKS_
_ZN14wxProcessEventC5Eiii
_ZN14wxProcessEventC5ERKS_
_ZN14wxProcessEventD0Ev
_ZN14wxProcessEventD1Ev
_ZN14wxProcessEventD2Ev
_ZN14wxProcessEventD5Ev
_ZN14wxRadioBoxBase11SetMajorDimEjl
_ZN14wxRadioBoxBase15SetItemHelpTextEjRK8wxString
_ZN14wxRadioBoxBaseC1Ev
_ZN14wxRadioBoxBaseC2Ev
_ZN14wxRadioBoxBaseC5Ev
_ZN14wxRadioBoxBaseD0Ev
_ZN14wxRadioBoxBaseD1Ev
_ZN14wxRadioBoxBaseD2Ev
_ZN14wxRect2DDouble11ConstrainToERKS_
_ZN14wxRect2DDouble5UnionERK15wxPoint2DDouble
_ZN14wxRect2DDouble5UnionERKS_S1_PS_
_ZN14wxRect2DDouble6SetTopEd
_ZN14wxRect2DDouble7SetLeftEd
_ZN14wxRect2DDouble8SetRightEd
_ZN14wxRect2DDouble9IntersectERKS_S1_PS_
_ZN14wxRect2DDouble9SetBottomEd
_ZN14wxRect2DDoubleaSERKS_
_ZN14wxRegExMatches3getEv
_ZN14wxRegExMatchesC1Em
_ZN14wxRegExMatchesC2Em
_ZN14wxRegExMatchesC5Em
_ZN14wxRegExMatchesD1Ev
_ZN14wxRegExMatchesD2Ev
_ZN14wxRegExMatchesD5Ev
_ZN14wxRichTextAttr11SetFontSizeEi
_ZN14wxRichTextAttr12SetAlignmentE19wxTextAttrAlignment
_ZN14wxRichTextAttr12SetFontStyleEi
_ZN14wxRichTextAttr12SetPageBreakEb
_ZN14wxRichTextAttr13SetBulletFontERK8wxString
_ZN14wxRichTextAttr13SetBulletNameERK8wxString
_ZN14wxRichTextAttr13SetBulletTextERK8wxString
_ZN14wxRichTextAttr13SetFontWeightEi
_ZN14wxRichTextAttr13SetLeftIndentEii
_ZN14wxRichTextAttr13SetTextColourERK8wxColour
_ZN14wxRichTextAttr14SetBulletStyleEi
_ZN14wxRichTextAttr14SetLineSpacingEi
_ZN14wxRichTextAttr14SetRightIndentEi
_ZN14wxRichTextAttr14SetTextEffectsEi
_ZN14wxRichTextAttr15SetBulletNumberEi
_ZN14wxRichTextAttr15SetFontFaceNameERK8wxString
_ZN14wxRichTextAttr15SetOutlineLevelEi
_ZN14wxRichTextAttr16SetListStyleNameERK8wxString
_ZN14wxRichTextAttr17GetFontAttributesERK6wxFont
_ZN14wxRichTextAttr17SetFontUnderlinedEb
_ZN14wxRichTextAttr18SetTextEffectFlagsEi
_ZN14wxRichTextAttr19SetBackgroundColourERK8wxColour
_ZN14wxRichTextAttr21SetCharacterStyleNameERK8wxString
_ZN14wxRichTextAttr21SetParagraphStyleNameERK8wxString
_ZN14wxRichTextAttr24SetParagraphSpacingAfterEi
_ZN14wxRichTextAttr25SetParagraphSpacingBeforeEi
_ZN14wxRichTextAttr4CopyERKS_
_ZN14wxRichTextAttr4InitEv
_ZN14wxRichTextAttr5ApplyERKS_PS0_
_ZN14wxRichTextAttr6SetURLERK8wxString
_ZN14wxRichTextAttr7SetTabsERK10wxArrayInt
_ZN14wxRichTextAttr8SetFlagsEl
_ZN14wxRichTextAttraSERK12wxTextAttrEx
_ZN14wxRichTextAttraSERKS_
_ZN14wxRichTextAttrC1ERK12wxTextAttrEx
_ZN14wxRichTextAttrC1ERK8wxColourS2_19wxTextAttrAlignment
_ZN14wxRichTextAttrC1ERKS_
_ZN14wxRichTextAttrC1Ev
_ZN14wxRichTextAttrC2ERK12wxTextAttrEx
_ZN14wxRichTextAttrC2ERK8wxColourS2_19wxTextAttrAlignment
_ZN14wxRichTextAttrC2ERKS_
_ZN14wxRichTextAttrC2Ev
_ZN14wxRichTextAttrC5Ev
_ZN14wxRichTextAttrD1Ev
_ZN14wxRichTextAttrD2Ev
_ZN14wxRichTextAttrD5Ev
_ZN14wxRichTextCtrl10AppendTextERK8wxString
_ZN14wxRichTextCtrl10ApplyStyleEP25wxRichTextStyleDefinition
_ZN14wxRichTextCtrl10BeginStyleERK12wxTextAttrEx
_ZN14wxRichTextCtrl10DoLoadFileERK8wxStringi
_ZN14wxRichTextCtrl10DoSaveFileERK8wxStringi
_ZN14wxRichTextCtrl10DoSetValueERK8wxStringi
_ZN14wxRichTextCtrl10NumberListERK15wxRichTextRangeP29wxRichTextListStyleDefinitioniii
_ZN14wxRichTextCtrl10NumberListERK15wxRichTextRangeRK8wxStringiii
_ZN14wxRichTextCtrl10OnSetFocusER12wxFocusEvent
_ZN14wxRichTextCtrl10SelectNoneEv
_ZN14wxRichTextCtrl10SelectWordEl
_ZN14wxRichTextCtrl10SetStyleExEllRK12wxTextAttrExi
_ZN14wxRichTextCtrl10SetStyleExERK15wxRichTextRangeRK12wxTextAttrExi
_ZN14wxRichTextCtrl10SetStyleExERK15wxRichTextRangeRK14wxRichTextAttri
_ZN14wxRichTextCtrl10WriteImageERK20wxRichTextImageBlock
_ZN14wxRichTextCtrl10WriteImageERK7wxImagei
_ZN14wxRichTextCtrl10WriteImageERK8wxBitmapi
_ZN14wxRichTextCtrl10WriteImageERK8wxStringi
_ZN14wxRichTextCtrl11DoWriteTextERK8wxStringi
_ZN14wxRichTextCtrl11OnDropFilesER16wxDropFilesEvent
_ZN14wxRichTextCtrl11OnKillFocusER12wxFocusEvent
_ZN14wxRichTextCtrl11OnLeftClickER12wxMouseEvent
_ZN14wxRichTextCtrl11OnMoveMouseER12wxMouseEvent
_ZN14wxRichTextCtrl11OnSelectAllER14wxCommandEvent
_ZN14wxRichTextCtrl11OnUpdateCutER15wxUpdateUIEvent
_ZN14wxRichTextCtrl11PromoteListEiRK15wxRichTextRangeP29wxRichTextListStyleDefinitionii
_ZN14wxRichTextCtrl11PromoteListEiRK15wxRichTextRangeRK8wxStringii
_ZN14wxRichTextCtrl11SetEditableEb
_ZN14wxRichTextCtrl12AddParagraphERK8wxString
_ZN14wxRichTextCtrl12DiscardEditsEv
_ZN14wxRichTextCtrl12EndAllStylesEv
_ZN14wxRichTextCtrl12EndBatchUndoEv
_ZN14wxRichTextCtrl12ms_classInfoE
_ZN14wxRichTextCtrl12OnLeftDClickER12wxMouseEvent
_ZN14wxRichTextCtrl12OnRightClickER12wxMouseEvent
_ZN14wxRichTextCtrl12OnUpdateCopyER15wxUpdateUIEvent
_ZN14wxRichTextCtrl12OnUpdateRedoER15wxUpdateUIEvent
_ZN14wxRichTextCtrl12OnUpdateUndoER15wxUpdateUIEvent
_ZN14wxRichTextCtrl12SetListStyleERK15wxRichTextRangeP29wxRichTextListStyleDefinitioniii
_ZN14wxRichTextCtrl12SetListStyleERK15wxRichTextRangeRK8wxStringiii
_ZN14wxRichTextCtrl12SetMaxLengthEm
_ZN14wxRichTextCtrl12SetSelectionEll
_ZN14wxRichTextCtrl12ShowPositionEl
_ZN14wxRichTextCtrl13LayoutContentEb
_ZN14wxRichTextCtrl13MoveCaretBackEl
_ZN14wxRichTextCtrl13MoveToLineEndEi
_ZN14wxRichTextCtrl13OnCaptureLostER23wxMouseCaptureLostEvent
_ZN14wxRichTextCtrl13OnContextMenuER18wxContextMenuEvent
_ZN14wxRichTextCtrl13OnMiddleClickER12wxMouseEvent
_ZN14wxRichTextCtrl13OnUpdateClearER15wxUpdateUIEvent
_ZN14wxRichTextCtrl13OnUpdatePasteER15wxUpdateUIEvent
_ZN14wxRichTextCtrl13PositionCaretEv
_ZN14wxRichTextCtrl13SetBasicStyleERK12wxTextAttrEx
_ZN14wxRichTextCtrl13SetBasicStyleERK14wxRichTextAttr
_ZN14wxRichTextCtrl13sm_eventTableE
_ZN14wxRichTextCtrl14BeginBatchUndoERK8wxString
_ZN14wxRichTextCtrl14ClearListStyleERK15wxRichTextRangei
_ZN14wxRichTextCtrl14DoSetSelectionEllb
_ZN14wxRichTextCtrl14RecreateBufferERK6wxSize
_ZN14wxRichTextCtrl14ScrollIntoViewEli
_ZN14wxRichTextCtrl14SetContextMenuEP6wxMenu
_ZN14wxRichTextCtrl15ApplyStyleSheetEP20wxRichTextStyleSheet
_ZN14wxRichTextCtrl15DeleteSelectionEv
_ZN14wxRichTextCtrl15EndSuppressUndoEv
_ZN14wxRichTextCtrl15ExtendSelectionElli
_ZN14wxRichTextCtrl15IsSelectionBoldEv
_ZN14wxRichTextCtrl15MoveToLineStartEi
_ZN14wxRichTextCtrl15PaintBackgroundER4wxDC
_ZN14wxRichTextCtrl15SetDefaultStyleERK10wxTextAttr
_ZN14wxRichTextCtrl15SetDefaultStyleERK12wxTextAttrEx
_ZN14wxRichTextCtrl15SetupScrollbarsEb
_ZN14wxRichTextCtrl16DoSetVirtualSizeEii
_ZN14wxRichTextCtrl16GetStyleForRangeERK15wxRichTextRangeR12wxTextAttrEx
_ZN14wxRichTextCtrl16GetStyleForRangeERK15wxRichTextRangeR14wxRichTextAttr
_ZN14wxRichTextCtrl16KeyboardNavigateEii
_ZN14wxRichTextCtrl16MoveCaretForwardEl
_ZN14wxRichTextCtrl16SetCaretPositionElb
_ZN14wxRichTextCtrl17BeginSuppressUndoEv
_ZN14wxRichTextCtrl17OnEraseBackgroundER12wxEraseEvent
_ZN14wxRichTextCtrl17OnUpdateSelectAllER15wxUpdateUIEvent
_ZN14wxRichTextCtrl17SetInsertionPointEl
_ZN14wxRichTextCtrl17SetSelectionRangeERK15wxRichTextRange
_ZN14wxRichTextCtrl17sm_eventHashTableE
_ZN14wxRichTextCtrl18GetUncombinedStyleElR10wxTextAttr
_ZN14wxRichTextCtrl18GetUncombinedStyleElR12wxTextAttrEx
_ZN14wxRichTextCtrl18GetUncombinedStyleElR14wxRichTextAttr
_ZN14wxRichTextCtrl18IsSelectionAlignedE19wxTextAttrAlignment
_ZN14wxRichTextCtrl18IsSelectionItalicsEv
_ZN14wxRichTextCtrl18MoveToParagraphEndEi
_ZN14wxRichTextCtrl20ApplyBoldToSelectionEv
_ZN14wxRichTextCtrl20MoveToParagraphStartEi
_ZN14wxRichTextCtrl20SetInsertionPointEndEv
_ZN14wxRichTextCtrl20sm_eventTableEntriesE
_ZN14wxRichTextCtrl21DeleteSelectedContentEPl
_ZN14wxRichTextCtrl21GetAvailableFontNamesEv
_ZN14wxRichTextCtrl21IsSelectionUnderlinedEv
_ZN14wxRichTextCtrl21sm_availableFontNamesE
_ZN14wxRichTextCtrl22ApplyItalicToSelectionEv
_ZN14wxRichTextCtrl22SetAndShowDefaultStyleERK14wxRichTextAttr
_ZN14wxRichTextCtrl23ClearAvailableFontNamesEv
_ZN14wxRichTextCtrl24GetCaretPositionForIndexElR6wxRect
_ZN14wxRichTextCtrl25ApplyAlignmentToSelectionE19wxTextAttrAlignment
_ZN14wxRichTextCtrl25ApplyUnderlineToSelectionEv
_ZN14wxRichTextCtrl28SetDefaultStyleToCursorStyleEv
_ZN14wxRichTextCtrl31SetCaretPositionForDefaultStyleEl
_ZN14wxRichTextCtrl3CutEv
_ZN14wxRichTextCtrl4CopyEv
_ZN14wxRichTextCtrl4InitEv
_ZN14wxRichTextCtrl4RedoEv
_ZN14wxRichTextCtrl4ThawEv
_ZN14wxRichTextCtrl4UndoEv
_ZN14wxRichTextCtrl5ClearEv
_ZN14wxRichTextCtrl5OnCutER14wxCommandEvent
_ZN14wxRichTextCtrl5PasteEv
_ZN14wxRichTextCtrl6CreateEP8wxWindowiRK8wxStringRK7wxPointRK6wxSizelRK11wxValidatorS4_
_ZN14wxRichTextCtrl6DeleteERK15wxRichTextRange
_ZN14wxRichTextCtrl6FreezeEv
_ZN14wxRichTextCtrl6LayoutEv
_ZN14wxRichTextCtrl6MoveUpEii
_ZN14wxRichTextCtrl6OnCharER10wxKeyEvent
_ZN14wxRichTextCtrl6OnCopyER14wxCommandEvent
_ZN14wxRichTextCtrl6OnIdleER11wxIdleEvent
_ZN14wxRichTextCtrl6OnRedoER14wxCommandEvent
_ZN14wxRichTextCtrl6OnSizeER11wxSizeEvent
_ZN14wxRichTextCtrl6OnUndoER14wxCommandEvent
_ZN14wxRichTextCtrl6PageUpEii
_ZN14wxRichTextCtrl6RemoveEll
_ZN14wxRichTextCtrl7CommandER14wxCommandEvent
_ZN14wxRichTextCtrl7MoveEndEi
_ZN14wxRichTextCtrl7NewlineEv
_ZN14wxRichTextCtrl7OnClearER14wxCommandEvent
_ZN14wxRichTextCtrl7OnPaintER12wxPaintEvent
_ZN14wxRichTextCtrl7OnPasteER14wxCommandEvent
_ZN14wxRichTextCtrl7ReplaceEllRK8wxString
_ZN14wxRichTextCtrl7SetFontERK6wxFont
_ZN14wxRichTextCtrl8AddImageERK7wxImage
_ZN14wxRichTextCtrl8EndStyleEv
_ZN14wxRichTextCtrl8GetStyleElR10wxTextAttr
_ZN14wxRichTextCtrl8GetStyleElR12wxTextAttrEx
_ZN14wxRichTextCtrl8GetStyleElR14wxRichTextAttr
_ZN14wxRichTextCtrl8MoveDownEii
_ZN14wxRichTextCtrl8MoveHomeEi
_ZN14wxRichTextCtrl8MoveLeftEii
_ZN14wxRichTextCtrl8OnLeftUpER12wxMouseEvent
_ZN14wxRichTextCtrl8OnScrollER16wxScrollWinEvent
_ZN14wxRichTextCtrl8PageDownEii
_ZN14wxRichTextCtrl8SetStyleEllRK10wxTextAttr
_ZN14wxRichTextCtrl8SetStyleEllRK12wxTextAttrEx
_ZN14wxRichTextCtrl8SetStyleERK15wxRichTextRangeRK14wxRichTextAttr
_ZN14wxRichTextCtrl8WordLeftEii
_ZN14wxRichTextCtrl9GetBufferEv
_ZN14wxRichTextCtrl9LineBreakEv
_ZN14wxRichTextCtrl9MarkDirtyEv
_ZN14wxRichTextCtrl9MoveCaretElb
_ZN14wxRichTextCtrl9MoveRightEii
_ZN14wxRichTextCtrl9PrepareDCER4wxDC
_ZN14wxRichTextCtrl9SelectAllEv
_ZN14wxRichTextCtrl9WordRightEii
_ZN14wxRichTextCtrl9WriteTextERK8wxString
_ZN14wxRichTextCtrlC1EP8wxWindowiRK8wxStringRK7wxPointRK6wxSizelRK11wxValidatorS4_
_ZN14wxRichTextCtrlC1Ev
_ZN14wxRichTextCtrlC2EP8wxWindowiRK8wxStringRK7wxPointRK6wxSizelRK11wxValidatorS4_
_ZN14wxRichTextCtrlC2Ev
_ZN14wxRichTextCtrlD0Ev
_ZN14wxRichTextCtrlD1Ev
_ZN14wxRichTextCtrlD2Ev
_ZN14wxRichTextLine10SetDescentEi
_ZN14wxRichTextLine11SetPositionERK7wxPoint
_ZN14wxRichTextLine4CopyERKS_
_ZN14wxRichTextLine4InitEP19wxRichTextParagraph
_ZN14wxRichTextLine7SetSizeERK6wxSize
_ZN14wxRichTextLine8SetRangeERK15wxRichTextRange
_ZN14wxRichTextLineC1EP19wxRichTextParagraph
_ZN14wxRichTextLineC1ERKS_
_ZN14wxRichTextLineC2EP19wxRichTextParagraph
_ZN14wxRichTextLineC2ERKS_
_ZN14wxRichTextLineC5ERKS_
_ZN14wxRichTextLineD0Ev
_ZN14wxRichTextLineD1Ev
_ZN14wxRichTextLineD2Ev
_ZN14wxRichTextLineD5Ev
_ZN14wxScrollArrowsC1EP19wxControlWithArrows
_ZN14wxScrollArrowsC2EP19wxControlWithArrows
_ZN14wxScrollArrowsD1Ev
_ZN14wxScrollArrowsD2Ev
_ZN14wxScrollHelper11DoPrepareDCER4wxDC
_ZN14wxScrollHelper12HandleOnCharER10wxKeyEvent
_ZN14wxScrollHelper12HandleOnSizeER11wxSizeEvent
_ZN14wxScrollHelper12ScrollLayoutEv
_ZN14wxScrollHelper13CalcScrollIncER16wxScrollWinEvent
_ZN14wxScrollHelper13HandleOnPaintER12wxPaintEvent
_ZN14wxScrollHelper13SetScrollbarsEiiiiiib
_ZN14wxScrollHelper13SetScrollRateEii
_ZN14wxScrollHelper13SetTargetRectERK6wxRect
_ZN14wxScrollHelper14HandleOnScrollER16wxScrollWinEvent
_ZN14wxScrollHelper15EnableScrollingEbb
_ZN14wxScrollHelper15SetTargetWindowEP8wxWindow
_ZN14wxScrollHelper16AdjustScrollbarsEv
_ZN14wxScrollHelper16DeleteEvtHandlerEv
_ZN14wxScrollHelper17DoSetTargetWindowEP8wxWindow
_ZN14wxScrollHelper17SetScrollPageSizeEii
_ZN14wxScrollHelper17StopAutoScrollingEv
_ZN14wxScrollHelper18HandleOnChildFocusER17wxChildFocusEvent
_ZN14wxScrollHelper18HandleOnMouseEnterER12wxMouseEvent
_ZN14wxScrollHelper18HandleOnMouseLeaveER12wxMouseEvent
_ZN14wxScrollHelper18HandleOnMouseWheelER12wxMouseEvent
_ZN14wxScrollHelper22ScrollDoSetVirtualSizeEii
_ZN14wxScrollHelper6OnDrawER4wxDC
_ZN14wxScrollHelper6ScrollEii
_ZN14wxScrollHelperC1EP8wxWindow
_ZN14wxScrollHelperC2EP8wxWindow
_ZN14wxScrollHelperD0Ev
_ZN14wxScrollHelperD1Ev
_ZN14wxScrollHelperD2Ev
_ZN14wxSearchButton13sm_eventTableE
_ZN14wxSearchButton14SetBitmapLabelERK8wxBitmap
_ZN14wxSearchButton17sm_eventHashTableE
_ZN14wxSearchButton20sm_eventTableEntriesE
_ZN14wxSearchButton7OnPaintER12wxPaintEvent
_ZN14wxSearchButton8OnLeftUpER12wxMouseEvent
_ZN14wxSearchButtonC1EP12wxSearchCtrliRK8wxBitmap
_ZN14wxSearchButtonC2EP12wxSearchCtrliRK8wxBitmap
_ZN14wxSearchButtonC5EP12wxSearchCtrliRK8wxBitmap
_ZN14wxSearchButtonD0Ev
_ZN14wxSearchButtonD1Ev
_ZN14wxSearchButtonD2Ev
_ZN14wxSearchButtonD5Ev
_ZN14wxSocketClient12ms_classInfoE
_ZN14wxSocketClient13WaitOnConnectEll
_ZN14wxSocketClient7ConnectER13wxSockAddressb
_ZN14wxSocketClient7ConnectER13wxSockAddressS1_b
_ZN14wxSocketClient9DoConnectER13wxSockAddressPS0_b
_ZN14wxSocketClientC1Ei
_ZN14wxSocketClientC2Ei
_ZN14wxSocketClientD0Ev
_ZN14wxSocketClientD1Ev
_ZN14wxSocketClientD2Ev
_ZN14wxSocketModule12ms_classInfoE
_ZN14wxSocketModule14wxCreateObjectEv
_ZN14wxSocketModule6OnExitEv
_ZN14wxSocketModule6OnInitEv
_ZN14wxSocketModuleC1Ev
_ZN14wxSocketModuleC2Ev
_ZN14wxSocketModuleC5Ev
_ZN14wxSocketModuleD0Ev
_ZN14wxSocketModuleD1Ev
_ZN14wxSocketModuleD2Ev
_ZN14wxSocketModuleD5Ev
_ZN14wxSocketServer10AcceptWithER12wxSocketBaseb
_ZN14wxSocketServer12ms_classInfoE
_ZN14wxSocketServer13WaitForAcceptEll
_ZN14wxSocketServer6AcceptEb
_ZN14wxSocketServerC1ERK13wxSockAddressi
_ZN14wxSocketServerC2ERK13wxSockAddressi
_ZN14wxSocketServerD0Ev
_ZN14wxSocketServerD1Ev
_ZN14wxSocketServerD2Ev
_ZN14wxSocketServerD5Ev
_ZN14wxSocketStreamC1ER12wxSocketBase
_ZN14wxSocketStreamC2ER12wxSocketBase
_ZN14wxSocketStreamD0Ev
_ZN14wxSocketStreamD1Ev
_ZN14wxSocketStreamD2Ev
_ZN14wxSoundBackendC1Ev
_ZN14wxSoundBackendC2Ev
_ZN14wxSoundBackendC5Ev
_ZN14wxSoundBackendD0Ev
_ZN14wxSoundBackendD1Ev
_ZN14wxSoundBackendD2Ev
_ZN14wxSoundBackendD5Ev
_ZN14wxSpinCtrlText12OnTextChangeER14wxCommandEvent
_ZN14wxSpinCtrlText12ProcessEventER7wxEvent
_ZN14wxSpinCtrlText13sm_eventTableE
_ZN14wxSpinCtrlText17sm_eventHashTableE
_ZN14wxSpinCtrlText20sm_eventTableEntriesE
_ZN14wxSpinCtrlTextC1EP10wxSpinCtrlRK8wxString
_ZN14wxSpinCtrlTextC2EP10wxSpinCtrlRK8wxString
_ZN14wxSpinCtrlTextC5EP10wxSpinCtrlRK8wxString
_ZN14wxSpinCtrlTextD0Ev
_ZN14wxSpinCtrlTextD1Ev
_ZN14wxSpinCtrlTextD2Ev
_ZN14wxSpinCtrlTextD5Ev
_ZN14wxSplashScreen12ms_classInfoE
_ZN14wxSplashScreen13OnCloseWindowER12wxCloseEvent
_ZN14wxSplashScreen13sm_eventTableE
_ZN14wxSplashScreen14wxCreateObjectEv
_ZN14wxSplashScreen17sm_eventHashTableE
_ZN14wxSplashScreen20sm_eventTableEntriesE
_ZN14wxSplashScreen8OnNotifyER12wxTimerEvent
_ZN14wxSplashScreenC1ERK8wxBitmapliP8wxWindowiRK7wxPointRK6wxSizel
_ZN14wxSplashScreenC1Ev
_ZN14wxSplashScreenC2ERK8wxBitmapliP8wxWindowiRK7wxPointRK6wxSizel
_ZN14wxSplashScreenC2Ev
_ZN14wxSplashScreenC5Ev
_ZN14wxSplashScreenD0Ev
_ZN14wxSplashScreenD1Ev
_ZN14wxSplashScreenD2Ev
_ZN14wxStaticBitmap12ms_classInfoE
_ZN14wxStaticBitmap14wxCreateObjectEv
_ZN14wxStaticBitmap24HasTransparentBackgroundEv
_ZN14wxStaticBitmap6CreateEP8wxWindowiRK8wxBitmapRK7wxPointRK6wxSizelRK8wxString
_ZN14wxStaticBitmap6DoDrawEP17wxControlRenderer
_ZN14wxStaticBitmap7SetIconERK6wxIcon
_ZN14wxStaticBitmap9SetBitmapERK8wxBitmap
_ZN14wxStaticBitmapC1EP8wxWindowiRK8wxBitmapRK7wxPointRK6wxSizelRK8wxString
_ZN14wxStaticBitmapC1Ev
_ZN14wxStaticBitmapC2EP8wxWindowiRK8wxBitmapRK7wxPointRK6wxSizelRK8wxString
_ZN14wxStaticBitmapC2Ev
_ZN14wxStaticBitmapC5EP8wxWindowiRK8wxBitmapRK7wxPointRK6wxSizelRK8wxString
_ZN14wxStaticBitmapC5Ev
_ZN14wxStaticBitmapD0Ev
_ZN14wxStaticBitmapD1Ev
_ZN14wxStaticBitmapD2Ev
_ZN14wxStaticBitmapD5Ev
_ZN14wxStreamBuffer10FillBufferEv
_ZN14wxStreamBuffer10FreeBufferEv
_ZN14wxStreamBuffer10InitBufferEv
_ZN14wxStreamBuffer11FlushBufferEv
_ZN14wxStreamBuffer11GetDataLeftEv
_ZN14wxStreamBuffer11PutToBufferEPKvm
_ZN14wxStreamBuffer11ResetBufferEv
_ZN14wxStreamBuffer11SetBufferIOEm
_ZN14wxStreamBuffer11SetBufferIOEPvmb
_ZN14wxStreamBuffer11SetBufferIOEPvS0_b
_ZN14wxStreamBuffer13GetFromBufferEPvm
_ZN14wxStreamBuffer14SetIntPositionEm
_ZN14wxStreamBuffer4InitEv
_ZN14wxStreamBuffer4PeekEv
_ZN14wxStreamBuffer4ReadEPS_
_ZN14wxStreamBuffer4ReadEPvm
_ZN14wxStreamBuffer4SeekEl10wxSeekMode
_ZN14wxStreamBuffer5FixedEb
_ZN14wxStreamBuffer5WriteEPKvm
_ZN14wxStreamBuffer5WriteEPS_
_ZN14wxStreamBuffer7GetCharEv
_ZN14wxStreamBuffer7PutCharEc
_ZN14wxStreamBuffer8SetErrorE13wxStreamError
_ZN14wxStreamBuffer9FlushableEb
_ZN14wxStreamBufferC1ENS_7BufModeE
_ZN14wxStreamBufferC1ER12wxStreamBaseNS_7BufModeE
_ZN14wxStreamBufferC1ERKS_
_ZN14wxStreamBufferC2ENS_7BufModeE
_ZN14wxStreamBufferC2ER12wxStreamBaseNS_7BufModeE
_ZN14wxStreamBufferC2ERKS_
_ZN14wxStreamBufferD0Ev
_ZN14wxStreamBufferD1Ev
_ZN14wxStreamBufferD2Ev
_ZN14wxStringBufferC1ER8wxStringm
_ZN14wxStringBufferC2ER8wxStringm
_ZN14wxStringBufferC5ER8wxStringm
_ZN14wxStringBufferD1Ev
_ZN14wxStringBufferD2Ev
_ZN14wxStringBufferD5Ev
_ZN14wxTarEntryPtr_7releaseEv
_ZN14wxTarEntryPtr_C1EP10wxTarEntry
_ZN14wxTarEntryPtr_C2EP10wxTarEntry
_ZN14wxTarEntryPtr_C5EP10wxTarEntry
_ZN14wxTarEntryPtr_D1Ev
_ZN14wxTarEntryPtr_D2Ev
_ZN14wxTextCtrlBase10DoLoadFileERK8wxStringi
_ZN14wxTextCtrlBase10DoSaveFileERK8wxStringi
_ZN14wxTextCtrlBase11ChangeValueERK8wxString
_ZN14wxTextCtrlBase12ms_classInfoE
_ZN14wxTextCtrlBase12SetMaxLengthEm
_ZN14wxTextCtrlBase15EmulateKeyPressERK10wxKeyEvent
_ZN14wxTextCtrlBase15SetDefaultStyleERK10wxTextAttr
_ZN14wxTextCtrlBase16DoUpdateWindowUIER15wxUpdateUIEvent
_ZN14wxTextCtrlBase20SendTextUpdatedEventEv
_ZN14wxTextCtrlBase8GetStyleElR10wxTextAttr
_ZN14wxTextCtrlBase8LoadFileERK8wxStringi
_ZN14wxTextCtrlBase8overflowEi
_ZN14wxTextCtrlBase8SaveFileERK8wxStringi
_ZN14wxTextCtrlBase8SetStyleEllRK10wxTextAttr
_ZN14wxTextCtrlBase8SetValueERK8wxString
_ZN14wxTextCtrlBase9SelectAllEv
_ZN14wxTextCtrlBaseC1Ev
_ZN14wxTextCtrlBaseC2Ev
_ZN14wxTextCtrlBaseC5Ev
_ZN14wxTextCtrlBaseD0Ev
_ZN14wxTextCtrlBaseD1Ev
_ZN14wxTextCtrlBaseD2Ev
_ZN14wxTextCtrlBaseD5Ev
_ZN14wxTextCtrlBaselsEc
_ZN14wxTextCtrlBaselsEd
_ZN14wxTextCtrlBaselsEf
_ZN14wxTextCtrlBaselsEi
_ZN14wxTextCtrlBaselsEl
_ZN14wxTextCtrlBaselsERK8wxString
_ZN14wxTextUrlEvent12ms_classInfoE
_ZN14wxTextUrlEvent14wxCreateObjectEv
_ZN14wxTextUrlEventC1EiRK12wxMouseEventll
_ZN14wxTextUrlEventC1Ev
_ZN14wxTextUrlEventC2EiRK12wxMouseEventll
_ZN14wxTextUrlEventC2Ev
_ZN14wxTextUrlEventC5EiRK12wxMouseEventll
_ZN14wxTextUrlEventC5Ev
_ZN14wxTextUrlEventD0Ev
_ZN14wxTextUrlEventD1Ev
_ZN14wxTextUrlEventD2Ev
_ZN14wxTextUrlEventD5Ev
_ZN14wxThreadModule12ms_classInfoE
_ZN14wxThreadModule14wxCreateObjectEv
_ZN14wxThreadModule6OnExitEv
_ZN14wxThreadModule6OnInitEv
_ZN14wxThreadModuleC1Ev
_ZN14wxThreadModuleC2Ev
_ZN14wxThreadModuleC5Ev
_ZN14wxThreadModuleD0Ev
_ZN14wxThreadModuleD1Ev
_ZN14wxThreadModuleD2Ev
_ZN14wxThreadModuleD5Ev
_ZN14wxToggleButton12ms_classInfoE
_ZN14wxToggleButton14wxCreateObjectEv
_ZN14wxToggleButton4InitEv
_ZN14wxToggleButton5ClickEv
_ZN14wxToggleButton6ToggleEv
_ZN14wxToggleButton8SetValueEb
_ZN14wxToggleButtonC1EP8wxWindowiRK8wxBitmapRK8wxStringRK7wxPointRK6wxSizelRK11wxValidatorS7_
_ZN14wxToggleButtonC1EP8wxWindowiRK8wxStringRK7wxPointRK6wxSizelRK11wxValidatorS4_
_ZN14wxToggleButtonC1Ev
_ZN14wxToggleButtonC2EP8wxWindowiRK8wxBitmapRK8wxStringRK7wxPointRK6wxSizelRK11wxValidatorS7_
_ZN14wxToggleButtonC2EP8wxWindowiRK8wxStringRK7wxPointRK6wxSizelRK11wxValidatorS4_
_ZN14wxToggleButtonC2Ev
_ZN14wxToggleButtonD0Ev
_ZN14wxToggleButtonD1Ev
_ZN14wxToggleButtonD2Ev
_ZN14wxTreeCtrlBase10AppendItemERK12wxTreeItemIdRK8wxStringiiP14wxTreeItemData
_ZN14wxTreeCtrlBase10InsertItemERK12wxTreeItemIdS2_RK8wxStringiiP14wxTreeItemData
_ZN14wxTreeCtrlBase11CollapseAllEv
_ZN14wxTreeCtrlBase11PrependItemERK12wxTreeItemIdRK8wxStringiiP14wxTreeItemData
_ZN14wxTreeCtrlBase14OnCompareItemsERK12wxTreeItemIdS2_
_ZN14wxTreeCtrlBase15AssignImageListEP11wxImageList
_ZN14wxTreeCtrlBase16SetQuickBestSizeEb
_ZN14wxTreeCtrlBase17ExpandAllChildrenERK12wxTreeItemId
_ZN14wxTreeCtrlBase19CollapseAllChildrenERK12wxTreeItemId
_ZN14wxTreeCtrlBase9ExpandAllEv
_ZN14wxTreeCtrlBaseC1Ev
_ZN14wxTreeCtrlBaseC2Ev
_ZN14wxTreeCtrlBaseC5Ev
_ZN14wxTreeCtrlBaseD0Ev
_ZN14wxTreeCtrlBaseD1Ev
_ZN14wxTreeCtrlBaseD2Ev
_ZN14wxTreeItemAttr13SetTextColourERK8wxColour
_ZN14wxTreeItemAttr19SetBackgroundColourERK8wxColour
_ZN14wxTreeItemAttr7SetFontERK6wxFont
_ZN14wxTreeItemAttrC1Ev
_ZN14wxTreeItemAttrC2Ev
_ZN14wxTreeItemAttrC5Ev
_ZN14wxTreeItemAttrD1Ev
_ZN14wxTreeItemAttrD2Ev
_ZN14wxTreeItemAttrD5Ev
_ZN14wxTreeItemData5SetIdERK12wxTreeItemId
_ZN14wxTreeItemDataC1Ev
_ZN14wxTreeItemDataC2Ev
_ZN14wxTreeItemDataC5Ev
_ZN14wxTreeItemDataD0Ev
_ZN14wxTreeItemDataD1Ev
_ZN14wxTreeItemDataD2Ev
_ZN14wxTreeItemDataD5Ev
_ZN14wxTreeTextCtrl11OnKillFocusER12wxFocusEvent
_ZN14wxTreeTextCtrl13AcceptChangesEv
_ZN14wxTreeTextCtrl13sm_eventTableE
_ZN14wxTreeTextCtrl17sm_eventHashTableE
_ZN14wxTreeTextCtrl20sm_eventTableEntriesE
_ZN14wxTreeTextCtrl6FinishEb
_ZN14wxTreeTextCtrl6OnCharER10wxKeyEvent
_ZN14wxTreeTextCtrl7EndEditEb
_ZN14wxTreeTextCtrl7OnKeyUpER10wxKeyEvent
_ZN14wxTreeTextCtrlC1EP17wxGenericTreeCtrlP17wxGenericTreeItem
_ZN14wxTreeTextCtrlC2EP17wxGenericTreeCtrlP17wxGenericTreeItem
_ZN14wxTreeTextCtrlD0Ev
_ZN14wxTreeTextCtrlD1Ev
_ZN14wxTreeTextCtrlD2Ev
_ZN14wxTreeTextCtrlD5Ev
_ZN14wxUmaskChangerC1Ei
_ZN14wxUmaskChangerC2Ei
_ZN14wxUmaskChangerC5Ei
_ZN14wxUmaskChangerD1Ev
_ZN14wxUmaskChangerD2Ev
_ZN14wxUmaskChangerD5Ev
_ZN14wxXPMColourMap4findERK8wxString
_ZN14wxXPMColourMapC1Em12wxStringHash13wxStringEqual
_ZN14wxXPMColourMapC2Em12wxStringHash13wxStringEqual
_ZN14wxXPMColourMapC5Em12wxStringHash13wxStringEqual
_ZN14wxXPMColourMapD1Ev
_ZN14wxXPMColourMapD2Ev
_ZN14wxXPMColourMapD5Ev
_ZN14wxXPMColourMapixERK8wxString
_ZN14wxZipEntryPtr_5resetEP10wxZipEntry
_ZN14wxZipEntryPtr_7releaseEv
_ZN14wxZipEntryPtr_C1EP10wxZipEntry
_ZN14wxZipEntryPtr_C2EP10wxZipEntry
_ZN14wxZipEntryPtr_C5EP10wxZipEntry
_ZN14wxZipEntryPtr_D1Ev
_ZN14wxZipEntryPtr_D2Ev
_ZN14wxZipWeakLinks11RemoveEntryEl
_ZN14wxZipWeakLinks7ReleaseEl
_ZN14wxZipWeakLinks7ReleaseEPK16wxZipInputStream
_ZN14wxZipWeakLinks8AddEntryEP10wxZipEntryl
_ZN14wxZipWeakLinksC1Ev
_ZN14wxZipWeakLinksC2Ev
_ZN14wxZipWeakLinksC5Ev
_ZN14wxZipWeakLinksD1Ev
_ZN14wxZipWeakLinksD2Ev
_ZN14wxZipWeakLinksD5Ev
_ZN14XmlStackWalker12OnStackFrameERK12wxStackFrame
_ZN14XmlStackWalkerC1EP9wxXmlNode
_ZN14XmlStackWalkerC2EP9wxXmlNode
_ZN14XmlStackWalkerC5EP9wxXmlNode
_ZN14XmlStackWalkerD0Ev
_ZN14XmlStackWalkerD1Ev
_ZN14XmlStackWalkerD2Ev
_ZN14XmlStackWalkerD5Ev
_ZN15MailcapLineDataC1Ev
_ZN15MailcapLineDataC2Ev
_ZN15MailcapLineDataC5Ev
_ZN15MailcapLineDataD1Ev
_ZN15MailcapLineDataD2Ev
_ZN15MailcapLineDataD5Ev
_ZN15wxActivateEvent12ms_classInfoE
_ZN15wxActivateEvent14wxCreateObjectEv
_ZN15wxActivateEventC1Eibi
_ZN15wxActivateEventC1ERKS_
_ZN15wxActivateEventC2Eibi
_ZN15wxActivateEventC2ERKS_
_ZN15wxActivateEventC5Eibi
_ZN15wxActivateEventC5ERKS_
_ZN15wxActivateEventD0Ev
_ZN15wxActivateEventD1Ev
_ZN15wxActivateEventD2Ev
_ZN15wxActivateEventD5Ev
_ZN15wxAdoptedWindow9SetHandleEPv
_ZN15wxAdoptedWindowC1EPv
_ZN15wxAdoptedWindowC1Ev
_ZN15wxAdoptedWindowC2EPv
_ZN15wxAdoptedWindowC2Ev
_ZN15wxAdoptedWindowD0Ev
_ZN15wxAdoptedWindowD1Ev
_ZN15wxAdoptedWindowD2Ev
_ZN15wxAnimationBase12ms_classInfoE
_ZN15wxAnimationBaseaSERKS_
_ZN15wxAnimationBaseC1EOS_
_ZN15wxAnimationBaseC1ERKS_
_ZN15wxAnimationBaseC1Ev
_ZN15wxAnimationBaseC2EOS_
_ZN15wxAnimationBaseC2ERKS_
_ZN15wxAnimationBaseC2Ev
_ZN15wxAnimationBaseC5EOS_
_ZN15wxAnimationBaseC5ERKS_
_ZN15wxAnimationBaseC5Ev
_ZN15wxAnimationBaseD0Ev
_ZN15wxAnimationBaseD1Ev
_ZN15wxAnimationBaseD2Ev
_ZN15wxAnimationBaseD5Ev
_ZN15wxAnimationCtrl12ms_classInfoE
_ZN15wxAnimationCtrl12SetAnimationERK11wxAnimation
_ZN15wxAnimationCtrl13sm_eventTableE
_ZN15wxAnimationCtrl14FitToAnimationEv
_ZN15wxAnimationCtrl16DrawCurrentFrameER4wxDC
_ZN15wxAnimationCtrl17SetInactiveBitmapERK8wxBitmap
_ZN15wxAnimationCtrl17sm_eventHashTableE
_ZN15wxAnimationCtrl18DisplayStaticImageEv
_ZN15wxAnimationCtrl19DisposeToBackgroundER4wxDC
_ZN15wxAnimationCtrl19DisposeToBackgroundER4wxDCRK7wxPointRK6wxSize
_ZN15wxAnimationCtrl19DisposeToBackgroundEv
_ZN15wxAnimationCtrl19SetBackgroundColourERK8wxColour
_ZN15wxAnimationCtrl20sm_eventTableEntriesE
_ZN15wxAnimationCtrl28RebuildBackingStoreUpToFrameEj
_ZN15wxAnimationCtrl28SetUseWindowBackgroundColourEb
_ZN15wxAnimationCtrl29IncrementalUpdateBackingStoreEv
_ZN15wxAnimationCtrl4InitEv
_ZN15wxAnimationCtrl4PlayEb
_ZN15wxAnimationCtrl4PlayEv
_ZN15wxAnimationCtrl4StopEv
_ZN15wxAnimationCtrl6CreateEP8wxWindowiRK11wxAnimationRK7wxPointRK6wxSizelRK8wxString
_ZN15wxAnimationCtrl6OnSizeER11wxSizeEvent
_ZN15wxAnimationCtrl7OnPaintER12wxPaintEvent
_ZN15wxAnimationCtrl7OnTimerER12wxTimerEvent
_ZN15wxAnimationCtrl8LoadFileERK8wxString15wxAnimationType
_ZN15wxAnimationCtrl9DrawFrameER4wxDCj
_ZN15wxAnimationCtrlC1Ev
_ZN15wxAnimationCtrlC2Ev
_ZN15wxAnimationCtrlC5Ev
_ZN15wxAnimationCtrlD0Ev
_ZN15wxAnimationCtrlD1Ev
_ZN15wxAnimationCtrlD2Ev
_ZN15wxAppTraitsBase16GetStandardPathsEv
_ZN15wxAppTraitsBase16ShowAssertDialogERK8wxString
_ZN15wxAppTraitsBase19GetAssertStackTraceEv
_ZN15wxAppTraitsBaseC1Ev
_ZN15wxAppTraitsBaseC2Ev
_ZN15wxAppTraitsBaseC5Ev
_ZN15wxAppTraitsBaseD0Ev
_ZN15wxAppTraitsBaseD1Ev
_ZN15wxAppTraitsBaseD2Ev
_ZN15wxAppTraitsBaseD5Ev
_ZN15wxArrayHandlers6InsertEP14wxInputHandlermm
_ZN15wxArrayHandlersC1Ev
_ZN15wxArrayHandlersC2Ev
_ZN15wxArrayHandlersC5Ev
_ZN15wxArrayHandlersD1Ev
_ZN15wxArrayHandlersD2Ev
_ZN15wxArrayHandlersD5Ev
_ZN15wxAuiDockUIPartC1Ev
_ZN15wxAuiDockUIPartC2Ev
_ZN15wxAuiDockUIPartC5Ev
_ZN15wxAuiToolBarArtC1Ev
_ZN15wxAuiToolBarArtC2Ev
_ZN15wxAuiToolBarArtC5Ev
_ZN15wxAuiToolBarArtD0Ev
_ZN15wxAuiToolBarArtD1Ev
_ZN15wxAuiToolBarArtD2Ev
_ZN15wxAuiToolBarArtD5Ev
_ZN15wxBaseArrayChar3AddEcm
_ZN15wxBaseArrayChar3AddEcPFiPKvS1_E
_ZN15wxBaseArrayChar4GrowEm
_ZN15wxBaseArrayChar4SortEPFiPKvS1_E
_ZN15wxBaseArrayChar5AllocEm
_ZN15wxBaseArrayChar5beginEv
_ZN15wxBaseArrayChar5clearEv
_ZN15wxBaseArrayChar5ClearEv
_ZN15wxBaseArrayChar6assignEmRKc
_ZN15wxBaseArrayChar6assignEPKcS1_
_ZN15wxBaseArrayChar6InsertEcmm
_ZN15wxBaseArrayChar6insertEPcPKcS2_
_ZN15wxBaseArrayChar6RemoveEc
_ZN15wxBaseArrayChar6ShrinkEv
_ZN15wxBaseArrayChar7ReallocEm
_ZN15wxBaseArrayChar7reserveEm
_ZN15wxBaseArrayChar8RemoveAtEmm
_ZN15wxBaseArrayChar8SetCountEmc
_ZN15wxBaseArrayChar9push_backERKc
_ZN15wxBaseArrayCharaSERKS_
_ZN15wxBaseArrayCharC1ERKS_
_ZN15wxBaseArrayCharC1Ev
_ZN15wxBaseArrayCharC2ERKS_
_ZN15wxBaseArrayCharC2Ev
_ZN15wxBaseArrayCharD1Ev
_ZN15wxBaseArrayCharD2Ev
_ZN15wxBaseArrayLong3AddElm
_ZN15wxBaseArrayLong3AddElPFiPKvS1_E
_ZN15wxBaseArrayLong4GrowEm
_ZN15wxBaseArrayLong4SortEPFiPKvS1_E
_ZN15wxBaseArrayLong5AllocEm
_ZN15wxBaseArrayLong5beginEv
_ZN15wxBaseArrayLong5clearEv
_ZN15wxBaseArrayLong5ClearEv
_ZN15wxBaseArrayLong5EmptyEv
_ZN15wxBaseArrayLong6assignEmRKl
_ZN15wxBaseArrayLong6assignEPKlS1_
_ZN15wxBaseArrayLong6InsertElmm
_ZN15wxBaseArrayLong6insertEPlPKlS2_
_ZN15wxBaseArrayLong6RemoveEl
_ZN15wxBaseArrayLong6ShrinkEv
_ZN15wxBaseArrayLong7ReallocEm
_ZN15wxBaseArrayLong7reserveEm
_ZN15wxBaseArrayLong8RemoveAtEmm
_ZN15wxBaseArrayLong8SetCountEml
_ZN15wxBaseArrayLong9push_backERKl
_ZN15wxBaseArrayLongaSERKS_
_ZN15wxBaseArrayLongC1ERKS_
_ZN15wxBaseArrayLongC1Ev
_ZN15wxBaseArrayLongC2ERKS_
_ZN15wxBaseArrayLongC2Ev
_ZN15wxBaseArrayLongD1Ev
_ZN15wxBaseArrayLongD2Ev
_ZN15wxBitmapHandler12ms_classInfoE
_ZN15wxBitmapHandlerC1Ev
_ZN15wxBitmapHandlerC2Ev
_ZN15wxBitmapHandlerC5Ev
_ZN15wxBitmapHandlerD0Ev
_ZN15wxBitmapHandlerD1Ev
_ZN15wxBitmapHandlerD2Ev
_ZN15wxBitmapHandlerD5Ev
_ZN15wxBitmapRefData6CreateEiii
_ZN15wxBitmapRefDataC1ERKS_
_ZN15wxBitmapRefDataC1Ev
_ZN15wxBitmapRefDataC2ERKS_
_ZN15wxBitmapRefDataC2Ev
_ZN15wxBitmapRefDataD0Ev
_ZN15wxBitmapRefDataD1Ev
_ZN15wxBitmapRefDataD2Ev
_ZN15wxCalendarEvent12ms_classInfoE
_ZN15wxCalendarEvent14wxCreateObjectEv
_ZN15wxCalendarEvent4InitEv
_ZN15wxCalendarEventC1EP14wxCalendarCtrli
_ZN15wxCalendarEventC1Ev
_ZN15wxCalendarEventC2EP14wxCalendarCtrli
_ZN15wxCalendarEventC2Ev
_ZN15wxCalendarEventC5EP14wxCalendarCtrli
_ZN15wxCalendarEventC5Ev
_ZN15wxCalendarEventD0Ev
_ZN15wxCalendarEventD1Ev
_ZN15wxCalendarEventD2Ev
_ZN15wxCalendarEventD5Ev
_ZN15wxClipboardBase19UsePrimarySelectionEb
_ZN15wxClipboardBase3GetEv
_ZN15wxClipboardBase5FlushEv
_ZN15wxClipboardBaseC1Ev
_ZN15wxClipboardBaseC2Ev
_ZN15wxClipboardBaseC5Ev
_ZN15wxClipboardBaseD0Ev
_ZN15wxClipboardBaseD1Ev
_ZN15wxClipboardBaseD2Ev
_ZN15wxClipboardBaseD5Ev
_ZN15wxCmdLineOption10SetDateValERK10wxDateTime
_ZN15wxCmdLineOption10SetLongValEl
_ZN15wxCmdLineOption11SetHasValueEb
_ZN15wxCmdLineOption9SetStrValERK8wxString
_ZN15wxCmdLineOptionC1E18wxCmdLineEntryTypeRK8wxStringS3_S3_18wxCmdLineParamTypei
_ZN15wxCmdLineOptionC1ERKS_
_ZN15wxCmdLineOptionC2E18wxCmdLineEntryTypeRK8wxStringS3_S3_18wxCmdLineParamTypei
_ZN15wxCmdLineOptionC2ERKS_
_ZN15wxCmdLineOptionC5E18wxCmdLineEntryTypeRK8wxStringS3_S3_18wxCmdLineParamTypei
_ZN15wxCmdLineOptionC5ERKS_
_ZN15wxCmdLineOptionD1Ev
_ZN15wxCmdLineOptionD2Ev
_ZN15wxCmdLineOptionD5Ev
_ZN15wxCmdLineParser10SetCmdLineEiPPc
_ZN15wxCmdLineParser10SetCmdLineERK8wxString
_ZN15wxCmdLineParser14GetUsageStringEv
_ZN15wxCmdLineParser14SetSwitchCharsERK8wxString
_ZN15wxCmdLineParser17EnableLongOptionsEb
_ZN15wxCmdLineParser19ConvertStringToArgsEPKc
_ZN15wxCmdLineParser21AreLongOptionsEnabledEv
_ZN15wxCmdLineParser4InitEv
_ZN15wxCmdLineParser5ParseEb
_ZN15wxCmdLineParser5ResetEv
_ZN15wxCmdLineParser5UsageEv
_ZN15wxCmdLineParser7SetDescEPK18wxCmdLineEntryDesc
_ZN15wxCmdLineParser7SetLogoERK8wxString
_ZN15wxCmdLineParser8AddParamERK8wxString18wxCmdLineParamTypei
_ZN15wxCmdLineParser9AddOptionERK8wxStringS2_S2_18wxCmdLineParamTypei
_ZN15wxCmdLineParser9AddSwitchERK8wxStringS2_S2_i
_ZN15wxCmdLineParserC1EiPPc
_ZN15wxCmdLineParserC2EiPPc
_ZN15wxCmdLineParserC5EiPPc
_ZN15wxCmdLineParserD1Ev
_ZN15wxCmdLineParserD2Ev
_ZN15wxColourRefData10FreeColourEv
_ZN15wxColourRefData11AllocColourEPv
_ZN15wxColourRefData18colMapAllocCounterE
_ZN15wxColourRefDataC1ERKS_
_ZN15wxColourRefDataC1Ev
_ZN15wxColourRefDataC2ERKS_
_ZN15wxColourRefDataC2Ev
_ZN15wxColourRefDataC5ERKS_
_ZN15wxColourRefDataC5Ev
_ZN15wxColourRefDataD0Ev
_ZN15wxColourRefDataD1Ev
_ZN15wxColourRefDataD2Ev
_ZN15wxColourRefDataD5Ev
_ZN15wxComboCtrlBase10DrawButtonER4wxDCRK6wxRecti
_ZN15wxComboCtrlBase10OnKeyEventER10wxKeyEvent
_ZN15wxComboCtrlBase11AnimateShowERK6wxRecti
_ZN15wxComboCtrlBase11CreatePopupEv
_ZN15wxComboCtrlBase11DoShowPopupERK6wxRecti
_ZN15wxComboCtrlBase11OnIdleEventER11wxIdleEvent
_ZN15wxComboCtrlBase11OnSizeEventER11wxSizeEvent
_ZN15wxComboCtrlBase12DestroyPopupEv
_ZN15wxComboCtrlBase12GetValidatorEv
_ZN15wxComboCtrlBase12ms_classInfoE
_ZN15wxComboCtrlBase12OnFocusEventER12wxFocusEvent
_ZN15wxComboCtrlBase12SetSelectionEll
_ZN15wxComboCtrlBase12SetValidatorERK11wxValidator
_ZN15wxComboCtrlBase13GetButtonSizeEv
_ZN15wxComboCtrlBase13OnButtonClickEv
_ZN15wxComboCtrlBase13OnThemeChangeEv
_ZN15wxComboCtrlBase13SetTextIndentEi
_ZN15wxComboCtrlBase13sm_eventTableE
_ZN15wxComboCtrlBase14CalculateAreasEi
_ZN15wxComboCtrlBase14CreateTextCtrlEiRK11wxValidator
_ZN15wxComboCtrlBase14OnPopupDismissEv
_ZN15wxComboCtrlBase14SetCtrlMainWndEP8wxWindow
_ZN15wxComboCtrlBase15GetPopupControlEv
_ZN15wxComboCtrlBase15OnTextCtrlEventER14wxCommandEvent
_ZN15wxComboCtrlBase15SetPopupControlEP12wxComboPopup
_ZN15wxComboCtrlBase16PositionTextCtrlEii
_ZN15wxComboCtrlBase16RecalcAndRefreshEv
_ZN15wxComboCtrlBase16SetButtonBitmapsERK8wxBitmapbS2_S2_S2_
_ZN15wxComboCtrlBase17DoSetPopupControlEP12wxComboPopup
_ZN15wxComboCtrlBase17SetButtonPositionEiiii
_ZN15wxComboCtrlBase17SetInsertionPointEl
_ZN15wxComboCtrlBase17SetPopupMaxHeightEi
_ZN15wxComboCtrlBase17SetValueWithEventERK8wxStringb
_ZN15wxComboCtrlBase17sm_eventHashTableE
_ZN15wxComboCtrlBase18EnsurePopupControlEv
_ZN15wxComboCtrlBase18OnSysColourChangedER23wxSysColourChangedEvent
_ZN15wxComboCtrlBase19SetCustomPaintWidthEi
_ZN15wxComboCtrlBase20InstallInputHandlersEv
_ZN15wxComboCtrlBase20PreprocessMouseEventER12wxMouseEventi
_ZN15wxComboCtrlBase20SetInsertionPointEndEv
_ZN15wxComboCtrlBase20sm_eventTableEntriesE
_ZN15wxComboCtrlBase22HandleButtonMouseEventER12wxMouseEventi
_ZN15wxComboCtrlBase22HandleNormalMouseEventER12wxMouseEvent
_ZN15wxComboCtrlBase31GetMainWindowOfCompositeControlEv
_ZN15wxComboCtrlBase3CutEv
_ZN15wxComboCtrlBase4CopyEv
_ZN15wxComboCtrlBase4InitEv
_ZN15wxComboCtrlBase4ShowEb
_ZN15wxComboCtrlBase4UndoEv
_ZN15wxComboCtrlBase5PasteEv
_ZN15wxComboCtrlBase6CreateEP8wxWindowiRK8wxStringRK7wxPointRK6wxSizelRK11wxValidatorS4_
_ZN15wxComboCtrlBase6EnableEb
_ZN15wxComboCtrlBase6RemoveEll
_ZN15wxComboCtrlBase7ReplaceEllRK8wxString
_ZN15wxComboCtrlBase7SetFontERK6wxFont
_ZN15wxComboCtrlBase7SetTextERK8wxString
_ZN15wxComboCtrlBase8SetValueERK8wxString
_ZN15wxComboCtrlBase9HidePopupEv
_ZN15wxComboCtrlBase9ShowPopupEv
_ZN15wxComboCtrlBaseC1Ev
_ZN15wxComboCtrlBaseC2Ev
_ZN15wxComboCtrlBaseC5Ev
_ZN15wxComboCtrlBaseD0Ev
_ZN15wxComboCtrlBaseD1Ev
_ZN15wxComboCtrlBaseD2Ev
_ZN15wxCursorRefDataC1Ev
_ZN15wxCursorRefDataC2Ev
_ZN15wxCursorRefDataD0Ev
_ZN15wxCursorRefDataD1Ev
_ZN15wxCursorRefDataD2Ev
_ZN15wxDateTimeArray3AddERK10wxDateTimem
_ZN15wxDateTimeArray4SortEPFiPP10wxDateTimeS2_E
_ZN15wxDateTimeArray5AllocEm
_ZN15wxDateTimeArray5ClearEv
_ZN15wxDateTimeArray5EmptyEv
_ZN15wxDateTimeArray6DoCopyERKS_
_ZN15wxDateTimeArray6InsertERK10wxDateTimemm
_ZN15wxDateTimeArray7DoEmptyEv
_ZN15wxDateTimeArray8RemoveAtEmm
_ZN15wxDateTimeArray9push_backERK10wxDateTime
_ZN15wxDateTimeArrayaSERKS_
_ZN15wxDateTimeArrayC1ERKS_
_ZN15wxDateTimeArrayC1Ev
_ZN15wxDateTimeArrayC2ERKS_
_ZN15wxDateTimeArrayC2Ev
_ZN15wxDateTimeArrayC5Ev
_ZN15wxDateTimeArrayD1Ev
_ZN15wxDateTimeArrayD2Ev
_ZN15wxDelegateTheme11GetRendererEv
_ZN15wxDelegateTheme14GetArtProviderEv
_ZN15wxDelegateTheme15GetColourSchemeEv
_ZN15wxDelegateTheme15GetInputHandlerERK8wxStringP15wxInputConsumer
_ZN15wxDelegateTheme16GetOrCreateThemeEv
_ZN15wxDelegateThemeC1EPKc
_ZN15wxDelegateThemeC2EPKc
_ZN15wxDelegateThemeD0Ev
_ZN15wxDelegateThemeD1Ev
_ZN15wxDelegateThemeD2Ev
_ZN15wxDialUpManager6CreateEv
_ZN15wxDialUpManagerC1Ev
_ZN15wxDialUpManagerC2Ev
_ZN15wxDialUpManagerC5Ev
_ZN15wxDialUpManagerD0Ev
_ZN15wxDialUpManagerD1Ev
_ZN15wxDialUpManagerD2Ev
_ZN15wxDialUpManagerD5Ev
_ZN15wxDirDialogBase10SetMessageERK8wxString
_ZN15wxDirDialogBase6CreateEP8wxWindowRK8wxStringS4_lRK7wxPointRK6wxSizeS4_
_ZN15wxDirDialogBase7SetPathERK8wxString
_ZN15wxDirDialogBase8SetStyleEl
_ZN15wxDirDialogBaseC1Ev
_ZN15wxDirDialogBaseC2Ev
_ZN15wxDirDialogBaseC5Ev
_ZN15wxDirDialogBaseD0Ev
_ZN15wxDirDialogBaseD1Ev
_ZN15wxDirDialogBaseD2Ev
_ZN15wxDirDialogBaseD5Ev
_ZN15wxDirPickerCtrl12CreatePickerEP8wxWindowRK8wxStringS4_S4_
_ZN15wxDirPickerCtrl12ms_classInfoE
_ZN15wxDirPickerCtrl14wxCreateObjectEv
_ZN15wxDirPickerCtrl6CreateEP8wxWindowiRK8wxStringS4_RK7wxPointRK6wxSizelRK11wxValidatorS4_
_ZN15wxDirPickerCtrlC1Ev
_ZN15wxDirPickerCtrlC2Ev
_ZN15wxDirPickerCtrlC5Ev
_ZN15wxDirPickerCtrlD0Ev
_ZN15wxDirPickerCtrlD1Ev
_ZN15wxDirPickerCtrlD2Ev
_ZN15wxDirPickerCtrlD5Ev
_ZN15wxDisplayModule12ms_classInfoE
_ZN15wxDisplayModule14wxCreateObjectEv
_ZN15wxDisplayModule6OnExitEv
_ZN15wxDisplayModule6OnInitEv
_ZN15wxDisplayModuleC1Ev
_ZN15wxDisplayModuleC2Ev
_ZN15wxDisplayModuleC5Ev
_ZN15wxDisplayModuleD0Ev
_ZN15wxDisplayModuleD1Ev
_ZN15wxDisplayModuleD2Ev
_ZN15wxDisplayModuleD5Ev
_ZN15wxDocChildFrame10OnActivateER15wxActivateEvent
_ZN15wxDocChildFrame12ms_classInfoE
_ZN15wxDocChildFrame12ProcessEventER7wxEvent
_ZN15wxDocChildFrame13OnCloseWindowER12wxCloseEvent
_ZN15wxDocChildFrame13sm_eventTableE
_ZN15wxDocChildFrame17sm_eventHashTableE
_ZN15wxDocChildFrame20sm_eventTableEntriesE
_ZN15wxDocChildFrame7DestroyEv
_ZN15wxDocChildFrameC1EP10wxDocumentP6wxViewP7wxFrameiRK8wxStringRK7wxPointRK6wxSizelS8_
_ZN15wxDocChildFrameC2EP10wxDocumentP6wxViewP7wxFrameiRK8wxStringRK7wxPointRK6wxSizelS8_
_ZN15wxDocChildFrameD0Ev
_ZN15wxDocChildFrameD1Ev
_ZN15wxDocChildFrameD2Ev
_ZN15wxDocChildFrameD5Ev
_ZN15wxEventLoopBase13ms_activeLoopE
_ZN15wxEventLoopBase6OnExitEv
_ZN15wxEventLoopBase9GetActiveEv
_ZN15wxEventLoopBase9SetActiveEP11wxEventLoop
_ZN15wxEventLoopBaseC1Ev
_ZN15wxEventLoopBaseC2Ev
_ZN15wxEventLoopBaseC5Ev
_ZN15wxEventLoopBaseD0Ev
_ZN15wxEventLoopBaseD1Ev
_ZN15wxEventLoopBaseD2Ev
_ZN15wxEventLoopBaseD5Ev
_ZN15wxEventLoopImpl11SetExitCodeEi
_ZN15wxEventLoopImpl12ProcessEventEP7_XEvent
_ZN15wxEventLoopImpl13SendIdleEventEv
_ZN15wxEventLoopImpl15PreProcessEventEP7_XEvent
_ZN15wxEventLoopImplC1Ev
_ZN15wxEventLoopImplC2Ev
_ZN15wxEventLoopImplC5Ev
_ZN15wxFileIconEntryC1Ei
_ZN15wxFileIconEntryC2Ei
_ZN15wxFileIconEntryC5Ei
_ZN15wxFileIconEntryD0Ev
_ZN15wxFileIconEntryD1Ev
_ZN15wxFileIconEntryD2Ev
_ZN15wxFileIconEntryD5Ev
_ZN15wxFlexGridSizer11RecalcSizesEv
_ZN15wxFlexGridSizer12ms_classInfoE
_ZN15wxFlexGridSizer14AddGrowableColEmi
_ZN15wxFlexGridSizer14AddGrowableRowEmi
_ZN15wxFlexGridSizer17RemoveGrowableColEm
_ZN15wxFlexGridSizer17RemoveGrowableRowEm
_ZN15wxFlexGridSizer18AdjustForGrowablesERK6wxSizeS2_ii
_ZN15wxFlexGridSizer22AdjustForFlexDirectionEv
_ZN15wxFlexGridSizer7CalcMinEv
_ZN15wxFlexGridSizerC1Eiii
_ZN15wxFlexGridSizerC1Eiiii
_ZN15wxFlexGridSizerC2Eiii
_ZN15wxFlexGridSizerC2Eiiii
_ZN15wxFlexGridSizerD0Ev
_ZN15wxFlexGridSizerD1Ev
_ZN15wxFlexGridSizerD2Ev
_ZN15wxFontPreviewer13sm_eventTableE
_ZN15wxFontPreviewer17sm_eventHashTableE
_ZN15wxFontPreviewer20sm_eventTableEntriesE
_ZN15wxFontPreviewer7OnPaintER12wxPaintEvent
_ZN15wxFontPreviewerC1EP8wxWindowRK6wxSize
_ZN15wxFontPreviewerC2EP8wxWindowRK6wxSize
_ZN15wxFontPreviewerC5EP8wxWindowRK6wxSize
_ZN15wxFontPreviewerD0Ev
_ZN15wxFontPreviewerD1Ev
_ZN15wxFontPreviewerD2Ev
_ZN15wxFontPreviewerD5Ev
_ZN15wxFSHandlerHashC1Em13wxPointerHash14wxPointerEqual
_ZN15wxFSHandlerHashC2Em13wxPointerHash14wxPointerEqual
_ZN15wxFSHandlerHashC5Em13wxPointerHash14wxPointerEqual
_ZN15wxFSHandlerHashD1Ev
_ZN15wxFSHandlerHashD2Ev
_ZN15wxFSHandlerHashD5Ev
_ZN15wxFSHandlerHashixERKPKv
_ZN15wxGridSelection10SelectCellEiibbbbb
_ZN15wxGridSelection10UpdateColsEmi
_ZN15wxGridSelection10UpdateRowsEmi
_ZN15wxGridSelection11IsSelectionEv
_ZN15wxGridSelection11SelectBlockEiiiibbbbb
_ZN15wxGridSelection12BlockContainEiiiiiiii
_ZN15wxGridSelection13IsInSelectionEii
_ZN15wxGridSelection14ClearSelectionEv
_ZN15wxGridSelection16GetSelectionModeEv
_ZN15wxGridSelection16SetSelectionModeEN6wxGrid20wxGridSelectionModesE
_ZN15wxGridSelection17BlockContainsCellEiiiiii
_ZN15wxGridSelection19ToggleCellSelectionEiibbbb
_ZN15wxGridSelection9SelectColEibbbb
_ZN15wxGridSelection9SelectRowEibbbb
_ZN15wxGridSelectionC1EP6wxGridNS0_20wxGridSelectionModesE
_ZN15wxGridSelectionC2EP6wxGridNS0_20wxGridSelectionModesE
_ZN15wxGridSelectionD1Ev
_ZN15wxGridSelectionD2Ev
_ZN15wxGridSelectionD5Ev
_ZN15wxGridSizeEvent12ms_classInfoE
_ZN15wxGridSizeEvent14wxCreateObjectEv
_ZN15wxGridSizeEventC1EiiP8wxObjectiiibbbb
_ZN15wxGridSizeEventC1ERKS_
_ZN15wxGridSizeEventC1Ev
_ZN15wxGridSizeEventC2EiiP8wxObjectiiibbbb
_ZN15wxGridSizeEventC2ERKS_
_ZN15wxGridSizeEventC2Ev
_ZN15wxGridSizeEventC5ERKS_
_ZN15wxGridSizeEventC5Ev
_ZN15wxGridSizeEventD0Ev
_ZN15wxGridSizeEventD1Ev
_ZN15wxGridSizeEventD2Ev
_ZN15wxGridSizeEventD5Ev
_ZN15wxGridSubwindow13sm_eventTableE
_ZN15wxGridSubwindow17sm_eventHashTableE
_ZN15wxGridSubwindow18OnMouseCaptureLostER23wxMouseCaptureLostEvent
_ZN15wxGridSubwindow20sm_eventTableEntriesE
_ZN15wxGridSubwindow8GetOwnerEv
_ZN15wxGridSubwindowC1EP6wxGridiRK7wxPointRK6wxSizeiRK8wxString
_ZN15wxGridSubwindowC1Ev
_ZN15wxGridSubwindowC2EP6wxGridiRK7wxPointRK6wxSizeiRK8wxString
_ZN15wxGridSubwindowC2Ev
_ZN15wxGridSubwindowC5EP6wxGridiRK7wxPointRK6wxSizeiRK8wxString
_ZN15wxGridSubwindowC5Ev
_ZN15wxGridSubwindowD0Ev
_ZN15wxGridSubwindowD1Ev
_ZN15wxGridSubwindowD2Ev
_ZN15wxGridSubwindowD5Ev
_ZN15wxGridTableBase10AppendColsEm
_ZN15wxGridTableBase10AppendRowsEm
_ZN15wxGridTableBase10DeleteColsEmm
_ZN15wxGridTableBase10DeleteRowsEmm
_ZN15wxGridTableBase10InsertColsEmm
_ZN15wxGridTableBase10InsertRowsEmm
_ZN15wxGridTableBase10SetColAttrEP14wxGridCellAttri
_ZN15wxGridTableBase10SetRowAttrEP14wxGridCellAttri
_ZN15wxGridTableBase11GetTypeNameEii
_ZN15wxGridTableBase12ms_classInfoE
_ZN15wxGridTableBase13CanGetValueAsEiiRK8wxString
_ZN15wxGridTableBase13CanSetValueAsEiiRK8wxString
_ZN15wxGridTableBase14GetValueAsBoolEii
_ZN15wxGridTableBase14GetValueAsLongEii
_ZN15wxGridTableBase14SetValueAsBoolEiib
_ZN15wxGridTableBase14SetValueAsLongEiil
_ZN15wxGridTableBase15SetAttrProviderEP22wxGridCellAttrProvider
_ZN15wxGridTableBase16GetColLabelValueEi
_ZN15wxGridTableBase16GetRowLabelValueEi
_ZN15wxGridTableBase16GetValueAsCustomEiiRK8wxString
_ZN15wxGridTableBase16GetValueAsDoubleEii
_ZN15wxGridTableBase16SetColLabelValueEiRK8wxString
_ZN15wxGridTableBase16SetRowLabelValueEiRK8wxString
_ZN15wxGridTableBase16SetValueAsCustomEiiRK8wxStringPv
_ZN15wxGridTableBase16SetValueAsDoubleEiid
_ZN15wxGridTableBase17CanHaveAttributesEv
_ZN15wxGridTableBase5ClearEv
_ZN15wxGridTableBase7GetAttrEiiN14wxGridCellAttr10wxAttrKindE
_ZN15wxGridTableBase7SetAttrEP14wxGridCellAttrii
_ZN15wxGridTableBase7SetViewEP6wxGrid
_ZN15wxGridTableBaseC1Ev
_ZN15wxGridTableBaseC2Ev
_ZN15wxGridTableBaseD0Ev
_ZN15wxGridTableBaseD1Ev
_ZN15wxGridTableBaseD2Ev
_ZN15wxHashTableBase12DoInsertNodeEmP20wxHashTableBase_Node
_ZN15wxHashTableBase12DoRemoveNodeEP20wxHashTableBase_Node
_ZN15wxHashTableBase12DoUnlinkNodeEmP20wxHashTableBase_NodeS1_
_ZN15wxHashTableBase13DoDestroyNodeEP20wxHashTableBase_Node
_ZN15wxHashTableBase5ClearEv
_ZN15wxHashTableBase5DoPutEllPv
_ZN15wxHashTableBase5DoPutEPKclPv
_ZN15wxHashTableBase6CreateE9wxKeyTypem
_ZN15wxHashTableBase7DestroyEv
_ZN15wxHashTableBase7MakeKeyEPKc
_ZN15wxHashTableBase8DoDeleteEll
_ZN15wxHashTableBase8DoDeleteEPKcl
_ZN15wxHashTableBaseC1Ev
_ZN15wxHashTableBaseC2Ev
_ZN15wxHashTableBaseD0Ev
_ZN15wxHashTableBaseD1Ev
_ZN15wxHashTableBaseD2Ev
_ZN15wxHashTableBaseD5Ev
_ZN15wxHtmlCellEvent12ms_classInfoE
_ZN15wxHtmlCellEvent14wxCreateObjectEv
_ZN15wxHtmlCellEventC1EiiP10wxHtmlCellRK7wxPointRK12wxMouseEvent
_ZN15wxHtmlCellEventC1ERKS_
_ZN15wxHtmlCellEventC1Ev
_ZN15wxHtmlCellEventC2EiiP10wxHtmlCellRK7wxPointRK12wxMouseEvent
_ZN15wxHtmlCellEventC2ERKS_
_ZN15wxHtmlCellEventC2Ev
_ZN15wxHtmlCellEventC5EiiP10wxHtmlCellRK7wxPointRK12wxMouseEvent
_ZN15wxHtmlCellEventC5ERKS_
_ZN15wxHtmlCellEventC5Ev
_ZN15wxHtmlCellEventD0Ev
_ZN15wxHtmlCellEventD1Ev
_ZN15wxHtmlCellEventD2Ev
_ZN15wxHtmlCellEventD5Ev
_ZN15wxHtmlHelpFrame10OnActivateER15wxActivateEvent
_ZN15wxHtmlHelpFrame12ms_classInfoE
_ZN15wxHtmlHelpFrame13OnCloseWindowER12wxCloseEvent
_ZN15wxHtmlHelpFrame13SetControllerEP20wxHtmlHelpController
_ZN15wxHtmlHelpFrame13sm_eventTableE
_ZN15wxHtmlHelpFrame14SetTitleFormatERK8wxString
_ZN15wxHtmlHelpFrame14wxCreateObjectEv
_ZN15wxHtmlHelpFrame15AddGrabIfNeededEv
_ZN15wxHtmlHelpFrame17AddToolbarButtonsEP9wxToolBari
_ZN15wxHtmlHelpFrame17sm_eventHashTableE
_ZN15wxHtmlHelpFrame20sm_eventTableEntriesE
_ZN15wxHtmlHelpFrame4InitEP14wxHtmlHelpData
_ZN15wxHtmlHelpFrame6CreateEP8wxWindowiRK8wxStringiP12wxConfigBaseS4_
_ZN15wxHtmlHelpFrame9UseConfigEP12wxConfigBaseRK8wxString
_ZN15wxHtmlHelpFrameC1EP14wxHtmlHelpData
_ZN15wxHtmlHelpFrameC1EP8wxWindowiRK8wxStringiP14wxHtmlHelpDataP12wxConfigBaseS4_
_ZN15wxHtmlHelpFrameC2EP14wxHtmlHelpData
_ZN15wxHtmlHelpFrameC2EP8wxWindowiRK8wxStringiP14wxHtmlHelpDataP12wxConfigBaseS4_
_ZN15wxHtmlHelpFrameC5EP14wxHtmlHelpData
_ZN15wxHtmlHelpFrameD0Ev
_ZN15wxHtmlHelpFrameD1Ev
_ZN15wxHtmlHelpFrameD2Ev
_ZN15wxHtmlImageCell16AdvanceAnimationEP7wxTimer
_ZN15wxHtmlImageCell4DrawER4wxDCiiiiR19wxHtmlRenderingInfo
_ZN15wxHtmlImageCell6LayoutEi
_ZN15wxHtmlImageCell8SetImageERK7wxImage
_ZN15wxHtmlImageCellC1EP21wxHtmlWindowInterfaceP8wxFSFileiidiRK8wxString
_ZN15wxHtmlImageCellC2EP21wxHtmlWindowInterfaceP8wxFSFileiidiRK8wxString
_ZN15wxHtmlImageCellD0Ev
_ZN15wxHtmlImageCellD1Ev
_ZN15wxHtmlImageCellD2Ev
_ZN15wxHtmlLinkEvent12ms_classInfoE
_ZN15wxHtmlLinkEvent14wxCreateObjectEv
_ZN15wxHtmlLinkEventC1EiRK14wxHtmlLinkInfo
_ZN15wxHtmlLinkEventC1ERKS_
_ZN15wxHtmlLinkEventC1Ev
_ZN15wxHtmlLinkEventC2EiRK14wxHtmlLinkInfo
_ZN15wxHtmlLinkEventC2ERKS_
_ZN15wxHtmlLinkEventC2Ev
_ZN15wxHtmlLinkEventC5EiRK14wxHtmlLinkInfo
_ZN15wxHtmlLinkEventC5ERKS_
_ZN15wxHtmlLinkEventC5Ev
_ZN15wxHtmlLinkEventD0Ev
_ZN15wxHtmlLinkEventD1Ev
_ZN15wxHtmlLinkEventD2Ev
_ZN15wxHtmlLinkEventD5Ev
_ZN15wxHtmlModalHelpC1EP8wxWindowRK8wxStringS4_i
_ZN15wxHtmlModalHelpC2EP8wxWindowRK8wxStringS4_i
_ZN15wxHtmlProcessor12ms_classInfoE
_ZN15wxHtmlProcessor6EnableEb
_ZN15wxHtmlSelection12ClearPrivPosEv
_ZN15wxHtmlSelection12SetToPrivPosERK7wxPoint
_ZN15wxHtmlSelection14SetFromPrivPosERK7wxPoint
_ZN15wxHtmlSelection3SetEPK10wxHtmlCellS2_
_ZN15wxHtmlSelection3SetERK7wxPointPK10wxHtmlCellS2_S5_
_ZN15wxHtmlSelectionC1Ev
_ZN15wxHtmlSelectionC2Ev
_ZN15wxHtmlSelectionC5Ev
_ZN15wxHtmlTableCell11ReallocColsEi
_ZN15wxHtmlTableCell11ReallocRowsEi
_ZN15wxHtmlTableCell18RemoveExtraSpacingEbb
_ZN15wxHtmlTableCell19ComputeMinMaxWidthsEv
_ZN15wxHtmlTableCell6AddRowERK9wxHtmlTag
_ZN15wxHtmlTableCell6LayoutEi
_ZN15wxHtmlTableCell7AddCellEP19wxHtmlContainerCellRK9wxHtmlTag
_ZN15wxHtmlTableCellC1EP19wxHtmlContainerCellRK9wxHtmlTagd
_ZN15wxHtmlTableCellC2EP19wxHtmlContainerCellRK9wxHtmlTagd
_ZN15wxHtmlTableCellD0Ev
_ZN15wxHtmlTableCellD1Ev
_ZN15wxHtmlTableCellD2Ev
_ZN15wxHtmlTagsCache12ms_classInfoE
_ZN15wxHtmlTagsCache8QueryTagEiPiS0_
_ZN15wxHtmlTagsCacheC1ERK8wxString
_ZN15wxHtmlTagsCacheC2ERK8wxString
_ZN15wxHtmlTagsCacheD0Ev
_ZN15wxHtmlTagsCacheD1Ev
_ZN15wxHtmlTagsCacheD2Ev
_ZN15wxHtmlTagsCacheD5Ev
_ZN15wxHtmlTextPieceC1Eii
_ZN15wxHtmlTextPieceC2Eii
_ZN15wxHtmlTextPieceC5Eii
_ZN15wxHtmlWinModule12ms_classInfoE
_ZN15wxHtmlWinModule14wxCreateObjectEv
_ZN15wxHtmlWinModule6OnExitEv
_ZN15wxHtmlWinModule6OnInitEv
_ZN15wxHtmlWinModuleC1Ev
_ZN15wxHtmlWinModuleC2Ev
_ZN15wxHtmlWinModuleC5Ev
_ZN15wxHtmlWinModuleD0Ev
_ZN15wxHtmlWinModuleD1Ev
_ZN15wxHtmlWinModuleD2Ev
_ZN15wxHtmlWinModuleD5Ev
_ZN15wxHtmlWinParser10DoneParserEv
_ZN15wxHtmlWinParser10GetProductEv
_ZN15wxHtmlWinParser10InitParserERK8wxString
_ZN15wxHtmlWinParser11AddPreBlockERK8wxString
_ZN15wxHtmlWinParser11SetFontBoldEi
_ZN15wxHtmlWinParser11SetFontFaceERK8wxString
_ZN15wxHtmlWinParser11SetFontSizeEi
_ZN15wxHtmlWinParser12FlushWordBufEPcRic
_ZN15wxHtmlWinParser12ms_classInfoE
_ZN15wxHtmlWinParser12RemoveModuleEP16wxHtmlTagsModule
_ZN15wxHtmlWinParser12SetContainerEP19wxHtmlContainerCell
_ZN15wxHtmlWinParser12SetFontFixedEi
_ZN15wxHtmlWinParser12SetLinkColorERK8wxColour
_ZN15wxHtmlWinParser13GetPixelScaleEv
_ZN15wxHtmlWinParser13OpenContainerEv
_ZN15wxHtmlWinParser13SetFontItalicEi
_ZN15wxHtmlWinParser13SetScriptModeE16wxHtmlScriptMode
_ZN15wxHtmlWinParser14CloseContainerEv
_ZN15wxHtmlWinParser14SetActualColorERK8wxColour
_ZN15wxHtmlWinParser16ApplyStateToCellEP10wxHtmlCell
_ZN15wxHtmlWinParser16SetInputEncodingE14wxFontEncoding
_ZN15wxHtmlWinParser16SetStandardFontsEiRK8wxStringS2_
_ZN15wxHtmlWinParser17CreateCurrentFontEv
_ZN15wxHtmlWinParser17SetFontUnderlinedEi
_ZN15wxHtmlWinParser17SetScriptBaselineEl
_ZN15wxHtmlWinParser17SetWhitespaceModeENS_14WhitespaceModeE
_ZN15wxHtmlWinParser18GetWindowInterfaceEv
_ZN15wxHtmlWinParser5GetDCEv
_ZN15wxHtmlWinParser5SetDCEP4wxDCd
_ZN15wxHtmlWinParser7AddTextEPKc
_ZN15wxHtmlWinParser7AddWordEP14wxHtmlWordCell
_ZN15wxHtmlWinParser7AddWordERK8wxString
_ZN15wxHtmlWinParser7SetLinkERK14wxHtmlLinkInfo
_ZN15wxHtmlWinParser8SetAlignEi
_ZN15wxHtmlWinParser8SetFontsERK8wxStringS2_PKi
_ZN15wxHtmlWinParser9AddModuleEP16wxHtmlTagsModule
_ZN15wxHtmlWinParser9GetWindowEv
_ZN15wxHtmlWinParser9m_ModulesE
_ZN15wxHtmlWinParserC1EP21wxHtmlWindowInterface
_ZN15wxHtmlWinParserC2EP21wxHtmlWindowInterface
_ZN15wxHtmlWinParserD0Ev
_ZN15wxHtmlWinParserD1Ev
_ZN15wxHtmlWinParserD2Ev
_ZN15wxHyperlinkCtrl10OnLeftDownER12wxMouseEvent
_ZN15wxHyperlinkCtrl11OnPopUpCopyER14wxCommandEvent
_ZN15wxHyperlinkCtrl12ms_classInfoE
_ZN15wxHyperlinkCtrl13DoContextMenuERK7wxPoint
_ZN15wxHyperlinkCtrl13OnLeaveWindowER12wxMouseEvent
_ZN15wxHyperlinkCtrl13sm_eventTableE
_ZN15wxHyperlinkCtrl14wxCreateObjectEv
_ZN15wxHyperlinkCtrl15SetNormalColourERK8wxColour
_ZN15wxHyperlinkCtrl16SetVisitedColourERK8wxColour
_ZN15wxHyperlinkCtrl17sm_eventHashTableE
_ZN15wxHyperlinkCtrl20sm_eventTableEntriesE
_ZN15wxHyperlinkCtrl6CreateEP8wxWindowiRK8wxStringS4_RK7wxPointRK6wxSizelS4_
_ZN15wxHyperlinkCtrl6OnSizeER11wxSizeEvent
_ZN15wxHyperlinkCtrl6SetURLERK8wxString
_ZN15wxHyperlinkCtrl7OnPaintER12wxPaintEvent
_ZN15wxHyperlinkCtrl8OnLeftUpER12wxMouseEvent
_ZN15wxHyperlinkCtrl8OnMotionER12wxMouseEvent
_ZN15wxHyperlinkCtrl9OnRightUpER12wxMouseEvent
_ZN15wxHyperlinkCtrlC1EP8wxWindowiRK8wxStringS4_RK7wxPointRK6wxSizelS4_
_ZN15wxHyperlinkCtrlC1Ev
_ZN15wxHyperlinkCtrlC2EP8wxWindowiRK8wxStringS4_RK7wxPointRK6wxSizelS4_
_ZN15wxHyperlinkCtrlC2Ev
_ZN15wxHyperlinkCtrlC5EP8wxWindowiRK8wxStringS4_RK7wxPointRK6wxSizelS4_
_ZN15wxHyperlinkCtrlC5Ev
_ZN15wxHyperlinkCtrlD0Ev
_ZN15wxHyperlinkCtrlD1Ev
_ZN15wxHyperlinkCtrlD2Ev
_ZN15wxHyperlinkCtrlD5Ev
_ZN15wxInputConsumer10OnActivateER15wxActivateEvent
_ZN15wxInputConsumer13PerformActionERK8wxStringlS2_
_ZN15wxInputConsumer18CreateInputHandlerERK8wxString
_ZN15wxInputConsumer20DoGetStdInputHandlerEP14wxInputHandler
_ZN15wxInputConsumer7OnFocusER12wxFocusEvent
_ZN15wxInputConsumer7OnKeyUpER10wxKeyEvent
_ZN15wxInputConsumer7OnMouseER12wxMouseEvent
_ZN15wxInputConsumer9OnKeyDownER10wxKeyEvent
_ZN15wxInputConsumerC1Ev
_ZN15wxInputConsumerC2Ev
_ZN15wxInputConsumerC5Ev
_ZN15wxInputConsumerD0Ev
_ZN15wxInputConsumerD1Ev
_ZN15wxInputConsumerD2Ev
_ZN15wxInputConsumerD5Ev
_ZN15wxItemContainer13SetClientDataEjPv
_ZN15wxItemContainer15SetClientObjectEjP12wxClientData
_ZN15wxItemContainer6AppendERK13wxArrayString
_ZN15wxItemContainer6AppendERK8wxString
_ZN15wxItemContainer6AppendERK8wxStringPv
_ZN15wxItemContainer6InsertERK8wxStringj
_ZN15wxItemContainer6InsertERK8wxStringjP12wxClientData
_ZN15wxItemContainer6InsertERK8wxStringjPv
_ZN15wxItemContainerC1Ev
_ZN15wxItemContainerC2Ev
_ZN15wxItemContainerC5Ev
_ZN15wxItemContainerD0Ev
_ZN15wxItemContainerD1Ev
_ZN15wxItemContainerD2Ev
_ZN15wxJoystickEvent11SetJoystickEi
_ZN15wxJoystickEvent11SetPositionERK7wxPoint
_ZN15wxJoystickEvent12ms_classInfoE
_ZN15wxJoystickEvent12SetZPositionEi
_ZN15wxJoystickEvent14SetButtonStateEi
_ZN15wxJoystickEvent14wxCreateObjectEv
_ZN15wxJoystickEvent15SetButtonChangeEi
_ZN15wxJoystickEventC1Eiiii
_ZN15wxJoystickEventC1ERKS_
_ZN15wxJoystickEventC2Eiiii
_ZN15wxJoystickEventC2ERKS_
_ZN15wxJoystickEventC5Eiiii
_ZN15wxJoystickEventC5ERKS_
_ZN15wxJoystickEventD0Ev
_ZN15wxJoystickEventD1Ev
_ZN15wxJoystickEventD2Ev
_ZN15wxJoystickEventD5Ev
_ZN15wxListbookEvent12ms_classInfoE
_ZN15wxListbookEvent14wxCreateObjectEv
_ZN15wxListbookEventC1Eiiii
_ZN15wxListbookEventC1ERKS_
_ZN15wxListbookEventC2Eiiii
_ZN15wxListbookEventC2ERKS_
_ZN15wxListbookEventC5Eiiii
_ZN15wxListbookEventC5ERKS_
_ZN15wxListbookEventD0Ev
_ZN15wxListbookEventD1Ev
_ZN15wxListbookEventD2Ev
_ZN15wxListbookEventD5Ev
_ZN15wxMaximizeEvent12ms_classInfoE
_ZN15wxMaximizeEvent14wxCreateObjectEv
_ZN15wxMaximizeEventC1Ei
_ZN15wxMaximizeEventC1ERKS_
_ZN15wxMaximizeEventC2Ei
_ZN15wxMaximizeEventC2ERKS_
_ZN15wxMaximizeEventC5Ei
_ZN15wxMaximizeEventC5ERKS_
_ZN15wxMaximizeEventD0Ev
_ZN15wxMaximizeEventD1Ev
_ZN15wxMaximizeEventD2Ev
_ZN15wxMaximizeEventD5Ev
_ZN15wxMBConvUTF16BEC1Ev
_ZN15wxMBConvUTF16BEC2Ev
_ZN15wxMBConvUTF16BEC5Ev
_ZN15wxMBConvUTF16BED0Ev
_ZN15wxMBConvUTF16BED1Ev
_ZN15wxMBConvUTF16BED2Ev
_ZN15wxMBConvUTF16BED5Ev
_ZN15wxMBConvUTF16LEC1Ev
_ZN15wxMBConvUTF16LEC2Ev
_ZN15wxMBConvUTF16LEC5Ev
_ZN15wxMBConvUTF16LED0Ev
_ZN15wxMBConvUTF16LED1Ev
_ZN15wxMBConvUTF16LED2Ev
_ZN15wxMBConvUTF16LED5Ev
_ZN15wxMBConvUTF32BEC1Ev
_ZN15wxMBConvUTF32BEC2Ev
_ZN15wxMBConvUTF32BEC5Ev
_ZN15wxMBConvUTF32BED0Ev
_ZN15wxMBConvUTF32BED1Ev
_ZN15wxMBConvUTF32BED2Ev
_ZN15wxMBConvUTF32BED5Ev
_ZN15wxMBConvUTF32LEC1Ev
_ZN15wxMBConvUTF32LEC2Ev
_ZN15wxMBConvUTF32LEC5Ev
_ZN15wxMBConvUTF32LED0Ev
_ZN15wxMBConvUTF32LED1Ev
_ZN15wxMBConvUTF32LED2Ev
_ZN15wxMBConvUTF32LED5Ev
_ZN15wxMDIChildFrame12ms_classInfoE
_ZN15wxMDIChildFrame14wxCreateObjectEv
_ZN15wxMDIChildFrameC1Ev
_ZN15wxMDIChildFrameC2Ev
_ZN15wxMDIChildFrameC5Ev
_ZN15wxMDIChildFrameD0Ev
_ZN15wxMDIChildFrameD1Ev
_ZN15wxMDIChildFrameD2Ev
_ZN15wxMDIChildFrameD5Ev
_ZN15wxMdiXmlHandler11CreateFrameEv
_ZN15wxMdiXmlHandler12ms_classInfoE
_ZN15wxMdiXmlHandler14wxCreateObjectEv
_ZN15wxMdiXmlHandler16DoCreateResourceEv
_ZN15wxMdiXmlHandler9CanHandleEP9wxXmlNode
_ZN15wxMdiXmlHandlerC1Ev
_ZN15wxMdiXmlHandlerC2Ev
_ZN15wxMdiXmlHandlerD0Ev
_ZN15wxMdiXmlHandlerD1Ev
_ZN15wxMdiXmlHandlerD2Ev
_ZN15wxMdiXmlHandlerD5Ev
_ZN15wxMenuInfoArray3AddERK10wxMenuInfom
_ZN15wxMenuInfoArray5EmptyEv
_ZN15wxMenuInfoArray6DoCopyERKS_
_ZN15wxMenuInfoArray6InsertEPK10wxMenuInfom
_ZN15wxMenuInfoArray6InsertERK10wxMenuInfomm
_ZN15wxMenuInfoArray7DoEmptyEv
_ZN15wxMenuInfoArray8RemoveAtEmm
_ZN15wxMenuInfoArrayaSERKS_
_ZN15wxMenuInfoArrayC1ERKS_
_ZN15wxMenuInfoArrayC1Ev
_ZN15wxMenuInfoArrayC2ERKS_
_ZN15wxMenuInfoArrayC2Ev
_ZN15wxMenuInfoArrayC5Ev
_ZN15wxMenuInfoArrayD1Ev
_ZN15wxMenuInfoArrayD2Ev
_ZN15wxMessageOutput3GetEv
_ZN15wxMessageOutput3SetEPS_
_ZN15wxMessageOutput9ms_msgOutE
_ZN15wxMessageOutputC1Ev
_ZN15wxMessageOutputC2Ev
_ZN15wxMessageOutputC5Ev
_ZN15wxMessageOutputD0Ev
_ZN15wxMessageOutputD1Ev
_ZN15wxMessageOutputD2Ev
_ZN15wxMessageOutputD5Ev
_ZN15wxMetalRenderer14DrawShadedRectER4wxDCP6wxRectRK5wxPenS6_
_ZN15wxMetalRenderer15DrawArrowBorderER4wxDCP6wxRectb
_ZN15wxMetalRenderer15DrawArrowButtonER4wxDCRK6wxRectNS_16wxArrowDirectionENS_12wxArrowStyleE
_ZN15wxMetalRenderer15GetComboBitmapsEP8wxBitmapS1_S1_S1_
_ZN15wxMetalRenderer17DrawButtonSurfaceER4wxDCRK8wxColourRK6wxRecti
_ZN15wxMetalRenderer18DrawScrollbarShaftER4wxDC13wxOrientationRK6wxRecti
_ZN15wxMetalRenderer18DrawScrollbarThumbER4wxDC13wxOrientationRK6wxRecti
_ZN15wxMetalRenderer8DrawRectER4wxDCP6wxRectRK5wxPen
_ZN15wxMetalRenderer9DrawArrowER4wxDC11wxDirectionRK6wxRecti
_ZN15wxMetalRenderer9DrawArrowER4wxDCRK6wxRectNS_16wxArrowDirectionENS_12wxArrowStyleE
_ZN15wxMetalRenderer9DrawMetalER4wxDCRK6wxRect
_ZN15wxMetalRendererC1EP10wxRendererP14wxColourScheme
_ZN15wxMetalRendererC2EP10wxRendererP14wxColourScheme
_ZN15wxMetalRendererD0Ev
_ZN15wxMetalRendererD1Ev
_ZN15wxMetalRendererD2Ev
_ZN15wxMetalRendererD5Ev
_ZN15wxMetaTagParser10GetProductEv
_ZN15wxMetaTagParser7AddTextEPKc
_ZN15wxMetaTagParserC1Ev
_ZN15wxMetaTagParserC2Ev
_ZN15wxMetaTagParserC5Ev
_ZN15wxMetaTagParserD0Ev
_ZN15wxMetaTagParserD1Ev
_ZN15wxMetaTagParserD2Ev
_ZN15wxMetaTagParserD5Ev
_ZN15wxMutexInternal4LockEv
_ZN15wxMutexInternal6UnlockEv
_ZN15wxMutexInternal7TryLockEv
_ZN15wxMutexInternalC1E11wxMutexType
_ZN15wxMutexInternalC2E11wxMutexType
_ZN15wxMutexInternalD1Ev
_ZN15wxMutexInternalD2Ev
_ZN15wxNotebookEvent12ms_classInfoE
_ZN15wxNotebookEvent14wxCreateObjectEv
_ZN15wxNotebookEventC1Eiiii
_ZN15wxNotebookEventC1ERKS_
_ZN15wxNotebookEventC2Eiiii
_ZN15wxNotebookEventC2ERKS_
_ZN15wxNotebookEventC5Eiiii
_ZN15wxNotebookEventC5ERKS_
_ZN15wxNotebookEventD0Ev
_ZN15wxNotebookEventD1Ev
_ZN15wxNotebookEventD2Ev
_ZN15wxNotebookEventD5Ev
_ZN15wxObjectRefDataC1Ev
_ZN15wxObjectRefDataC2Ev
_ZN15wxObjectRefDataC5Ev
_ZN15wxObjectRefDataD0Ev
_ZN15wxObjectRefDataD1Ev
_ZN15wxObjectRefDataD2Ev
_ZN15wxObjectRefDataD5Ev
_ZN15wxPluginLibrary10ms_classesE
_ZN15wxPluginLibrary13UpdateClassesEv
_ZN15wxPluginLibrary14RestoreClassesEv
_ZN15wxPluginLibrary15RegisterModulesEv
_ZN15wxPluginLibrary17UnregisterModulesEv
_ZN15wxPluginLibrary6RefLibEv
_ZN15wxPluginLibrary8UnrefLibEv
_ZN15wxPluginLibraryC1ERK8wxStringi
_ZN15wxPluginLibraryC2ERK8wxStringi
_ZN15wxPluginLibraryD1Ev
_ZN15wxPluginLibraryD2Ev
_ZN15wxPluginManager10FindByNameERK8wxString
_ZN15wxPluginManager11LoadLibraryERK8wxStringi
_ZN15wxPluginManager11ms_manifestE
_ZN15wxPluginManager13ClearManifestEv
_ZN15wxPluginManager13UnloadLibraryERK8wxString
_ZN15wxPluginManager14CreateManifestEv
_ZN15wxPluginManager4LoadERK8wxStringi
_ZN15wxPluginManager6UnloadEv
_ZN15wxPoint2DDouble14SetVectorAngleEd
_ZN15wxPreviewCanvas12ms_classInfoE
_ZN15wxPreviewCanvas12OnMouseWheelER12wxMouseEvent
_ZN15wxPreviewCanvas13sm_eventTableE
_ZN15wxPreviewCanvas17sm_eventHashTableE
_ZN15wxPreviewCanvas18OnSysColourChangedER23wxSysColourChangedEvent
_ZN15wxPreviewCanvas20sm_eventTableEntriesE
_ZN15wxPreviewCanvas6OnCharER10wxKeyEvent
_ZN15wxPreviewCanvas7OnPaintER12wxPaintEvent
_ZN15wxPreviewCanvasC1EP18wxPrintPreviewBaseP8wxWindowRK7wxPointRK6wxSizelRK8wxString
_ZN15wxPreviewCanvasC2EP18wxPrintPreviewBaseP8wxWindowRK7wxPointRK6wxSizelRK8wxString
_ZN15wxPreviewCanvasD0Ev
_ZN15wxPreviewCanvasD1Ev
_ZN15wxPreviewCanvasD2Ev
_ZN15wxPropagateOnceC1ER7wxEvent
_ZN15wxPropagateOnceC2ER7wxEvent
_ZN15wxPropagateOnceC5ER7wxEvent
_ZN15wxPropagateOnceD1Ev
_ZN15wxPropagateOnceD2Ev
_ZN15wxPropagateOnceD5Ev
_ZN15wxRegionRefDataC1ERKS_
_ZN15wxRegionRefDataC1Ev
_ZN15wxRegionRefDataC2ERKS_
_ZN15wxRegionRefDataC2Ev
_ZN15wxRegionRefDataC5ERKS_
_ZN15wxRegionRefDataC5Ev
_ZN15wxRegionRefDataD0Ev
_ZN15wxRegionRefDataD1Ev
_ZN15wxRegionRefDataD2Ev
_ZN15wxRegionRefDataD5Ev
_ZN15wxResourceCacheD0Ev
_ZN15wxResourceCacheD1Ev
_ZN15wxResourceCacheD2Ev
_ZN15wxRichTextEvent11SetPositionEl
_ZN15wxRichTextEvent12ms_classInfoE
_ZN15wxRichTextEvent12SetCharacterEc
_ZN15wxRichTextEvent16SetNewStyleSheetEP20wxRichTextStyleSheet
_ZN15wxRichTextEvent16SetOldStyleSheetEP20wxRichTextStyleSheet
_ZN15wxRichTextEvent8SetFlagsEi
_ZN15wxRichTextEvent8SetRangeERK15wxRichTextRange
_ZN15wxRichTextEventC1Eii
_ZN15wxRichTextEventC1ERKS_
_ZN15wxRichTextEventC2Eii
_ZN15wxRichTextEventC2ERKS_
_ZN15wxRichTextEventC5Eii
_ZN15wxRichTextEventC5ERKS_
_ZN15wxRichTextEventD0Ev
_ZN15wxRichTextEventD1Ev
_ZN15wxRichTextEventD2Ev
_ZN15wxRichTextEventD5Ev
_ZN15wxRichTextImage12ms_classInfoE
_ZN15wxRichTextImage13GetImageBlockEv
_ZN15wxRichTextImage13LoadFromBlockEv
_ZN15wxRichTextImage14wxCreateObjectEv
_ZN15wxRichTextImage4CopyERKS_
_ZN15wxRichTextImage4DrawER4wxDCRK15wxRichTextRangeS4_RK6wxRectii
_ZN15wxRichTextImage6LayoutER4wxDCRK6wxRecti
_ZN15wxRichTextImage9MakeBlockEv
_ZN15wxRichTextImageC1EP16wxRichTextObject
_ZN15wxRichTextImageC1ERK20wxRichTextImageBlockP16wxRichTextObjectP12wxTextAttrEx
_ZN15wxRichTextImageC1ERK7wxImageP16wxRichTextObjectP12wxTextAttrEx
_ZN15wxRichTextImageC1ERKS_
_ZN15wxRichTextImageC2EP16wxRichTextObject
_ZN15wxRichTextImageC2ERK20wxRichTextImageBlockP16wxRichTextObjectP12wxTextAttrEx
_ZN15wxRichTextImageC2ERK7wxImageP16wxRichTextObjectP12wxTextAttrEx
_ZN15wxRichTextImageC2ERKS_
_ZN15wxRichTextImageC5EP16wxRichTextObject
_ZN15wxRichTextImageC5ERKS_
_ZN15wxRichTextImageD0Ev
_ZN15wxRichTextImageD1Ev
_ZN15wxRichTextImageD2Ev
_ZN15wxRichTextImageD5Ev
_ZN15wxRichTextRange6SetEndEl
_ZN15wxRichTextRange7LimitToERKS_
_ZN15wxRichTextRange8SetRangeEll
_ZN15wxRichTextRange8SetStartEl
_ZN15wxRichTextRangeaSERKS_
_ZN15wxRichTextRangeC1Ell
_ZN15wxRichTextRangeC1ERKS_
_ZN15wxRichTextRangeC1Ev
_ZN15wxRichTextRangeC2Ell
_ZN15wxRichTextRangeC2ERKS_
_ZN15wxRichTextRangeC2Ev
_ZN15wxRichTextRangeC5Ell
_ZN15wxRichTextRangeC5ERKS_
_ZN15wxRichTextRangeC5Ev
_ZN15wxRichTextRangeD1Ev
_ZN15wxRichTextRangeD2Ev
_ZN15wxRichTextRangeD5Ev
_ZN15wxScrollBarBaseC1Ev
_ZN15wxScrollBarBaseC2Ev
_ZN15wxScrollBarBaseC5Ev
_ZN15wxScrollBarBaseD0Ev
_ZN15wxScrollBarBaseD1Ev
_ZN15wxScrollBarBaseD2Ev
_ZN15wxScrollBarBaseD5Ev
_ZN15wxSizerItemList10CreateNodeEP10wxNodeBaseS1_PvRK9wxListKey
_ZN15wxSizerItemList10DeleteNodeEP21wxwxSizerItemListNode
_ZN15wxSizerItemList14const_iteratorC1EP21wxwxSizerItemListNodeS2_
_ZN15wxSizerItemList14const_iteratorC2EP21wxwxSizerItemListNodeS2_
_ZN15wxSizerItemList14const_iteratorC5EP21wxwxSizerItemListNodeS2_
_ZN15wxSizerItemList14const_iteratorppEv
_ZN15wxSizerItemList22compatibility_iteratorC1EP21wxwxSizerItemListNode
_ZN15wxSizerItemList22compatibility_iteratorC2EP21wxwxSizerItemListNode
_ZN15wxSizerItemList22compatibility_iteratorC5EP21wxwxSizerItemListNode
_ZN15wxSizerItemList3endEv
_ZN15wxSizerItemList5beginEv
_ZN15wxSizerItemList5clearEv
_ZN15wxSizerItemList5EraseEP21wxwxSizerItemListNode
_ZN15wxSizerItemList6AppendEP11wxSizerItem
_ZN15wxSizerItemList6InsertEmP11wxSizerItem
_ZN15wxSizerItemList8iteratorC1EP21wxwxSizerItemListNodeS2_
_ZN15wxSizerItemList8iteratorC1Ev
_ZN15wxSizerItemList8iteratorC2EP21wxwxSizerItemListNodeS2_
_ZN15wxSizerItemList8iteratorC2Ev
_ZN15wxSizerItemList8iteratorC5EP21wxwxSizerItemListNodeS2_
_ZN15wxSizerItemList8iteratorC5Ev
_ZN15wxSizerItemList8iteratorppEv
_ZN15wxSizerItemListC1E9wxKeyType
_ZN15wxSizerItemListC2E9wxKeyType
_ZN15wxSizerItemListC5E9wxKeyType
_ZN15wxSizerItemListD0Ev
_ZN15wxSizerItemListD1Ev
_ZN15wxSizerItemListD2Ev
_ZN15wxSizerItemListD5Ev
_ZN15wxSplitterEvent12ms_classInfoE
_ZN15wxSplitterEvent14wxCreateObjectEv
_ZN15wxSplitterEventC1EiP16wxSplitterWindow
_ZN15wxSplitterEventC2EiP16wxSplitterWindow
_ZN15wxSplitterEventC5EiP16wxSplitterWindow
_ZN15wxSplitterEventD0Ev
_ZN15wxSplitterEventD1Ev
_ZN15wxSplitterEventD2Ev
_ZN15wxSplitterEventD5Ev
_ZN15wxStandardPaths12DetectPrefixEv
_ZN15wxStandardPaths16SetInstallPrefixERK8wxString
_ZN15wxStandardPathsC1Ev
_ZN15wxStandardPathsC2Ev
_ZN15wxStandardPathsC5Ev
_ZN15wxStandardPathsD0Ev
_ZN15wxStandardPathsD1Ev
_ZN15wxStandardPathsD2Ev
_ZN15wxStandardPathsD5Ev
_ZN15wxStaticBoxBase24HasTransparentBackgroundEv
_ZN15wxStaticBoxBaseC1Ev
_ZN15wxStaticBoxBaseC2Ev
_ZN15wxStaticBoxBaseC5Ev
_ZN15wxStaticBoxBaseD0Ev
_ZN15wxStaticBoxBaseD1Ev
_ZN15wxStaticBoxBaseD2Ev
_ZN15wxStaticBoxBaseD5Ev
_ZN15wxStatusBarBase10FreeStacksEv
_ZN15wxStatusBarBase10FreeStylesEv
_ZN15wxStatusBarBase10FreeWidthsEv
_ZN15wxStatusBarBase10InitStacksEv
_ZN15wxStatusBarBase10InitStylesEv
_ZN15wxStatusBarBase10InitWidthsEv
_ZN15wxStatusBarBase12ReinitWidthsEv
_ZN15wxStatusBarBase13PopStatusTextEi
_ZN15wxStatusBarBase14PushStatusTextERK8wxStringi
_ZN15wxStatusBarBase14SetFieldsCountEiPKi
_ZN15wxStatusBarBase15SetStatusStylesEiPKi
_ZN15wxStatusBarBase15SetStatusWidthsEiPKi
_ZN15wxStatusBarBase22GetOrCreateStatusStackEi
_ZN15wxStatusBarBaseC1Ev
_ZN15wxStatusBarBaseC2Ev
_ZN15wxStatusBarBaseD0Ev
_ZN15wxStatusBarBaseD1Ev
_ZN15wxStatusBarBaseD2Ev
_ZN15wxSystemOptions12GetOptionIntERK8wxString
_ZN15wxSystemOptions9GetOptionERK8wxString
_ZN15wxSystemOptions9HasOptionERK8wxString
_ZN15wxSystemOptions9SetOptionERK8wxStringi
_ZN15wxSystemOptions9SetOptionERK8wxStringS2_
_ZN15wxTCPConnection10DisconnectEv
_ZN15wxTCPConnection10StopAdviseERK8wxString
_ZN15wxTCPConnection11StartAdviseERK8wxString
_ZN15wxTCPConnection12ms_classInfoE
_ZN15wxTCPConnection12OnDisconnectEv
_ZN15wxTCPConnection4PokeERK8wxStringPci11wxIPCFormat
_ZN15wxTCPConnection6AdviseERK8wxStringPci11wxIPCFormat
_ZN15wxTCPConnection7ExecuteEPKci11wxIPCFormat
_ZN15wxTCPConnection7ExecuteERK8wxString
_ZN15wxTCPConnection7RequestERK8wxStringPi11wxIPCFormat
_ZN15wxTCPConnection8CompressEb
_ZN15wxTCPConnectionC1EPci
_ZN15wxTCPConnectionC1Ev
_ZN15wxTCPConnectionC2EPci
_ZN15wxTCPConnectionC2Ev
_ZN15wxTCPConnectionD0Ev
_ZN15wxTCPConnectionD1Ev
_ZN15wxTCPConnectionD2Ev
_ZN15wxTextValidator11SetIncludesERK13wxArrayString
_ZN15wxTextValidator12ms_classInfoE
_ZN15wxTextValidator13sm_eventTableE
_ZN15wxTextValidator14wxCreateObjectEv
_ZN15wxTextValidator16IsInCharIncludesERK8wxString
_ZN15wxTextValidator16TransferToWindowEv
_ZN15wxTextValidator17sm_eventHashTableE
_ZN15wxTextValidator18TransferFromWindowEv
_ZN15wxTextValidator19IsNotInCharExcludesERK8wxString
_ZN15wxTextValidator20sm_eventTableEntriesE
_ZN15wxTextValidator4CopyERKS_
_ZN15wxTextValidator6OnCharER10wxKeyEvent
_ZN15wxTextValidator8ValidateEP8wxWindow
_ZN15wxTextValidatorC1ElP8wxString
_ZN15wxTextValidatorC1ERKS_
_ZN15wxTextValidatorC2ElP8wxString
_ZN15wxTextValidatorC2ERKS_
_ZN15wxTextValidatorD0Ev
_ZN15wxTextValidatorD1Ev
_ZN15wxTextValidatorD2Ev
_ZN15wxTextValidatorD5Ev
_ZN15wxTipWindowView11OnMouseMoveER12wxMouseEvent
_ZN15wxTipWindowView12OnMouseClickER12wxMouseEvent
_ZN15wxTipWindowView13sm_eventTableE
_ZN15wxTipWindowView17sm_eventHashTableE
_ZN15wxTipWindowView20sm_eventTableEntriesE
_ZN15wxTipWindowView6AdjustERK8wxStringi
_ZN15wxTipWindowView7OnPaintER12wxPaintEvent
_ZN15wxTipWindowViewC1EP8wxWindow
_ZN15wxTipWindowViewC2EP8wxWindow
_ZN15wxTipWindowViewD0Ev
_ZN15wxTipWindowViewD1Ev
_ZN15wxTipWindowViewD2Ev
_ZN15wxTipWindowViewD5Ev
_ZN15wxToolbookEvent12ms_classInfoE
_ZN15wxToolbookEvent14wxCreateObjectEv
_ZN15wxToolbookEventC1Eiiii
_ZN15wxToolbookEventC1ERKS_
_ZN15wxToolbookEventC2Eiiii
_ZN15wxToolbookEventC2ERKS_
_ZN15wxToolbookEventC5Eiiii
_ZN15wxToolbookEventC5ERKS_
_ZN15wxToolbookEventD0Ev
_ZN15wxToolbookEventD1Ev
_ZN15wxToolbookEventD2Ev
_ZN15wxToolbookEventD5Ev
_ZN15wxTreebookEvent12ms_classInfoE
_ZN15wxTreebookEvent14wxCreateObjectEv
_ZN15wxTreebookEventC1Eiiii
_ZN15wxTreebookEventC1ERKS_
_ZN15wxTreebookEventC2Eiiii
_ZN15wxTreebookEventC2ERKS_
_ZN15wxTreebookEventC5Eiiii
_ZN15wxTreebookEventC5ERKS_
_ZN15wxTreebookEventD0Ev
_ZN15wxTreebookEventD1Ev
_ZN15wxTreebookEventD2Ev
_ZN15wxTreebookEventD5Ev
_ZN15wxTreeFindTimer6NotifyEv
_ZN15wxTreeFindTimerC1EP17wxGenericTreeCtrl
_ZN15wxTreeFindTimerC2EP17wxGenericTreeCtrl
_ZN15wxTreeFindTimerC5EP17wxGenericTreeCtrl
_ZN15wxTreeFindTimerD0Ev
_ZN15wxTreeFindTimerD1Ev
_ZN15wxTreeFindTimerD2Ev
_ZN15wxTreeFindTimerD5Ev
_ZN15wxUpdateUIEvent12ms_classInfoE
_ZN15wxUpdateUIEvent13sm_lastUpdateE
_ZN15wxUpdateUIEvent13sm_updateModeE
_ZN15wxUpdateUIEvent14wxCreateObjectEv
_ZN15wxUpdateUIEvent15ResetUpdateTimeEv
_ZN15wxUpdateUIEvent17sm_updateIntervalE
_ZN15wxUpdateUIEvent6EnableEb
_ZN15wxUpdateUIEvent7GetModeEv
_ZN15wxUpdateUIEvent7SetTextERK8wxString
_ZN15wxUpdateUIEvent9CanUpdateEP12wxWindowBase
_ZN15wxUpdateUIEventC1Ei
_ZN15wxUpdateUIEventC1ERKS_
_ZN15wxUpdateUIEventC2Ei
_ZN15wxUpdateUIEventC2ERKS_
_ZN15wxUpdateUIEventC5Ei
_ZN15wxUpdateUIEventC5ERKS_
_ZN15wxUpdateUIEventD0Ev
_ZN15wxUpdateUIEventD1Ev
_ZN15wxUpdateUIEventD2Ev
_ZN15wxUpdateUIEventD5Ev
_ZN15wxWin32Renderer10AdjustSizeEP6wxSizePK8wxWindow
_ZN15wxWin32Renderer12DrawMenuItemER4wxDCiRK18wxMenuGeometryInfoRK8wxStringS7_RK8wxBitmapii
_ZN15wxWin32Renderer12GetIndicatorEN13wxStdRenderer13IndicatorTypeEi
_ZN15wxWin32Renderer13ms_xpmCheckedE
_ZN15wxWin32Renderer14GetCheckBitmapEi
_ZN15wxWin32Renderer14GetRadioBitmapEi
_ZN15wxWin32Renderer15DrawArrowBorderER4wxDCP6wxRectb
_ZN15wxWin32Renderer15DrawArrowButtonER4wxDCRK6wxRectN13wxStdRenderer14ArrowDirectionENS5_10ArrowStyleE
_ZN15wxWin32Renderer15DrawButtonLabelER4wxDCRK8wxStringRK8wxBitmapRK6wxRectiiiPS8_
_ZN15wxWin32Renderer15DrawMenuBarItemER4wxDCRK6wxRectRK8wxStringii
_ZN15wxWin32Renderer15DrawSliderShaftER4wxDCRK6wxRecti13wxOrientationilPS2_
_ZN15wxWin32Renderer15DrawSliderThumbER4wxDCRK6wxRect13wxOrientationil
_ZN15wxWin32Renderer15DrawSliderTicksER4wxDCRK6wxRecti13wxOrientationiiiil
_ZN15wxWin32Renderer15DrawStatusFieldER4wxDCRK6wxRectRK8wxStringii
_ZN15wxWin32Renderer15GetComboBitmapsEP8wxBitmapS1_S1_S1_
_ZN15wxWin32Renderer16DrawButtonBorderER4wxDCRK6wxRectiPS2_
_ZN15wxWin32Renderer16ms_xpmIndicatorsE
_ZN15wxWin32Renderer17DrawMenuSeparatorER4wxDCiRK18wxMenuGeometryInfo
_ZN15wxWin32Renderer17DrawToolBarButtonER4wxDCRK8wxStringRK8wxBitmapRK6wxRectili
_ZN15wxWin32Renderer18DrawFrameWithLabelER4wxDCRK8wxStringRK6wxRectS7_iii
_ZN15wxWin32Renderer18DrawScrollbarShaftER4wxDC13wxOrientationRK6wxRecti
_ZN15wxWin32Renderer18DrawScrollbarThumbER4wxDC13wxOrientationRK6wxRecti
_ZN15wxWin32Renderer18ms_xpmFrameButtonsE
_ZN15wxWin32Renderer19DrawCheckItemBitmapER4wxDCRK8wxBitmapRK6wxRecti
_ZN15wxWin32Renderer20GetFrameButtonBitmapEN13wxStdRenderer15FrameButtonTypeE
_ZN15wxWin32Renderer7DrawTabER4wxDCRK6wxRect11wxDirectionRK8wxStringRK8wxBitmapii
_ZN15wxWin32Renderer8DrawLineER4wxDCiiiib
_ZN15wxWin32Renderer9DrawArrowER4wxDC11wxDirectionRK6wxRecti
_ZN15wxWin32Renderer9DrawArrowER4wxDCRK6wxRectN13wxStdRenderer14ArrowDirectionENS5_10ArrowStyleE
_ZN15wxWin32Renderer9DrawLabelER4wxDCRK8wxStringRK6wxRectiiiPS5_
_ZN15wxWin32RendererC1EPK14wxColourScheme
_ZN15wxWin32RendererC2EPK14wxColourScheme
_ZN15wxWin32RendererD0Ev
_ZN15wxWin32RendererD1Ev
_ZN15wxWin32RendererD2Ev
_ZN15wxWin32RendererD5Ev
_ZN15wxZipEntryList_10CreateNodeEP10wxNodeBaseS1_PvRK9wxListKey
_ZN15wxZipEntryList_3endEv
_ZN15wxZipEntryList_4backEv
_ZN15wxZipEntryList_5beginEv
_ZN15wxZipEntryList_5clearEv
_ZN15wxZipEntryList_6AppendEP10wxZipEntry
_ZN15wxZipEntryList_8iteratorC1EP21wxwxZipEntryList_NodeS2_
_ZN15wxZipEntryList_8iteratorC1Ev
_ZN15wxZipEntryList_8iteratorC2EP21wxwxZipEntryList_NodeS2_
_ZN15wxZipEntryList_8iteratorC2Ev
_ZN15wxZipEntryList_8iteratorC5EP21wxwxZipEntryList_NodeS2_
_ZN15wxZipEntryList_8iteratorC5Ev
_ZN15wxZipEntryList_8iteratormmEv
_ZN15wxZipEntryList_8iteratorppEv
_ZN15wxZipEntryList_9push_backERKP10wxZipEntry
_ZN15wxZipEntryList_C1E9wxKeyType
_ZN15wxZipEntryList_C2E9wxKeyType
_ZN15wxZipEntryList_C5E9wxKeyType
_ZN15wxZipEntryList_D0Ev
_ZN15wxZipEntryList_D1Ev
_ZN15wxZipEntryList_D2Ev
_ZN15wxZipEntryList_D5Ev
_ZN15wxZipStreamLink6AddRefEv
_ZN15wxZipStreamLink7ReleaseEP16wxZipInputStream
_ZN15wxZipStreamLink7ReleaseEP17wxZipOutputStream
_ZN15wxZipStreamLinkC1EP17wxZipOutputStream
_ZN15wxZipStreamLinkC2EP17wxZipOutputStream
_ZN15wxZipStreamLinkC5EP17wxZipOutputStream
_ZN15wxZipStreamLinkD1Ev
_ZN15wxZipStreamLinkD2Ev
_ZN15wxZipStreamLinkD5Ev
_ZN16wxArchiveFSCache3AddERK8wxStringRK21wxArchiveClassFactoryP13wxInputStream
_ZN16wxArchiveFSCache3GetERK8wxString
_ZN16wxArchiveFSCacheC1Ev
_ZN16wxArchiveFSCacheC2Ev
_ZN16wxArchiveFSCacheC5Ev
_ZN16wxArchiveFSCacheD1Ev
_ZN16wxArchiveFSCacheD2Ev
_ZN16wxArchiveFSCacheD5Ev
_ZN16wxArrayClassInfo3AddEP11wxClassInfom
_ZN16wxArrayClassInfoC1Ev
_ZN16wxArrayClassInfoC2Ev
_ZN16wxArrayClassInfoC5Ev
_ZN16wxArrayClassInfoD1Ev
_ZN16wxArrayClassInfoD2Ev
_ZN16wxArrayClassInfoD5Ev
_ZN16wxArrayLinesType5beginEv
_ZN16wxArrayLinesType6insertEP14wxTextFileTypeRKS0_
_ZN16wxArrayLinesType9push_backERK14wxTextFileType
_ZN16wxArrayLinesTypeC1Ev
_ZN16wxArrayLinesTypeC2Ev
_ZN16wxArrayLinesTypeC5Ev
_ZN16wxArrayLinesTypeD1Ev
_ZN16wxArrayLinesTypeD2Ev
_ZN16wxArrayLinesTypeD5Ev
_ZN16wxAuiToolBarItem6AssignERKS_
_ZN16wxAuiToolBarItemC1ERKS_
_ZN16wxAuiToolBarItemC1Ev
_ZN16wxAuiToolBarItemC2ERKS_
_ZN16wxAuiToolBarItemC2Ev
_ZN16wxAuiToolBarItemC5ERKS_
_ZN16wxAuiToolBarItemC5Ev
_ZN16wxAuiToolBarItemD1Ev
_ZN16wxAuiToolBarItemD2Ev
_ZN16wxAuiToolBarItemD5Ev
_ZN16wxBaseArrayShort3AddEsm
_ZN16wxBaseArrayShort3AddEsPFiPKvS1_E
_ZN16wxBaseArrayShort4GrowEm
_ZN16wxBaseArrayShort4SortEPFiPKvS1_E
_ZN16wxBaseArrayShort5AllocEm
_ZN16wxBaseArrayShort5beginEv
_ZN16wxBaseArrayShort5clearEv
_ZN16wxBaseArrayShort5ClearEv
_ZN16wxBaseArrayShort6assignEmRKs
_ZN16wxBaseArrayShort6assignEPKsS1_
_ZN16wxBaseArrayShort6insertEPsPKsS2_
_ZN16wxBaseArrayShort6InsertEsmm
_ZN16wxBaseArrayShort6RemoveEs
_ZN16wxBaseArrayShort6ShrinkEv
_ZN16wxBaseArrayShort7ReallocEm
_ZN16wxBaseArrayShort7reserveEm
_ZN16wxBaseArrayShort8RemoveAtEmm
_ZN16wxBaseArrayShort8SetCountEms
_ZN16wxBaseArrayShort9push_backERKs
_ZN16wxBaseArrayShortaSERKS_
_ZN16wxBaseArrayShortC1ERKS_
_ZN16wxBaseArrayShortC1Ev
_ZN16wxBaseArrayShortC2ERKS_
_ZN16wxBaseArrayShortC2Ev
_ZN16wxBaseArrayShortD1Ev
_ZN16wxBaseArrayShortD2Ev
_ZN16wxBaseArraySizeT3AddEmm
_ZN16wxBaseArraySizeT3AddEmPFiPKvS1_E
_ZN16wxBaseArraySizeT4GrowEm
_ZN16wxBaseArraySizeT4SortEPFiPKvS1_E
_ZN16wxBaseArraySizeT5AllocEm
_ZN16wxBaseArraySizeT5beginEv
_ZN16wxBaseArraySizeT5clearEv
_ZN16wxBaseArraySizeT5ClearEv
_ZN16wxBaseArraySizeT5EmptyEv
_ZN16wxBaseArraySizeT5eraseEPmS0_
_ZN16wxBaseArraySizeT6assignEmRKm
_ZN16wxBaseArraySizeT6assignEPKmS1_
_ZN16wxBaseArraySizeT6InsertEmmm
_ZN16wxBaseArraySizeT6insertEPmPKmS2_
_ZN16wxBaseArraySizeT6insertEPmRKm
_ZN16wxBaseArraySizeT6RemoveEm
_ZN16wxBaseArraySizeT6ShrinkEv
_ZN16wxBaseArraySizeT7ReallocEm
_ZN16wxBaseArraySizeT7reserveEm
_ZN16wxBaseArraySizeT8RemoveAtEmm
_ZN16wxBaseArraySizeT8SetCountEmm
_ZN16wxBaseArraySizeT9push_backERKm
_ZN16wxBaseArraySizeTaSERKS_
_ZN16wxBaseArraySizeTC1ERKS_
_ZN16wxBaseArraySizeTC1Ev
_ZN16wxBaseArraySizeTC2ERKS_
_ZN16wxBaseArraySizeTC2Ev
_ZN16wxBaseArraySizeTD1Ev
_ZN16wxBaseArraySizeTD2Ev
_ZN16wxBitmapComboBox10PostCreateEv
_ZN16wxBitmapComboBox11OnAddBitmapERK8wxBitmap
_ZN16wxBitmapComboBox12ms_classInfoE
_ZN16wxBitmapComboBox13SetItemBitmapEjRK8wxBitmap
_ZN16wxBitmapComboBox13sm_eventTableE
_ZN16wxBitmapComboBox14DoInsertBitmapERK8wxBitmapj
_ZN16wxBitmapComboBox14wxCreateObjectEv
_ZN16wxBitmapComboBox15DetermineIndentEv
_ZN16wxBitmapComboBox17DoAppendWithImageERK8wxStringRK8wxBitmap
_ZN16wxBitmapComboBox17DoInsertWithImageERK8wxStringRK8wxBitmapj
_ZN16wxBitmapComboBox17sm_eventHashTableE
_ZN16wxBitmapComboBox20sm_eventTableEntriesE
_ZN16wxBitmapComboBox4InitEv
_ZN16wxBitmapComboBox5ClearEv
_ZN16wxBitmapComboBox6AppendERK8wxStringRK8wxBitmap
_ZN16wxBitmapComboBox6CreateEP8wxWindowiRK8wxStringRK7wxPointRK6wxSizeiPS3_lRK11wxValidatorS4_
_ZN16wxBitmapComboBox6CreateEP8wxWindowiRK8wxStringRK7wxPointRK6wxSizeRK13wxArrayStringlRK11wxValidatorS4_
_ZN16wxBitmapComboBox6DeleteEj
_ZN16wxBitmapComboBox6InsertERK8wxStringRK8wxBitmapjP12wxClientData
_ZN16wxBitmapComboBox6InsertERK8wxStringRK8wxBitmapjPv
_ZN16wxBitmapComboBox6OnSizeER11wxSizeEvent
_ZN16wxBitmapComboBox7SetFontERK6wxFont
_ZN16wxBitmapComboBox8DoAppendERK8wxString
_ZN16wxBitmapComboBox8DoInsertERK8wxStringj
_ZN16wxBitmapComboBoxC1EP8wxWindowiRK8wxStringRK7wxPointRK6wxSizeRK13wxArrayStringlRK11wxValidatorS4_
_ZN16wxBitmapComboBoxC1Ev
_ZN16wxBitmapComboBoxC2EP8wxWindowiRK8wxStringRK7wxPointRK6wxSizeRK13wxArrayStringlRK11wxValidatorS4_
_ZN16wxBitmapComboBoxC2Ev
_ZN16wxBitmapComboBoxC5Ev
_ZN16wxBitmapComboBoxD0Ev
_ZN16wxBitmapComboBoxD1Ev
_ZN16wxBitmapComboBoxD2Ev
_ZN16wxCallAppCleanup7DismissEv
_ZN16wxCallAppCleanupC1EP12wxAppConsole
_ZN16wxCallAppCleanupC2EP12wxAppConsole
_ZN16wxCallAppCleanupC5EP12wxAppConsole
_ZN16wxCallAppCleanupD1Ev
_ZN16wxCallAppCleanupD2Ev
_ZN16wxCallAppCleanupD5Ev
_ZN16wxColourDatabase10FindColourERK8wxString
_ZN16wxColourDatabase10InitializeEv
_ZN16wxColourDatabase9AddColourERK8wxStringRK8wxColour
_ZN16wxColourDatabaseC1Ev
_ZN16wxColourDatabaseC2Ev
_ZN16wxColourDatabaseD1Ev
_ZN16wxColourDatabaseD2Ev
_ZN16wxConnectionBase12GetConnectedEv
_ZN16wxConnectionBase12ms_classInfoE
_ZN16wxConnectionBase12OnStopAdviseERK8wxStringS2_
_ZN16wxConnectionBase12SetConnectedEb
_ZN16wxConnectionBase13OnStartAdviseERK8wxStringS2_
_ZN16wxConnectionBase16GetBufferAtLeastEm
_ZN16wxConnectionBase6OnPokeERK8wxStringS2_Pci11wxIPCFormat
_ZN16wxConnectionBase7ExecuteERK8wxString
_ZN16wxConnectionBase8OnAdviseERK8wxStringS2_Pci11wxIPCFormat
_ZN16wxConnectionBase9OnExecuteERK8wxStringPci11wxIPCFormat
_ZN16wxConnectionBase9OnRequestERK8wxStringS2_Pi11wxIPCFormat
_ZN16wxConnectionBaseC1EPci
_ZN16wxConnectionBaseC1ERKS_
_ZN16wxConnectionBaseC1Ev
_ZN16wxConnectionBaseC2EPci
_ZN16wxConnectionBaseC2ERKS_
_ZN16wxConnectionBaseC2Ev
_ZN16wxConnectionBaseD0Ev
_ZN16wxConnectionBaseD1Ev
_ZN16wxConnectionBaseD2Ev
_ZN16wxDatagramSocket12ms_classInfoE
_ZN16wxDatagramSocket6SendToERK13wxSockAddressPKvj
_ZN16wxDatagramSocket8RecvFromER13wxSockAddressPvj
_ZN16wxDatagramSocketC1ERK13wxSockAddressi
_ZN16wxDatagramSocketC2ERK13wxSockAddressi
_ZN16wxDatagramSocketD0Ev
_ZN16wxDatagramSocketD1Ev
_ZN16wxDatagramSocketD2Ev
_ZN16wxDatagramSocketD5Ev
_ZN16wxDataObjectBase7SetDataERK12wxDataFormatmPKv
_ZN16wxDataObjectBaseC1Ev
_ZN16wxDataObjectBaseC2Ev
_ZN16wxDataObjectBaseC5Ev
_ZN16wxDataObjectBaseD0Ev
_ZN16wxDataObjectBaseD1Ev
_ZN16wxDataObjectBaseD2Ev
_ZN16wxDatePickerCtrl12ms_classInfoE
_ZN16wxDatePickerCtrl14wxCreateObjectEv
_ZN16wxDatePickerCtrlC1Ev
_ZN16wxDatePickerCtrlC2Ev
_ZN16wxDatePickerCtrlC5Ev
_ZN16wxDatePickerCtrlD0Ev
_ZN16wxDatePickerCtrlD1Ev
_ZN16wxDatePickerCtrlD2Ev
_ZN16wxDatePickerCtrlD5Ev
_ZN16wxDCBrushChangerC1ER4wxDCRK7wxBrush
_ZN16wxDCBrushChangerC2ER4wxDCRK7wxBrush
_ZN16wxDCBrushChangerC5ER4wxDCRK7wxBrush
_ZN16wxDCBrushChangerD1Ev
_ZN16wxDCBrushChangerD2Ev
_ZN16wxDCBrushChangerD5Ev
_ZN16wxDisplayFactory13GetFromWindowEP8wxWindow
_ZN16wxDisplayFactoryC1Ev
_ZN16wxDisplayFactoryC2Ev
_ZN16wxDisplayFactoryC5Ev
_ZN16wxDisplayFactoryD0Ev
_ZN16wxDisplayFactoryD1Ev
_ZN16wxDisplayFactoryD2Ev
_ZN16wxDisplayFactoryD5Ev
_ZN16wxDocParentFrame12ms_classInfoE
_ZN16wxDocParentFrame12ProcessEventER7wxEvent
_ZN16wxDocParentFrame13OnCloseWindowER12wxCloseEvent
_ZN16wxDocParentFrame13sm_eventTableE
_ZN16wxDocParentFrame17sm_eventHashTableE
_ZN16wxDocParentFrame20sm_eventTableEntriesE
_ZN16wxDocParentFrame6CreateEP12wxDocManagerP7wxFrameiRK8wxStringRK7wxPointRK6wxSizelS6_
_ZN16wxDocParentFrame6OnExitER14wxCommandEvent
_ZN16wxDocParentFrame9OnMRUFileER14wxCommandEvent
_ZN16wxDocParentFrameC1EP12wxDocManagerP7wxFrameiRK8wxStringRK7wxPointRK6wxSizelS6_
_ZN16wxDocParentFrameC1Ev
_ZN16wxDocParentFrameC2EP12wxDocManagerP7wxFrameiRK8wxStringRK7wxPointRK6wxSizelS6_
_ZN16wxDocParentFrameC2Ev
_ZN16wxDocParentFrameD0Ev
_ZN16wxDocParentFrameD1Ev
_ZN16wxDocParentFrameD2Ev
_ZN16wxDocParentFrameD5Ev
_ZN16wxDropFilesEvent12ms_classInfoE
_ZN16wxDropFilesEvent14wxCreateObjectEv
_ZN16wxDropFilesEventC1EiiP8wxString
_ZN16wxDropFilesEventC1ERKS_
_ZN16wxDropFilesEventC2EiiP8wxString
_ZN16wxDropFilesEventC2ERKS_
_ZN16wxDropFilesEventC5EiiP8wxString
_ZN16wxDropFilesEventC5ERKS_
_ZN16wxDropFilesEventD0Ev
_ZN16wxDropFilesEventD1Ev
_ZN16wxDropFilesEventD2Ev
_ZN16wxDropFilesEventD5Ev
_ZN16wxDumpPreviewDlgC1EP8wxWindowRK8wxStringS4_
_ZN16wxDumpPreviewDlgC2EP8wxWindowRK8wxStringS4_
_ZN16wxDumpPreviewDlgD0Ev
_ZN16wxDumpPreviewDlgD1Ev
_ZN16wxDumpPreviewDlgD2Ev
_ZN16wxDumpPreviewDlgD5Ev
_ZN16wxDynamicLibrary10ListLoadedEv
_ZN16wxDynamicLibrary12RawGetSymbolEPvRK8wxString
_ZN16wxDynamicLibrary16CanonicalizeNameERK8wxString24wxDynamicLibraryCategory
_ZN16wxDynamicLibrary16GetProgramHandleEv
_ZN16wxDynamicLibrary19GetPluginsDirectoryEv
_ZN16wxDynamicLibrary22CanonicalizePluginNameERK8wxString16wxPluginCategory
_ZN16wxDynamicLibrary4LoadERK8wxStringi
_ZN16wxDynamicLibrary5ErrorEv
_ZN16wxDynamicLibrary6DetachEv
_ZN16wxDynamicLibrary6UnloadEPv
_ZN16wxDynamicLibrary6UnloadEv
_ZN16wxDynamicLibrary7RawLoadERK8wxStringi
_ZN16wxDynamicLibrary9GetDllExtEv
_ZN16wxDynamicLibrary9ms_dllextE
_ZN16wxDynamicLibraryC1ERK8wxStringi
_ZN16wxDynamicLibraryC1Ev
_ZN16wxDynamicLibraryC2ERK8wxStringi
_ZN16wxDynamicLibraryC2Ev
_ZN16wxDynamicLibraryC5ERK8wxStringi
_ZN16wxDynamicLibraryC5Ev
_ZN16wxDynamicLibraryD1Ev
_ZN16wxDynamicLibraryD2Ev
_ZN16wxDynamicLibraryD5Ev
_ZN16wxEventHashTable11HandleEventER7wxEventP12wxEvtHandler
_ZN16wxEventHashTable13InitHashTableEv
_ZN16wxEventHashTable14EventTypeTableC1Ev
_ZN16wxEventHashTable14EventTypeTableC2Ev
_ZN16wxEventHashTable14EventTypeTableC5Ev
_ZN16wxEventHashTable14EventTypeTableD1Ev
_ZN16wxEventHashTable14EventTypeTableD2Ev
_ZN16wxEventHashTable14EventTypeTableD5Ev
_ZN16wxEventHashTable14ReconstructAllEv
_ZN16wxEventHashTable18GrowEventTypeTableEv
_ZN16wxEventHashTable19AllocEventTypeTableEm
_ZN16wxEventHashTable5ClearEv
_ZN16wxEventHashTable8AddEntryERK17wxEventTableEntry
_ZN16wxEventHashTable8ClearAllEv
_ZN16wxEventHashTable8sm_firstE
_ZN16wxEventHashTableC1ERK12wxEventTable
_ZN16wxEventHashTableC2ERK12wxEventTable
_ZN16wxEventHashTableD1Ev
_ZN16wxEventHashTableD2Ev
_ZN16wxFileDataObject7AddFileERK8wxString
_ZN16wxFileDataObject7SetDataEmPKv
_ZN16wxFileDataObject7SetDataERK12wxDataFormatmPKv
_ZN16wxFileDataObjectD0Ev
_ZN16wxFileDataObjectD1Ev
_ZN16wxFileDataObjectD2Ev
_ZN16wxFileDataObjectD5Ev
_ZN16wxFileDialogBase10SetMessageERK8wxString
_ZN16wxFileDialogBase11SetFilenameERK8wxString
_ZN16wxFileDialogBase11SetWildcardERK8wxString
_ZN16wxFileDialogBase12ms_classInfoE
_ZN16wxFileDialogBase12SetDirectoryERK8wxString
_ZN16wxFileDialogBase14SetFilterIndexEi
_ZN16wxFileDialogBase14wxCreateObjectEv
_ZN16wxFileDialogBase15AppendExtensionERK8wxStringS2_
_ZN16wxFileDialogBase4InitEv
_ZN16wxFileDialogBase6CreateEP8wxWindowRK8wxStringS4_S4_S4_lRK7wxPointRK6wxSizeS4_
_ZN16wxFileDialogBase7SetPathERK8wxString
_ZN16wxFileDialogBase8SetStyleEl
_ZN16wxFileDialogBaseC1Ev
_ZN16wxFileDialogBaseC2Ev
_ZN16wxFileDialogBaseC5Ev
_ZN16wxFileDialogBaseD0Ev
_ZN16wxFileDialogBaseD1Ev
_ZN16wxFileDialogBaseD2Ev
_ZN16wxFileDialogBaseD5Ev
_ZN16wxFileIconsTable17GetSmallImageListEv
_ZN16wxFileIconsTable6CreateEv
_ZN16wxFileIconsTable9GetIconIDERK8wxStringS2_
_ZN16wxFileIconsTableC1Ev
_ZN16wxFileIconsTableC2Ev
_ZN16wxFileIconsTableD1Ev
_ZN16wxFileIconsTableD2Ev
_ZN16wxFilePickerCtrl12CreatePickerEP8wxWindowRK8wxStringS4_S4_
_ZN16wxFilePickerCtrl12ms_classInfoE
_ZN16wxFilePickerCtrl14wxCreateObjectEv
_ZN16wxFilePickerCtrl6CreateEP8wxWindowiRK8wxStringS4_S4_RK7wxPointRK6wxSizelRK11wxValidatorS4_
_ZN16wxFilePickerCtrlC1Ev
_ZN16wxFilePickerCtrlC2Ev
_ZN16wxFilePickerCtrlC5Ev
_ZN16wxFilePickerCtrlD0Ev
_ZN16wxFilePickerCtrlD1Ev
_ZN16wxFilePickerCtrlD2Ev
_ZN16wxFilePickerCtrlD5Ev
_ZN16wxFontDialogBase11GetFontDataEv
_ZN16wxFontDialogBase12InitFontDataEPK10wxFontData
_ZN16wxFontDialogBase6CreateEP8wxWindow
_ZN16wxFontDialogBase8DoCreateEP8wxWindow
_ZN16wxFontDialogBaseC1EP8wxWindowRK10wxFontData
_ZN16wxFontDialogBaseC1Ev
_ZN16wxFontDialogBaseC2EP8wxWindowRK10wxFontData
_ZN16wxFontDialogBaseC2Ev
_ZN16wxFontDialogBaseC5EP8wxWindowRK10wxFontData
_ZN16wxFontDialogBaseC5Ev
_ZN16wxFontDialogBaseD0Ev
_ZN16wxFontDialogBaseD1Ev
_ZN16wxFontDialogBaseD2Ev
_ZN16wxFontEnumerator10OnFacenameERK8wxString
_ZN16wxFontEnumerator12GetEncodingsERK8wxString
_ZN16wxFontEnumerator12GetFacenamesE14wxFontEncodingb
_ZN16wxFontEnumerator14OnFontEncodingERK8wxStringS2_
_ZN16wxFontEnumerator15IsValidFacenameERK8wxString
_ZN16wxFontEnumerator18EnumerateEncodingsERK8wxString
_ZN16wxFontEnumerator18EnumerateFacenamesE14wxFontEncodingb
_ZN16wxFontEnumeratorC1Ev
_ZN16wxFontEnumeratorC2Ev
_ZN16wxFontEnumeratorC5Ev
_ZN16wxFontEnumeratorD0Ev
_ZN16wxFontEnumeratorD1Ev
_ZN16wxFontEnumeratorD2Ev
_ZN16wxFontEnumeratorD5Ev
_ZN16wxFontMapperBase10ChangePathERK8wxStringPS0_
_ZN16wxFontMapperBase11GetEncodingEm
_ZN16wxFontMapperBase11RestorePathERK8wxString
_ZN16wxFontMapperBase11sm_instanceE
_ZN16wxFontMapperBase13GetConfigPathEv
_ZN16wxFontMapperBase13SetConfigPathERK8wxString
_ZN16wxFontMapperBase15GetEncodingNameE14wxFontEncoding
_ZN16wxFontMapperBase17CharsetToEncodingERK8wxStringb
_ZN16wxFontMapperBase19GetAllEncodingNamesE14wxFontEncoding
_ZN16wxFontMapperBase19GetEncodingFromNameERK8wxString
_ZN16wxFontMapperBase20GetDefaultConfigPathEv
_ZN16wxFontMapperBase22GetEncodingDescriptionE14wxFontEncoding
_ZN16wxFontMapperBase26GetSupportedEncodingsCountEv
_ZN16wxFontMapperBase31NonInteractiveCharsetToEncodingERK8wxString
_ZN16wxFontMapperBase3GetEv
_ZN16wxFontMapperBase3SetEP12wxFontMapper
_ZN16wxFontMapperBase5ResetEv
_ZN16wxFontMapperBase7IsDummyEv
_ZN16wxFontMapperBase9GetConfigEv
_ZN16wxFontMapperBaseC1Ev
_ZN16wxFontMapperBaseC2Ev
_ZN16wxFontMapperBaseD0Ev
_ZN16wxFontMapperBaseD1Ev
_ZN16wxFontMapperBaseD2Ev
_ZN16wxFontPickerCtrl11Font2StringERK6wxFont
_ZN16wxFontPickerCtrl11String2FontERK8wxString
_ZN16wxFontPickerCtrl12ms_classInfoE
_ZN16wxFontPickerCtrl12OnFontChangeER17wxFontPickerEvent
_ZN16wxFontPickerCtrl14wxCreateObjectEv
_ZN16wxFontPickerCtrl15SetSelectedFontERK6wxFont
_ZN16wxFontPickerCtrl24UpdatePickerFromTextCtrlEv
_ZN16wxFontPickerCtrl24UpdateTextCtrlFromPickerEv
_ZN16wxFontPickerCtrl6CreateEP8wxWindowiRK6wxFontRK7wxPointRK6wxSizelRK11wxValidatorRK8wxString
_ZN16wxFontPickerCtrlC1Ev
_ZN16wxFontPickerCtrlC2Ev
_ZN16wxFontPickerCtrlC5Ev
_ZN16wxFontPickerCtrlD0Ev
_ZN16wxFontPickerCtrlD1Ev
_ZN16wxFontPickerCtrlD2Ev
_ZN16wxFontPickerCtrlD5Ev
_ZN16wxForceLinkm_preC1Ev
_ZN16wxForceLinkm_preC2Ev
_ZN16wxForceLinkm_preC5Ev
_ZN16wxGDIObjListBaseC1Ev
_ZN16wxGDIObjListBaseC2Ev
_ZN16wxGDIObjListBaseD1Ev
_ZN16wxGDIObjListBaseD2Ev
_ZN16wxGenericDirCtrl10AddSectionERK8wxStringS2_i
_ZN16wxGenericDirCtrl10AppendItemERK12wxTreeItemIdRK8wxStringiiP14wxTreeItemData
_ZN16wxGenericDirCtrl10ExpandPathERK8wxString
_ZN16wxGenericDirCtrl10ExpandRootEv
_ZN16wxGenericDirCtrl10ShowHiddenEb
_ZN16wxGenericDirCtrl11CollapseDirE12wxTreeItemId
_ZN16wxGenericDirCtrl12CollapsePathERK8wxString
_ZN16wxGenericDirCtrl12CollapseTreeEv
_ZN16wxGenericDirCtrl12ms_classInfoE
_ZN16wxGenericDirCtrl12OnExpandItemER11wxTreeEvent
_ZN16wxGenericDirCtrl12ReCreateTreeEv
_ZN16wxGenericDirCtrl13GetShowHiddenEv
_ZN16wxGenericDirCtrl13OnEndEditItemER11wxTreeEvent
_ZN16wxGenericDirCtrl13SetupSectionsEv
_ZN16wxGenericDirCtrl13sm_eventTableE
_ZN16wxGenericDirCtrl14CreateTreeCtrlEP8wxWindowiRK7wxPointRK6wxSizel
_ZN16wxGenericDirCtrl14OnCollapseItemER11wxTreeEvent
_ZN16wxGenericDirCtrl14SetDefaultPathERK8wxString
_ZN16wxGenericDirCtrl14SetFilterIndexEi
_ZN16wxGenericDirCtrl14wxCreateObjectEv
_ZN16wxGenericDirCtrl15ExtractWildcardERK8wxStringiRS0_S3_
_ZN16wxGenericDirCtrl15OnBeginEditItemER11wxTreeEvent
_ZN16wxGenericDirCtrl17sm_eventHashTableE
_ZN16wxGenericDirCtrl20sm_eventTableEntriesE
_ZN16wxGenericDirCtrl4InitEv
_ZN16wxGenericDirCtrl6CreateEP8wxWindowiRK8wxStringRK7wxPointRK6wxSizelS4_iS4_
_ZN16wxGenericDirCtrl6OnSizeER11wxSizeEvent
_ZN16wxGenericDirCtrl7SetPathERK8wxString
_ZN16wxGenericDirCtrl8DoResizeEv
_ZN16wxGenericDirCtrl9ExpandDirE12wxTreeItemId
_ZN16wxGenericDirCtrl9FindChildE12wxTreeItemIdRK8wxStringRb
_ZN16wxGenericDirCtrl9GetRootIdEv
_ZN16wxGenericDirCtrl9SetFilterERK8wxString
_ZN16wxGenericDirCtrlC1EP8wxWindowiRK8wxStringRK7wxPointRK6wxSizelS4_iS4_
_ZN16wxGenericDirCtrlC1Ev
_ZN16wxGenericDirCtrlC2EP8wxWindowiRK8wxStringRK7wxPointRK6wxSizelS4_iS4_
_ZN16wxGenericDirCtrlC2Ev
_ZN16wxGenericDirCtrlC5EP8wxWindowiRK8wxStringRK7wxPointRK6wxSizelS4_iS4_
_ZN16wxGenericDirCtrlD0Ev
_ZN16wxGenericDirCtrlD1Ev
_ZN16wxGenericDirCtrlD2Ev
_ZN16wxGridCellCoords3SetEii
_ZN16wxGridCellCoords6SetColEi
_ZN16wxGridCellCoords6SetRowEi
_ZN16wxGridCellCoordsaSERKS_
_ZN16wxGridCellCoordsC1Eii
_ZN16wxGridCellCoordsC1Ev
_ZN16wxGridCellCoordsC2Eii
_ZN16wxGridCellCoordsC2Ev
_ZN16wxGridCellCoordsC5Eii
_ZN16wxGridCellCoordsC5Ev
_ZN16wxGridCellEditor10GetControlEv
_ZN16wxGridCellEditor11GetCellAttrEv
_ZN16wxGridCellEditor11SetCellAttrEP14wxGridCellAttr
_ZN16wxGridCellEditor11StartingKeyER10wxKeyEvent
_ZN16wxGridCellEditor12HandleReturnER10wxKeyEvent
_ZN16wxGridCellEditor13IsAcceptedKeyER10wxKeyEvent
_ZN16wxGridCellEditor13StartingClickEv
_ZN16wxGridCellEditor15PaintBackgroundERK6wxRectP14wxGridCellAttr
_ZN16wxGridCellEditor4ShowEbP14wxGridCellAttr
_ZN16wxGridCellEditor6CreateEP8wxWindowiP12wxEvtHandler
_ZN16wxGridCellEditor7DestroyEv
_ZN16wxGridCellEditor7SetSizeERK6wxRect
_ZN16wxGridCellEditor9IsCreatedEv
_ZN16wxGridCellEditorC1Ev
_ZN16wxGridCellEditorC2Ev
_ZN16wxGridCellEditorD0Ev
_ZN16wxGridCellEditorD1Ev
_ZN16wxGridCellEditorD2Ev
_ZN16wxGridCellWorker13SetParametersERK8wxString
_ZN16wxGridCellWorker6DecRefEv
_ZN16wxGridCellWorker6IncRefEv
_ZN16wxGridCellWorkerC1Ev
_ZN16wxGridCellWorkerC2Ev
_ZN16wxGridCellWorkerC5Ev
_ZN16wxGridCellWorkerD0Ev
_ZN16wxGridCellWorkerD1Ev
_ZN16wxGridCellWorkerD2Ev
_ZN16wxGridXmlHandler12ms_classInfoE
_ZN16wxGridXmlHandler14wxCreateObjectEv
_ZN16wxGridXmlHandler16DoCreateResourceEv
_ZN16wxGridXmlHandler9CanHandleEP9wxXmlNode
_ZN16wxGridXmlHandlerC1Ev
_ZN16wxGridXmlHandlerC2Ev
_ZN16wxGridXmlHandlerD0Ev
_ZN16wxGridXmlHandlerD1Ev
_ZN16wxGridXmlHandlerD2Ev
_ZN16wxGridXmlHandlerD5Ev
_ZN16wxGTKArtProvider12CreateBitmapERK8wxStringS2_RK6wxSize
_ZN16wxGTKArtProviderC1Ev
_ZN16wxGTKArtProviderC2Ev
_ZN16wxGTKArtProviderC5Ev
_ZN16wxGTKArtProviderD0Ev
_ZN16wxGTKArtProviderD1Ev
_ZN16wxGTKArtProviderD2Ev
_ZN16wxGTKArtProviderD5Ev
_ZN16wxHtmlAnchorCell4DrawER4wxDCiiiiR19wxHtmlRenderingInfo
_ZN16wxHtmlAnchorCellC1ERK8wxString
_ZN16wxHtmlAnchorCellC2ERK8wxString
_ZN16wxHtmlAnchorCellC5ERK8wxString
_ZN16wxHtmlAnchorCellD0Ev
_ZN16wxHtmlAnchorCellD1Ev
_ZN16wxHtmlAnchorCellD2Ev
_ZN16wxHtmlAnchorCellD5Ev
_ZN16wxHtmlBookRecord16SetContentsRangeEii
_ZN16wxHtmlBookRecordC1ERK8wxStringS2_S2_S2_
_ZN16wxHtmlBookRecordC1ERKS_
_ZN16wxHtmlBookRecordC2ERK8wxStringS2_S2_S2_
_ZN16wxHtmlBookRecordC2ERKS_
_ZN16wxHtmlBookRecordC5ERK8wxStringS2_S2_S2_
_ZN16wxHtmlBookRecordC5ERKS_
_ZN16wxHtmlBookRecordD1Ev
_ZN16wxHtmlBookRecordD2Ev
_ZN16wxHtmlBookRecordD5Ev
_ZN16wxHtmlColourCell12ms_classInfoE
_ZN16wxHtmlColourCell13DrawInvisibleER4wxDCiiR19wxHtmlRenderingInfo
_ZN16wxHtmlColourCell4DrawER4wxDCiiiiR19wxHtmlRenderingInfo
_ZN16wxHtmlColourCellC1ERK8wxColouri
_ZN16wxHtmlColourCellC2ERK8wxColouri
_ZN16wxHtmlColourCellC5ERK8wxColouri
_ZN16wxHtmlColourCellD0Ev
_ZN16wxHtmlColourCellD1Ev
_ZN16wxHtmlColourCellD2Ev
_ZN16wxHtmlColourCellD5Ev
_ZN16wxHtmlDCRenderer11SetHtmlTextERK8wxStringS2_b
_ZN16wxHtmlDCRenderer14GetTotalHeightEv
_ZN16wxHtmlDCRenderer16SetStandardFontsEiRK8wxStringS2_
_ZN16wxHtmlDCRenderer5SetDCEP4wxDCd
_ZN16wxHtmlDCRenderer6RenderEiiR10wxArrayIntiii
_ZN16wxHtmlDCRenderer7SetSizeEii
_ZN16wxHtmlDCRenderer8SetFontsERK8wxStringS2_PKi
_ZN16wxHtmlDCRendererC1Ev
_ZN16wxHtmlDCRendererC2Ev
_ZN16wxHtmlDCRendererD0Ev
_ZN16wxHtmlDCRendererD1Ev
_ZN16wxHtmlDCRendererD2Ev
_ZN16wxHtmlFilterHTML12ms_classInfoE
_ZN16wxHtmlFilterHTML14wxCreateObjectEv
_ZN16wxHtmlFilterHTMLC1Ev
_ZN16wxHtmlFilterHTMLC2Ev
_ZN16wxHtmlFilterHTMLC5Ev
_ZN16wxHtmlFilterHTMLD0Ev
_ZN16wxHtmlFilterHTMLD1Ev
_ZN16wxHtmlFilterHTMLD2Ev
_ZN16wxHtmlFilterHTMLD5Ev
_ZN16wxHTML_Handler_A16GetSupportedTagsEv
_ZN16wxHTML_Handler_A9HandleTagERK9wxHtmlTag
_ZN16wxHTML_Handler_AC1Ev
_ZN16wxHTML_Handler_AC2Ev
_ZN16wxHTML_Handler_AC5Ev
_ZN16wxHTML_Handler_AD0Ev
_ZN16wxHTML_Handler_AD1Ev
_ZN16wxHTML_Handler_AD2Ev
_ZN16wxHTML_Handler_AD5Ev
_ZN16wxHTML_Handler_P16GetSupportedTagsEv
_ZN16wxHTML_Handler_P9HandleTagERK9wxHtmlTag
_ZN16wxHTML_Handler_PC1Ev
_ZN16wxHTML_Handler_PC2Ev
_ZN16wxHTML_Handler_PC5Ev
_ZN16wxHTML_Handler_PD0Ev
_ZN16wxHTML_Handler_PD1Ev
_ZN16wxHTML_Handler_PD2Ev
_ZN16wxHTML_Handler_PD5Ev
_ZN16wxHtmlHelpDialog12ms_classInfoE
_ZN16wxHtmlHelpDialog13OnCloseWindowER12wxCloseEvent
_ZN16wxHtmlHelpDialog13SetControllerEP20wxHtmlHelpController
_ZN16wxHtmlHelpDialog13sm_eventTableE
_ZN16wxHtmlHelpDialog14SetTitleFormatERK8wxString
_ZN16wxHtmlHelpDialog14wxCreateObjectEv
_ZN16wxHtmlHelpDialog17AddToolbarButtonsEP9wxToolBari
_ZN16wxHtmlHelpDialog17sm_eventHashTableE
_ZN16wxHtmlHelpDialog20sm_eventTableEntriesE
_ZN16wxHtmlHelpDialog4InitEP14wxHtmlHelpData
_ZN16wxHtmlHelpDialog6CreateEP8wxWindowiRK8wxStringi
_ZN16wxHtmlHelpDialogC1EP14wxHtmlHelpData
_ZN16wxHtmlHelpDialogC1EP8wxWindowiRK8wxStringiP14wxHtmlHelpData
_ZN16wxHtmlHelpDialogC2EP14wxHtmlHelpData
_ZN16wxHtmlHelpDialogC2EP8wxWindowiRK8wxStringiP14wxHtmlHelpData
_ZN16wxHtmlHelpDialogC5EP14wxHtmlHelpData
_ZN16wxHtmlHelpDialogD0Ev
_ZN16wxHtmlHelpDialogD1Ev
_ZN16wxHtmlHelpDialogD2Ev
_ZN16wxHtmlHelpWindow10DoIndexAllEv
_ZN16wxHtmlHelpWindow10GetCfgDataEv
_ZN16wxHtmlHelpWindow10OnIndexAllER14wxCommandEvent
_ZN16wxHtmlHelpWindow10OnIndexSelER14wxCommandEvent
_ZN16wxHtmlHelpWindow11CreateIndexEv
_ZN16wxHtmlHelpWindow11DoIndexFindEv
_ZN16wxHtmlHelpWindow11OnIndexFindER14wxCommandEvent
_ZN16wxHtmlHelpWindow11OnSearchSelER14wxCommandEvent
_ZN16wxHtmlHelpWindow12CreateSearchEv
_ZN16wxHtmlHelpWindow12DisplayIndexEv
_ZN16wxHtmlHelpWindow12ms_classInfoE
_ZN16wxHtmlHelpWindow12RefreshListsEv
_ZN16wxHtmlHelpWindow13KeywordSearchERK8wxString16wxHelpSearchMode
_ZN16wxHtmlHelpWindow13OnContentsSelER11wxTreeEvent
_ZN16wxHtmlHelpWindow13OptionsDialogEv
_ZN16wxHtmlHelpWindow13SetControllerEP20wxHtmlHelpController
_ZN16wxHtmlHelpWindow13sm_eventTableE
_ZN16wxHtmlHelpWindow14CreateContentsEv
_ZN16wxHtmlHelpWindow14OnBookmarksSelER14wxCommandEvent
_ZN16wxHtmlHelpWindow14wxCreateObjectEv
_ZN16wxHtmlHelpWindow15DisplayContentsEv
_ZN16wxHtmlHelpWindow16DisplayIndexItemEPK25wxHtmlHelpMergedIndexItem
_ZN16wxHtmlHelpWindow17AddToolbarButtonsEP9wxToolBari
_ZN16wxHtmlHelpWindow17NotifyPageChangedEv
_ZN16wxHtmlHelpWindow17ReadCustomizationEP12wxConfigBaseRK8wxString
_ZN16wxHtmlHelpWindow17sm_eventHashTableE
_ZN16wxHtmlHelpWindow17UpdateMergedIndexEv
_ZN16wxHtmlHelpWindow18WriteCustomizationEP12wxConfigBaseRK8wxString
_ZN16wxHtmlHelpWindow20sm_eventTableEntriesE
_ZN16wxHtmlHelpWindow4InitEP14wxHtmlHelpData
_ZN16wxHtmlHelpWindow6CreateEP8wxWindowiRK7wxPointRK6wxSizeii
_ZN16wxHtmlHelpWindow6OnSizeER11wxSizeEvent
_ZN16wxHtmlHelpWindow7DisplayEi
_ZN16wxHtmlHelpWindow7DisplayERK8wxString
_ZN16wxHtmlHelpWindow8OnSearchER14wxCommandEvent
_ZN16wxHtmlHelpWindow9OnToolbarER14wxCommandEvent
_ZN16wxHtmlHelpWindow9UseConfigEP12wxConfigBaseRK8wxString
_ZN16wxHtmlHelpWindowC1EP14wxHtmlHelpData
_ZN16wxHtmlHelpWindowC1EP8wxWindowiRK7wxPointRK6wxSizeiiP14wxHtmlHelpData
_ZN16wxHtmlHelpWindowC2EP14wxHtmlHelpData
_ZN16wxHtmlHelpWindowC2EP8wxWindowiRK7wxPointRK6wxSizeiiP14wxHtmlHelpData
_ZN16wxHtmlHelpWindowC5EP14wxHtmlHelpData
_ZN16wxHtmlHelpWindowD0Ev
_ZN16wxHtmlHelpWindowD1Ev
_ZN16wxHtmlHelpWindowD2Ev
_ZN16wxHTML_ModulePre12ms_classInfoE
_ZN16wxHTML_ModulePre14wxCreateObjectEv
_ZN16wxHTML_ModulePre17FillHandlersTableEP15wxHtmlWinParser
_ZN16wxHTML_ModulePreC1Ev
_ZN16wxHTML_ModulePreC2Ev
_ZN16wxHTML_ModulePreC5Ev
_ZN16wxHTML_ModulePreD0Ev
_ZN16wxHTML_ModulePreD1Ev
_ZN16wxHTML_ModulePreD2Ev
_ZN16wxHTML_ModulePreD5Ev
_ZN16wxHtmlTagHandler10ParseInnerERK9wxHtmlTag
_ZN16wxHtmlTagHandler12ms_classInfoE
_ZN16wxHtmlTagHandler16ParseInnerSourceERK8wxString
_ZN16wxHtmlTagHandler9SetParserEP12wxHtmlParser
_ZN16wxHtmlTagHandlerC1Ev
_ZN16wxHtmlTagHandlerC2Ev
_ZN16wxHtmlTagHandlerC5Ev
_ZN16wxHtmlTagHandlerD0Ev
_ZN16wxHtmlTagHandlerD1Ev
_ZN16wxHtmlTagHandlerD2Ev
_ZN16wxHtmlTagHandlerD5Ev
_ZN16wxHtmlTagsModule12ms_classInfoE
_ZN16wxHtmlTagsModule14wxCreateObjectEv
_ZN16wxHtmlTagsModule17FillHandlersTableEP15wxHtmlWinParser
_ZN16wxHtmlTagsModule6OnExitEv
_ZN16wxHtmlTagsModule6OnInitEv
_ZN16wxHtmlTagsModuleC1Ev
_ZN16wxHtmlTagsModuleC2Ev
_ZN16wxHtmlTagsModuleC5Ev
_ZN16wxHtmlTagsModuleD0Ev
_ZN16wxHtmlTagsModuleD1Ev
_ZN16wxHtmlTagsModuleD2Ev
_ZN16wxHtmlTagsModuleD5Ev
_ZN16wxHtmlTextPieces3AddERK15wxHtmlTextPiecem
_ZN16wxHtmlTextPieces5EmptyEv
_ZN16wxHtmlTextPieces6DoCopyERKS_
_ZN16wxHtmlTextPieces6InsertERK15wxHtmlTextPiecemm
_ZN16wxHtmlTextPieces7DoEmptyEv
_ZN16wxHtmlTextPieces8RemoveAtEmm
_ZN16wxHtmlTextPiecesaSERKS_
_ZN16wxHtmlTextPiecesC1ERKS_
_ZN16wxHtmlTextPiecesC1Ev
_ZN16wxHtmlTextPiecesC2ERKS_
_ZN16wxHtmlTextPiecesC2Ev
_ZN16wxHtmlTextPiecesC5Ev
_ZN16wxHtmlTextPiecesD1Ev
_ZN16wxHtmlTextPiecesD2Ev
_ZN16wxHtmlWidgetCell12ms_classInfoE
_ZN16wxHtmlWidgetCell13DrawInvisibleER4wxDCiiR19wxHtmlRenderingInfo
_ZN16wxHtmlWidgetCell4DrawER4wxDCiiiiR19wxHtmlRenderingInfo
_ZN16wxHtmlWidgetCell6LayoutEi
_ZN16wxHtmlWidgetCellC1EP8wxWindowi
_ZN16wxHtmlWidgetCellC2EP8wxWindowi
_ZN16wxHtmlWidgetCellD0Ev
_ZN16wxHtmlWidgetCellD1Ev
_ZN16wxHtmlWidgetCellD2Ev
_ZN16wxHtmlWidgetCellD5Ev
_ZN16wxHyperlinkEvent12ms_classInfoE
_ZN16wxHyperlinkEvent14wxCreateObjectEv
_ZN16wxHyperlinkEventC1EP8wxObjectiRK8wxString
_ZN16wxHyperlinkEventC1ERKS_
_ZN16wxHyperlinkEventC1Ev
_ZN16wxHyperlinkEventC2EP8wxObjectiRK8wxString
_ZN16wxHyperlinkEventC2ERKS_
_ZN16wxHyperlinkEventC2Ev
_ZN16wxHyperlinkEventC5EP8wxObjectiRK8wxString
_ZN16wxHyperlinkEventC5ERKS_
_ZN16wxHyperlinkEventC5Ev
_ZN16wxHyperlinkEventD0Ev
_ZN16wxHyperlinkEventD1Ev
_ZN16wxHyperlinkEventD2Ev
_ZN16wxHyperlinkEventD5Ev
_ZN16wxIconXmlHandler12ms_classInfoE
_ZN16wxIconXmlHandler14wxCreateObjectEv
_ZN16wxIconXmlHandler16DoCreateResourceEv
_ZN16wxIconXmlHandler9CanHandleEP9wxXmlNode
_ZN16wxIconXmlHandlerC1Ev
_ZN16wxIconXmlHandlerC2Ev
_ZN16wxIconXmlHandlerD0Ev
_ZN16wxIconXmlHandlerD1Ev
_ZN16wxIconXmlHandlerD2Ev
_ZN16wxIconXmlHandlerD5Ev
_ZN16wxImageHistogram7MakeKeyEhhh
_ZN16wxImageHistogramC1Ev
_ZN16wxImageHistogramC2Ev
_ZN16wxImageHistogramC5Ev
_ZN16wxImageHistogramD1Ev
_ZN16wxImageHistogramD2Ev
_ZN16wxImageHistogramD5Ev
_ZN16wxInputFTPStreamC1EP5wxFTPP12wxSocketBase
_ZN16wxInputFTPStreamC2EP5wxFTPP12wxSocketBase
_ZN16wxInputFTPStreamC5EP5wxFTPP12wxSocketBase
_ZN16wxInputFTPStreamD0Ev
_ZN16wxInputFTPStreamD1Ev
_ZN16wxInputFTPStreamD2Ev
_ZN16wxInputFTPStreamD5Ev
_ZN16wxInputStreamPtr7releaseEv
_ZN16wxInputStreamPtrC1EP13wxInputStream
_ZN16wxInputStreamPtrC2EP13wxInputStream
_ZN16wxInputStreamPtrC5EP13wxInputStream
_ZN16wxInputStreamPtrD1Ev
_ZN16wxInputStreamPtrD2Ev
_ZN16wxJoystickThread5EntryEv
_ZN16wxJoystickThreadC1Eii
_ZN16wxJoystickThreadC2Eii
_ZN16wxJoystickThreadD0Ev
_ZN16wxJoystickThreadD1Ev
_ZN16wxJoystickThreadD2Ev
_ZN16wxJoystickThreadD5Ev
_ZN16wxListHeaderData11SetPositionEii
_ZN16wxListHeaderData4InitEv
_ZN16wxListHeaderData7GetItemER10wxListItem
_ZN16wxListHeaderData7SetItemERK10wxListItem
_ZN16wxListHeaderData8SetStateEi
_ZN16wxListHeaderData8SetWidthEi
_ZN16wxListHeaderData9SetFormatEi
_ZN16wxListHeaderData9SetHeightEi
_ZN16wxListHeaderDataC1ERK10wxListItem
_ZN16wxListHeaderDataC1Ev
_ZN16wxListHeaderDataC2ERK10wxListItem
_ZN16wxListHeaderDataC2Ev
_ZN16wxListHeaderDataD0Ev
_ZN16wxListHeaderDataD1Ev
_ZN16wxListHeaderDataD2Ev
_ZN16wxListHeaderDataD5Ev
_ZN16wxListMainWindow10DeleteItemEl
_ZN16wxListMainWindow10InsertItemER10wxListItem
_ZN16wxListMainWindow10MoveToItemEm
_ZN16wxListMainWindow10OnSetFocusER12wxFocusEvent
_ZN16wxListMainWindow10RefreshAllEv
_ZN16wxListMainWindow10ScrollListEii
_ZN16wxListMainWindow10SendNotifyEmiRK7wxPoint
_ZN16wxListMainWindow11MoveToFocusEv
_ZN16wxListMainWindow11OnArrowCharEmRK10wxKeyEvent
_ZN16wxListMainWindow11OnKillFocusER12wxFocusEvent
_ZN16wxListMainWindow11RefreshLineEm
_ZN16wxListMainWindow11SetItemTextElRK8wxString
_ZN16wxListMainWindow12DeleteColumnEi
_ZN16wxListMainWindow12HighlightAllEb
_ZN16wxListMainWindow12InsertColumnElR10wxListItem
_ZN16wxListMainWindow12ms_classInfoE
_ZN16wxListMainWindow12OnChildFocusER17wxChildFocusEvent
_ZN16wxListMainWindow12RefreshAfterEm
_ZN16wxListMainWindow12RefreshLinesEmm
_ZN16wxListMainWindow12ResetCurrentEv
_ZN16wxListMainWindow12SetImageListEP11wxImageListi
_ZN16wxListMainWindow12SetItemCountEl
_ZN16wxListMainWindow12SetItemStateElll
_ZN16wxListMainWindow13CacheLineDataEm
_ZN16wxListMainWindow13ChangeCurrentEm
_ZN16wxListMainWindow13EnsureVisibleEl
_ZN16wxListMainWindow13FinishEditingEP10wxTextCtrl
_ZN16wxListMainWindow13HighlightLineEmb
_ZN16wxListMainWindow13OnRenameTimerEv
_ZN16wxListMainWindow13sm_eventTableE
_ZN16wxListMainWindow13UpdateCurrentEv
_ZN16wxListMainWindow14DeleteAllItemsEv
_ZN16wxListMainWindow14GetItemSpacingEb
_ZN16wxListMainWindow14HighlightLinesEmmb
_ZN16wxListMainWindow14OnRenameAcceptEmRK8wxString
_ZN16wxListMainWindow14SetColumnWidthEii
_ZN16wxListMainWindow14SetItemSpacingEib
_ZN16wxListMainWindow14wxCreateObjectEv
_ZN16wxListMainWindow15RefreshSelectedEv
_ZN16wxListMainWindow15SetItemStateAllEll
_ZN16wxListMainWindow16DeleteEverythingEv
_ZN16wxListMainWindow16DoDeleteAllItemsEv
_ZN16wxListMainWindow16ReverseHighlightEm
_ZN16wxListMainWindow17OnRenameCancelledEm
_ZN16wxListMainWindow17sm_eventHashTableE
_ZN16wxListMainWindow20GetVisibleLinesRangeEPmS0_
_ZN16wxListMainWindow20RecalculatePositionsEb
_ZN16wxListMainWindow20sm_eventTableEntriesE
_ZN16wxListMainWindow21GetItemWidthWithImageEP10wxListItem
_ZN16wxListMainWindow22ResetVisibleLinesRangeEv
_ZN16wxListMainWindow31GetMainWindowOfCompositeControlEv
_ZN16wxListMainWindow4InitEv
_ZN16wxListMainWindow4ThawEv
_ZN16wxListMainWindow6FreezeEv
_ZN16wxListMainWindow6OnCharER10wxKeyEvent
_ZN16wxListMainWindow7OnKeyUpER10wxKeyEvent
_ZN16wxListMainWindow7OnMouseER12wxMouseEvent
_ZN16wxListMainWindow7OnPaintER12wxPaintEvent
_ZN16wxListMainWindow7SetFontERK6wxFont
_ZN16wxListMainWindow7SetItemER10wxListItem
_ZN16wxListMainWindow8FindItemElm
_ZN16wxListMainWindow8FindItemElRK8wxStringb
_ZN16wxListMainWindow8FindItemERK7wxPoint
_ZN16wxListMainWindow8OnScrollER16wxScrollWinEvent
_ZN16wxListMainWindow9DrawImageEiP4wxDCii
_ZN16wxListMainWindow9EditLabelElP11wxClassInfo
_ZN16wxListMainWindow9OnKeyDownER10wxKeyEvent
_ZN16wxListMainWindow9SetColumnEiR10wxListItem
_ZN16wxListMainWindow9SortItemsEPFilllEl
_ZN16wxListMainWindowC1EP8wxWindowiRK7wxPointRK6wxSizelRK8wxString
_ZN16wxListMainWindowC1Ev
_ZN16wxListMainWindowC2EP8wxWindowiRK7wxPointRK6wxSizelRK8wxString
_ZN16wxListMainWindowC2Ev
_ZN16wxListMainWindowD0Ev
_ZN16wxListMainWindowD1Ev
_ZN16wxListMainWindowD2Ev
_ZN16wxLocalFSHandler7CanOpenERK8wxString
_ZN16wxLocalFSHandler7ms_rootE
_ZN16wxLocalFSHandler8FindNextEv
_ZN16wxLocalFSHandler8OpenFileER12wxFileSystemRK8wxString
_ZN16wxLocalFSHandler9FindFirstERK8wxStringi
_ZN16wxLocalFSHandlerC1Ev
_ZN16wxLocalFSHandlerC2Ev
_ZN16wxLocalFSHandlerC5Ev
_ZN16wxLocalFSHandlerD0Ev
_ZN16wxLocalFSHandlerD1Ev
_ZN16wxLocalFSHandlerD2Ev
_ZN16wxLocalFSHandlerD5Ev
_ZN16wxLogPassThroughC1Ev
_ZN16wxLogPassThroughC2Ev
_ZN16wxLogPassThroughD0Ev
_ZN16wxLogPassThroughD1Ev
_ZN16wxLogPassThroughD2Ev
_ZN16wxLogPassThroughD5Ev
_ZN16wxLongLongNative6AssignEd
_ZN16wxLongLongNativeaSEi
_ZN16wxLongLongNativeaSEl
_ZN16wxLongLongNativeC1Eij
_ZN16wxLongLongNativeC1Ev
_ZN16wxLongLongNativeC1Ex
_ZN16wxLongLongNativeC2Eij
_ZN16wxLongLongNativeC2Ev
_ZN16wxLongLongNativeC2Ex
_ZN16wxLongLongNativeC5Eij
_ZN16wxLongLongNativeC5Ev
_ZN16wxLongLongNativeC5Ex
_ZN16wxLongLongNativedVEl
_ZN16wxLongLongNativemIERKS_
_ZN16wxLongLongNativemIEx
_ZN16wxLongLongNativemLEl
_ZN16wxLongLongNativepLERKS_
_ZN16wxLongLongNativepLEx
_ZN16wxLongLongNativerSEi
_ZN16wxMDIParentFrame12ms_classInfoE
_ZN16wxMDIParentFrame14wxCreateObjectEv
_ZN16wxMDIParentFrameC1Ev
_ZN16wxMDIParentFrameC2Ev
_ZN16wxMDIParentFrameC5Ev
_ZN16wxMDIParentFrameD0Ev
_ZN16wxMDIParentFrameD1Ev
_ZN16wxMDIParentFrameD2Ev
_ZN16wxMDIParentFrameD5Ev
_ZN16wxMenuXmlHandler12ms_classInfoE
_ZN16wxMenuXmlHandler14wxCreateObjectEv
_ZN16wxMenuXmlHandler16DoCreateResourceEv
_ZN16wxMenuXmlHandler9CanHandleEP9wxXmlNode
_ZN16wxMenuXmlHandlerC1Ev
_ZN16wxMenuXmlHandlerC2Ev
_ZN16wxMenuXmlHandlerD0Ev
_ZN16wxMenuXmlHandlerD1Ev
_ZN16wxMenuXmlHandlerD2Ev
_ZN16wxMenuXmlHandlerD5Ev
_ZN16wxMetaTagHandler16GetSupportedTagsEv
_ZN16wxMetaTagHandler9HandleTagERK9wxHtmlTag
_ZN16wxMetaTagHandlerC1EP8wxString
_ZN16wxMetaTagHandlerC2EP8wxString
_ZN16wxMetaTagHandlerC5EP8wxString
_ZN16wxMetaTagHandlerD0Ev
_ZN16wxMetaTagHandlerD1Ev
_ZN16wxMetaTagHandlerD2Ev
_ZN16wxMetaTagHandlerD5Ev
_ZN16wxMsgCatalogFile4LoadEPKcS1_R26wxPluralFormsCalculatorPtr
_ZN16wxMsgCatalogFileC1Ev
_ZN16wxMsgCatalogFileC2Ev
_ZN16wxMsgCatalogFileD1Ev
_ZN16wxMsgCatalogFileD2Ev
_ZN16wxNativeFontInfo10FromStringERK8wxString
_ZN16wxNativeFontInfo11SetEncodingE14wxFontEncoding
_ZN16wxNativeFontInfo11SetFaceNameERK13wxArrayString
_ZN16wxNativeFontInfo11SetFaceNameERK8wxString
_ZN16wxNativeFontInfo12SetPointSizeEi
_ZN16wxNativeFontInfo12SetXFontNameERK8wxString
_ZN16wxNativeFontInfo13FromXFontNameERK8wxString
_ZN16wxNativeFontInfo13SetUnderlinedEb
_ZN16wxNativeFontInfo14FromUserStringERK8wxString
_ZN16wxNativeFontInfo17SetXFontComponentE11wxXLFDFieldRK8wxString
_ZN16wxNativeFontInfo4InitEv
_ZN16wxNativeFontInfo8SetStyleE11wxFontStyle
_ZN16wxNativeFontInfo9SetFamilyE12wxFontFamily
_ZN16wxNativeFontInfo9SetWeightE12wxFontWeight
_ZN16wxNativeFontInfoaSERKS_
_ZN16wxNativeFontInfoC1Ev
_ZN16wxNativeFontInfoC2Ev
_ZN16wxNativeFontInfoC5Ev
_ZN16wxNativeFontInfoD1Ev
_ZN16wxNativeFontInfoD2Ev
_ZN16wxNativeFontInfoD5Ev
_ZN16wxObjectListNode10DeleteDataEv
_ZN16wxObjectListNodeC1EP10wxListBasePS_S2_P8wxObjectRK9wxListKey
_ZN16wxObjectListNodeC2EP10wxListBasePS_S2_P8wxObjectRK9wxListKey
_ZN16wxObjectListNodeC5EP10wxListBasePS_S2_P8wxObjectRK9wxListKey
_ZN16wxObjectListNodeD0Ev
_ZN16wxObjectListNodeD1Ev
_ZN16wxObjectListNodeD2Ev
_ZN16wxObjectListNodeD5Ev
_ZN16wxPaletteRefDataC1Ev
_ZN16wxPaletteRefDataC2Ev
_ZN16wxPaletteRefDataD0Ev
_ZN16wxPaletteRefDataD1Ev
_ZN16wxPaletteRefDataD2Ev
_ZN16wxPrintPaperType12ms_classInfoE
_ZN16wxPrintPaperType14wxCreateObjectEv
_ZN16wxPrintPaperTypeC1E11wxPaperSizeiRK8wxStringii
_ZN16wxPrintPaperTypeC1Ev
_ZN16wxPrintPaperTypeC2E11wxPaperSizeiRK8wxStringii
_ZN16wxPrintPaperTypeC2Ev
_ZN16wxPrintPaperTypeD0Ev
_ZN16wxPrintPaperTypeD1Ev
_ZN16wxPrintPaperTypeD2Ev
_ZN16wxPrintPaperTypeD5Ev
_ZN16wxProgressDialog10EnableSkipEb
_ZN16wxProgressDialog11CreateLabelERK8wxStringP7wxSizer
_ZN16wxProgressDialog11DisableSkipEv
_ZN16wxProgressDialog11EnableAbortEb
_ZN16wxProgressDialog11EnableCloseEv
_ZN16wxProgressDialog12DisableAbortEv
_ZN16wxProgressDialog12ms_classInfoE
_ZN16wxProgressDialog13DoAfterUpdateEPb
_ZN16wxProgressDialog13sm_eventTableE
_ZN16wxProgressDialog13UpdateMessageERK8wxString
_ZN16wxProgressDialog17sm_eventHashTableE
_ZN16wxProgressDialog20ReenableOtherWindowsEv
_ZN16wxProgressDialog20sm_eventTableEntriesE
_ZN16wxProgressDialog4ShowEb
_ZN16wxProgressDialog5PulseERK8wxStringPb
_ZN16wxProgressDialog6OnSkipER14wxCommandEvent
_ZN16wxProgressDialog6ResumeEv
_ZN16wxProgressDialog6UpdateEiRK8wxStringPb
_ZN16wxProgressDialog6UpdateEv
_ZN16wxProgressDialog7OnCloseER12wxCloseEvent
_ZN16wxProgressDialog8OnCancelER14wxCommandEvent
_ZN16wxProgressDialogC1ERK8wxStringS2_iP8wxWindowi
_ZN16wxProgressDialogC2ERK8wxStringS2_iP8wxWindowi
_ZN16wxProgressDialogD0Ev
_ZN16wxProgressDialogD1Ev
_ZN16wxProgressDialogD2Ev
_ZN16wxRawInputStream4OpenEP13wxInputStream
_ZN16wxRawInputStream9OnSysReadEPvm
_ZN16wxRawInputStreamC1ER13wxInputStream
_ZN16wxRawInputStreamC2ER13wxInputStream
_ZN16wxRawInputStreamD0Ev
_ZN16wxRawInputStreamD1Ev
_ZN16wxRawInputStreamD2Ev
_ZN16wxRawInputStreamD5Ev
_ZN16wxRecursionGuardC1ERi
_ZN16wxRecursionGuardC2ERi
_ZN16wxRecursionGuardC5ERi
_ZN16wxRecursionGuardD1Ev
_ZN16wxRecursionGuardD2Ev
_ZN16wxRecursionGuardD5Ev
_ZN16wxRegionIterator12ms_classInfoE
_ZN16wxRegionIterator14wxCreateObjectEv
_ZN16wxRegionIterator5ResetERK8wxRegion
_ZN16wxRegionIterator5ResetEv
_ZN16wxRegionIteratorC1ERK8wxRegion
_ZN16wxRegionIteratorC1Ev
_ZN16wxRegionIteratorC2ERK8wxRegion
_ZN16wxRegionIteratorC2Ev
_ZN16wxRegionIteratorD0Ev
_ZN16wxRegionIteratorD1Ev
_ZN16wxRegionIteratorD2Ev
_ZN16wxRegionIteratorD5Ev
_ZN16wxRegionIteratorppEi
_ZN16wxRegionIteratorppEv
_ZN16wxRendererNative10GetDefaultEv
_ZN16wxRendererNative10GetGenericEv
_ZN16wxRendererNative3GetEv
_ZN16wxRendererNative3SetEPS_
_ZN16wxRendererNative4LoadERK8wxString
_ZN16wxRendererNativeC1Ev
_ZN16wxRendererNativeC2Ev
_ZN16wxRendererNativeC5Ev
_ZN16wxRendererNativeD0Ev
_ZN16wxRendererNativeD1Ev
_ZN16wxRendererNativeD2Ev
_ZN16wxRichTextAction11SetPositionEl
_ZN16wxRichTextAction15ApplyParagraphsERK28wxRichTextParagraphLayoutBox
_ZN16wxRichTextAction16GetNewParagraphsEv
_ZN16wxRichTextAction16GetOldParagraphsEv
_ZN16wxRichTextAction16UpdateAppearanceElbP10wxArrayIntS1_
_ZN16wxRichTextAction29CalculateRefreshOptimizationsER10wxArrayIntS1_
_ZN16wxRichTextAction2DoEv
_ZN16wxRichTextAction4UndoEv
_ZN16wxRichTextAction8SetRangeERK15wxRichTextRange
_ZN16wxRichTextActionC1EP17wxRichTextCommandRK8wxString19wxRichTextCommandIdP16wxRichTextBufferP14wxRichTextCtrlb
_ZN16wxRichTextActionC2EP17wxRichTextCommandRK8wxString19wxRichTextCommandIdP16wxRichTextBufferP14wxRichTextCtrlb
_ZN16wxRichTextActionD0Ev
_ZN16wxRichTextActionD1Ev
_ZN16wxRichTextActionD2Ev
_ZN16wxRichTextBuffer10AddHandlerEP21wxRichTextFileHandler
_ZN16wxRichTextBuffer10BeginStyleERK12wxTextAttrEx
_ZN16wxRichTextBuffer11BeginItalicEv
_ZN16wxRichTextBuffer11FindHandlerEi
_ZN16wxRichTextBuffer11FindHandlerERK8wxString
_ZN16wxRichTextBuffer11FindHandlerERK8wxStringi
_ZN16wxRichTextBuffer11GetHandlersEv
_ZN16wxRichTextBuffer11GetRendererEv
_ZN16wxRichTextBuffer11SetRendererEP18wxRichTextRenderer
_ZN16wxRichTextBuffer11sm_handlersE
_ZN16wxRichTextBuffer11sm_rendererE
_ZN16wxRichTextBuffer12AddParagraphERK8wxStringP12wxTextAttrEx
_ZN16wxRichTextBuffer12EndAllStylesEv
_ZN16wxRichTextBuffer12EndBatchUndoEv
_ZN16wxRichTextBuffer12ms_classInfoE
_ZN16wxRichTextBuffer12SubmitActionEP16wxRichTextAction
_ZN16wxRichTextBuffer13BeginFontSizeEi
_ZN16wxRichTextBuffer13InsertHandlerEP21wxRichTextFileHandler
_ZN16wxRichTextBuffer13PopStyleSheetEv
_ZN16wxRichTextBuffer13RemoveHandlerERK8wxString
_ZN16wxRichTextBuffer13SetStyleSheetEP20wxRichTextStyleSheet
_ZN16wxRichTextBuffer14BeginAlignmentE19wxTextAttrAlignment
_ZN16wxRichTextBuffer14BeginBatchUndoERK8wxString
_ZN16wxRichTextBuffer14BeginListStyleERK8wxStringii
_ZN16wxRichTextBuffer14BeginUnderlineEv
_ZN16wxRichTextBuffer14GetExtWildcardEbbP10wxArrayInt
_ZN16wxRichTextBuffer14PushStyleSheetEP20wxRichTextStyleSheet
_ZN16wxRichTextBuffer14wxCreateObjectEv
_ZN16wxRichTextBuffer15AddEventHandlerEP12wxEvtHandler
_ZN16wxRichTextBuffer15BeginLeftIndentEii
_ZN16wxRichTextBuffer15BeginTextColourERK8wxColour
_ZN16wxRichTextBuffer15CleanUpHandlersEv
_ZN16wxRichTextBuffer15ClearStyleStackEv
_ZN16wxRichTextBuffer15CopyToClipboardERK15wxRichTextRange
_ZN16wxRichTextBuffer15EndSuppressUndoEv
_ZN16wxRichTextBuffer16BeginLineSpacingEi
_ZN16wxRichTextBuffer16BeginRightIndentEi
_ZN16wxRichTextBuffer17BeginSuppressUndoEv
_ZN16wxRichTextBuffer17BeginSymbolBulletERK8wxStringiii
_ZN16wxRichTextBuffer18ClearEventHandlersEv
_ZN16wxRichTextBuffer18InsertTextWithUndoElRK8wxStringP14wxRichTextCtrli
_ZN16wxRichTextBuffer18PasteFromClipboardEl
_ZN16wxRichTextBuffer18RemoveEventHandlerEP12wxEvtHandlerb
_ZN16wxRichTextBuffer19BeginCharacterStyleERK8wxString
_ZN16wxRichTextBuffer19BeginNumberedBulletEiiii
_ZN16wxRichTextBuffer19BeginParagraphStyleERK8wxString
_ZN16wxRichTextBuffer19BeginStandardBulletERK8wxStringiii
_ZN16wxRichTextBuffer19DeleteRangeWithUndoERK15wxRichTextRangeP14wxRichTextCtrl
_ZN16wxRichTextBuffer19GetBulletProportionEv
_ZN16wxRichTextBuffer19InsertImageWithUndoElRK20wxRichTextImageBlockP14wxRichTextCtrli
_ZN16wxRichTextBuffer19sm_bulletProportionE
_ZN16wxRichTextBuffer20GetBulletRightMarginEv
_ZN16wxRichTextBuffer20InitStandardHandlersEv
_ZN16wxRichTextBuffer20sm_bulletRightMarginE
_ZN16wxRichTextBuffer21BeginParagraphSpacingEii
_ZN16wxRichTextBuffer21InsertNewlineWithUndoElP14wxRichTextCtrli
_ZN16wxRichTextBuffer21ResetAndClearCommandsEv
_ZN16wxRichTextBuffer22SetStyleSheetAndNotifyEP20wxRichTextStyleSheet
_ZN16wxRichTextBuffer24InsertParagraphsWithUndoElRK28wxRichTextParagraphLayoutBoxP14wxRichTextCtrli
_ZN16wxRichTextBuffer25FindHandlerFilenameOrTypeERK8wxStringi
_ZN16wxRichTextBuffer4CopyERKS_
_ZN16wxRichTextBuffer4DumpER18wxTextOutputStream
_ZN16wxRichTextBuffer4DumpEv
_ZN16wxRichTextBuffer4InitEv
_ZN16wxRichTextBuffer6ModifyEb
_ZN16wxRichTextBuffer8BeginURLERK8wxStringS2_
_ZN16wxRichTextBuffer8EndStyleEv
_ZN16wxRichTextBuffer8LoadFileER13wxInputStreami
_ZN16wxRichTextBuffer8LoadFileERK8wxStringi
_ZN16wxRichTextBuffer8SaveFileER14wxOutputStreami
_ZN16wxRichTextBuffer8SaveFileERK8wxStringi
_ZN16wxRichTextBuffer8SetScaleEd
_ZN16wxRichTextBuffer9BeginBoldEv
_ZN16wxRichTextBuffer9BeginFontERK6wxFont
_ZN16wxRichTextBuffer9SendEventER7wxEventb
_ZN16wxRichTextBufferC1ERKS_
_ZN16wxRichTextBufferC1Ev
_ZN16wxRichTextBufferC2ERKS_
_ZN16wxRichTextBufferC2Ev
_ZN16wxRichTextBufferC5ERKS_
_ZN16wxRichTextBufferC5Ev
_ZN16wxRichTextBufferD0Ev
_ZN16wxRichTextBufferD1Ev
_ZN16wxRichTextBufferD2Ev
_ZN16wxRichTextModule12ms_classInfoE
_ZN16wxRichTextModule14wxCreateObjectEv
_ZN16wxRichTextModule6OnExitEv
_ZN16wxRichTextModule6OnInitEv
_ZN16wxRichTextModuleC1Ev
_ZN16wxRichTextModuleC2Ev
_ZN16wxRichTextModuleC5Ev
_ZN16wxRichTextModuleD0Ev
_ZN16wxRichTextModuleD1Ev
_ZN16wxRichTextModuleD2Ev
_ZN16wxRichTextModuleD5Ev
_ZN16wxRichTextObject10SetDescentEi
_ZN16wxRichTextObject10SetMarginsEi
_ZN16wxRichTextObject10SetMarginsEiiii
_ZN16wxRichTextObject11DeleteRangeERK15wxRichTextRange
_ZN16wxRichTextObject11DereferenceEv
_ZN16wxRichTextObject11SetPositionERK7wxPoint
_ZN16wxRichTextObject12FindPositionER4wxDClR7wxPointPib
_ZN16wxRichTextObject12ms_classInfoE
_ZN16wxRichTextObject13GetAttributesEv
_ZN16wxRichTextObject13SetAttributesERK12wxTextAttrEx
_ZN16wxRichTextObject13SetCachedSizeERK6wxSize
_ZN16wxRichTextObject14CalculateRangeElRl
_ZN16wxRichTextObject23ConvertTenthsMMToPixelsEii
_ZN16wxRichTextObject23ConvertTenthsMMToPixelsER4wxDCi
_ZN16wxRichTextObject4CopyERKS_
_ZN16wxRichTextObject4DumpER18wxTextOutputStream
_ZN16wxRichTextObject5MergeEPS_
_ZN16wxRichTextObject7DoSplitEl
_ZN16wxRichTextObject7HitTestER4wxDCRK7wxPointRl
_ZN16wxRichTextObject8GetRangeEv
_ZN16wxRichTextObject8SetDirtyEb
_ZN16wxRichTextObject8SetRangeERK15wxRichTextRange
_ZN16wxRichTextObject9SetParentEPS_
_ZN16wxRichTextObjectC1EPS_
_ZN16wxRichTextObjectC2EPS_
_ZN16wxRichTextObjectD0Ev
_ZN16wxRichTextObjectD1Ev
_ZN16wxRichTextObjectD2Ev
_ZN16wxScrollBarTimer8DoNotifyEv
_ZN16wxScrollBarTimerC1EP26wxStdScrollBarInputHandlerRK8wxStringP11wxScrollBar
_ZN16wxScrollBarTimerC2EP26wxStdScrollBarInputHandlerRK8wxStringP11wxScrollBar
_ZN16wxScrollBarTimerD0Ev
_ZN16wxScrollBarTimerD1Ev
_ZN16wxScrollBarTimerD2Ev
_ZN16wxScrollBarTimerD5Ev
_ZN16wxScrolledWindow12ms_classInfoE
_ZN16wxScrolledWindow13sm_eventTableE
_ZN16wxScrolledWindow14wxCreateObjectEv
_ZN16wxScrolledWindow16DoSetVirtualSizeEii
_ZN16wxScrolledWindow17sm_eventHashTableE
_ZN16wxScrolledWindow20sm_eventTableEntriesE
_ZN16wxScrolledWindow6CreateEP8wxWindowiRK7wxPointRK6wxSizelRK8wxString
_ZN16wxScrolledWindow6LayoutEv
_ZN16wxScrolledWindow7OnPaintER12wxPaintEvent
_ZN16wxScrolledWindow9PrepareDCER4wxDC
_ZN16wxScrolledWindowC1EP8wxWindowiRK7wxPointRK6wxSizelRK8wxString
_ZN16wxScrolledWindowC1Ev
_ZN16wxScrolledWindowC2EP8wxWindowiRK7wxPointRK6wxSizelRK8wxString
_ZN16wxScrolledWindowC2Ev
_ZN16wxScrolledWindowC5EP8wxWindowiRK7wxPointRK6wxSizelRK8wxString
_ZN16wxScrolledWindowC5Ev
_ZN16wxScrolledWindowD0Ev
_ZN16wxScrolledWindowD1Ev
_ZN16wxScrolledWindowD2Ev
_ZN16wxScrollWinEvent11SetPositionEi
_ZN16wxScrollWinEvent12ms_classInfoE
_ZN16wxScrollWinEvent14SetOrientationEi
_ZN16wxScrollWinEvent14wxCreateObjectEv
_ZN16wxScrollWinEventC1Eiii
_ZN16wxScrollWinEventC1ERKS_
_ZN16wxScrollWinEventC2Eiii
_ZN16wxScrollWinEventC2ERKS_
_ZN16wxScrollWinEventC5ERKS_
_ZN16wxScrollWinEventD0Ev
_ZN16wxScrollWinEventD1Ev
_ZN16wxScrollWinEventD2Ev
_ZN16wxScrollWinEventD5Ev
_ZN16wxSearchCtrlBaseC1Ev
_ZN16wxSearchCtrlBaseC2Ev
_ZN16wxSearchCtrlBaseC5Ev
_ZN16wxSearchCtrlBaseD0Ev
_ZN16wxSearchCtrlBaseD1Ev
_ZN16wxSearchCtrlBaseD2Ev
_ZN16wxSearchCtrlBaseD5Ev
_ZN16wxSearchTextCtrl13sm_eventTableE
_ZN16wxSearchTextCtrl17sm_eventHashTableE
_ZN16wxSearchTextCtrl18SetDescriptiveTextERK8wxString
_ZN16wxSearchTextCtrl20sm_eventTableEntriesE
_ZN16wxSearchTextCtrl6OnIdleER11wxIdleEvent
_ZN16wxSearchTextCtrl6OnTextER14wxCommandEvent
_ZN16wxSearchTextCtrl7OnFocusER12wxFocusEvent
_ZN16wxSearchTextCtrl9OnTextUrlER14wxTextUrlEvent
_ZN16wxSearchTextCtrlC1EP12wxSearchCtrlRK8wxStringi
_ZN16wxSearchTextCtrlC2EP12wxSearchCtrlRK8wxStringi
_ZN16wxSearchTextCtrlC5EP12wxSearchCtrlRK8wxStringi
_ZN16wxSearchTextCtrlD0Ev
_ZN16wxSearchTextCtrlD1Ev
_ZN16wxSearchTextCtrlD2Ev
_ZN16wxSearchTextCtrlD5Ev
_ZN16wxSelectionStore10SelectItemEmb
_ZN16wxSelectionStore11SelectRangeEmmbP10wxArrayInt
_ZN16wxSelectionStore12OnItemDeleteEm
_ZN16wxSelectionStore12SetItemCountEm
_ZN16wxSelectionStore4InitEv
_ZN16wxSelectionStore5ClearEv
_ZN16wxSelectionStoreC1Ev
_ZN16wxSelectionStoreC2Ev
_ZN16wxSelectionStoreC5Ev
_ZN16wxSelectionStoreD1Ev
_ZN16wxSelectionStoreD2Ev
_ZN16wxSelectionStoreD5Ev
_ZN16wxSetCursorEvent12ms_classInfoE
_ZN16wxSetCursorEvent14wxCreateObjectEv
_ZN16wxSetCursorEvent9SetCursorERK8wxCursor
_ZN16wxSetCursorEventC1Eii
_ZN16wxSetCursorEventC1ERKS_
_ZN16wxSetCursorEventC2Eii
_ZN16wxSetCursorEventC2ERKS_
_ZN16wxSetCursorEventC5Eii
_ZN16wxSetCursorEventC5ERKS_
_ZN16wxSetCursorEventD0Ev
_ZN16wxSetCursorEventD1Ev
_ZN16wxSetCursorEventD2Ev
_ZN16wxSetCursorEventD5Ev
_ZN16wxSpinButtonBase6SetMaxEi
_ZN16wxSpinButtonBase6SetMinEi
_ZN16wxSpinButtonBase8SetRangeEii
_ZN16wxSpinButtonBaseC1Ev
_ZN16wxSpinButtonBaseC2Ev
_ZN16wxSpinButtonBaseC5Ev
_ZN16wxSpinButtonBaseD0Ev
_ZN16wxSpinButtonBaseD1Ev
_ZN16wxSpinButtonBaseD2Ev
_ZN16wxSpinButtonBaseD5Ev
_ZN16wxSpinCtrlButton12OnSpinButtonER11wxSpinEvent
_ZN16wxSpinCtrlButton13sm_eventTableE
_ZN16wxSpinCtrlButton17sm_eventHashTableE
_ZN16wxSpinCtrlButton20sm_eventTableEntriesE
_ZN16wxSpinCtrlButtonC1EP10wxSpinCtrli
_ZN16wxSpinCtrlButtonC2EP10wxSpinCtrli
_ZN16wxSpinCtrlButtonC5EP10wxSpinCtrli
_ZN16wxSpinCtrlButtonD0Ev
_ZN16wxSpinCtrlButtonD1Ev
_ZN16wxSpinCtrlButtonD2Ev
_ZN16wxSpinCtrlButtonD5Ev
_ZN16wxSplitterWindow10InitializeEP8wxWindow
_ZN16wxSplitterWindow10UpdateSizeEv
_ZN16wxSplitterWindow11DoSendEventER15wxSplitterEvent
_ZN16wxSplitterWindow11OnEnterSashEv
_ZN16wxSplitterWindow11OnLeaveSashEv
_ZN16wxSplitterWindow11RemoveChildEP12wxWindowBase
_ZN16wxSplitterWindow11SashHitTestEiii
_ZN16wxSplitterWindow11SizeWindowsEv
_ZN16wxSplitterWindow12ms_classInfoE
_ZN16wxSplitterWindow12OnChildFocusER17wxChildFocusEvent
_ZN16wxSplitterWindow12OnMouseEventER12wxMouseEvent
_ZN16wxSplitterWindow13ReplaceWindowEP8wxWindowS1_
_ZN16wxSplitterWindow13sm_eventTableE
_ZN16wxSplitterWindow14OnInternalIdleEv
_ZN16wxSplitterWindow14SetSashGravityEd
_ZN16wxSplitterWindow14wxCreateObjectEv
_ZN16wxSplitterWindow15DrawSashTrackerEii
_ZN16wxSplitterWindow15OnNavigationKeyER20wxNavigationKeyEvent
_ZN16wxSplitterWindow15SetNeedUpdatingEb
_ZN16wxSplitterWindow15SetResizeCursorEv
_ZN16wxSplitterWindow15SetSashPositionEib
_ZN16wxSplitterWindow15SplitVerticallyEP8wxWindowS1_i
_ZN16wxSplitterWindow17DoSetSashPositionEi
_ZN16wxSplitterWindow17OnDoubleClickSashEii
_ZN16wxSplitterWindow17sm_eventHashTableE
_ZN16wxSplitterWindow17SplitHorizontallyEP8wxWindowS1_i
_ZN16wxSplitterWindow18SetMinimumPaneSizeEi
_ZN16wxSplitterWindow20OnSashPositionChangeEi
_ZN16wxSplitterWindow20RedrawIfHotSensitiveEb
_ZN16wxSplitterWindow20sm_eventTableEntriesE
_ZN16wxSplitterWindow22OnSashPositionChangingEi
_ZN16wxSplitterWindow24SetFocusIgnoringChildrenEv
_ZN16wxSplitterWindow24SetSashPositionAndNotifyEi
_ZN16wxSplitterWindow4InitEv
_ZN16wxSplitterWindow6CreateEP8wxWindowiRK7wxPointRK6wxSizelRK8wxString
_ZN16wxSplitterWindow6OnSizeER11wxSizeEvent
_ZN16wxSplitterWindow7DoSplitE11wxSplitModeP8wxWindowS2_i
_ZN16wxSplitterWindow7OnFocusER12wxFocusEvent
_ZN16wxSplitterWindow7OnPaintER12wxPaintEvent
_ZN16wxSplitterWindow7UnsplitEP8wxWindow
_ZN16wxSplitterWindow8DrawSashER4wxDC
_ZN16wxSplitterWindow8SetFocusEv
_ZN16wxSplitterWindow9OnUnsplitEP8wxWindow
_ZN16wxSplitterWindowC1EP8wxWindowiRK7wxPointRK6wxSizelRK8wxString
_ZN16wxSplitterWindowC1Ev
_ZN16wxSplitterWindowC2EP8wxWindowiRK7wxPointRK6wxSizelRK8wxString
_ZN16wxSplitterWindowC2Ev
_ZN16wxSplitterWindowC5EP8wxWindowiRK7wxPointRK6wxSizelRK8wxString
_ZN16wxSplitterWindowC5Ev
_ZN16wxSplitterWindowD0Ev
_ZN16wxSplitterWindowD1Ev
_ZN16wxSplitterWindowD2Ev
_ZN16wxStackFrameBase13OnGetLocationEv
_ZN16wxStackFrameBase9OnGetNameEv
_ZN16wxStackFrameBaseC1EmPv
_ZN16wxStackFrameBaseC2EmPv
_ZN16wxStackFrameBaseC5EmPv
_ZN16wxStackFrameBaseD0Ev
_ZN16wxStackFrameBaseD1Ev
_ZN16wxStackFrameBaseD2Ev
_ZN16wxStackFrameBaseD5Ev
_ZN16wxStaticBoxSizer11RecalcSizesEv
_ZN16wxStaticBoxSizer12ms_classInfoE
_ZN16wxStaticBoxSizer6DetachEi
_ZN16wxStaticBoxSizer6DetachEP7wxSizer
_ZN16wxStaticBoxSizer6DetachEP8wxWindow
_ZN16wxStaticBoxSizer7CalcMinEv
_ZN16wxStaticBoxSizer9ShowItemsEb
_ZN16wxStaticBoxSizerC1EiP8wxWindowRK8wxString
_ZN16wxStaticBoxSizerC1EP11wxStaticBoxi
_ZN16wxStaticBoxSizerC2EiP8wxWindowRK8wxString
_ZN16wxStaticBoxSizerC2EP11wxStaticBoxi
_ZN16wxStaticBoxSizerD0Ev
_ZN16wxStaticBoxSizerD1Ev
_ZN16wxStaticBoxSizerD2Ev
_ZN16wxStaticLineBase14GetDefaultSizeEv
_ZN16wxStaticLineBaseC1Ev
_ZN16wxStaticLineBaseC2Ev
_ZN16wxStaticLineBaseC5Ev
_ZN16wxStaticLineBaseD0Ev
_ZN16wxStaticLineBaseD1Ev
_ZN16wxStaticLineBaseD2Ev
_ZN16wxStaticLineBaseD5Ev
_ZN16wxStaticTextBase24HasTransparentBackgroundEv
_ZN16wxStaticTextBase4WrapEi
_ZN16wxStaticTextBaseC1Ev
_ZN16wxStaticTextBaseC2Ev
_ZN16wxStaticTextBaseC5Ev
_ZN16wxStaticTextBaseD0Ev
_ZN16wxStaticTextBaseD1Ev
_ZN16wxStaticTextBaseD2Ev
_ZN16wxStaticTextBaseD5Ev
_ZN16wxStringListBase10CreateNodeEP10wxNodeBaseS1_PvRK9wxListKey
_ZN16wxStringListBase10DeleteNodeEP16wxStringListNode
_ZN16wxStringListBase6AppendEPc
_ZN16wxStringListBase6InsertEP16wxStringListNodePc
_ZN16wxStringListBase6InsertEPc
_ZN16wxStringListBaseC1E9wxKeyType
_ZN16wxStringListBaseC2E9wxKeyType
_ZN16wxStringListBaseC5E9wxKeyType
_ZN16wxStringListBaseD0Ev
_ZN16wxStringListBaseD1Ev
_ZN16wxStringListBaseD2Ev
_ZN16wxStringListBaseD5Ev
_ZN16wxStringListNode10DeleteDataEv
_ZN16wxStringListNode7SetDataEPc
_ZN16wxStringListNodeC1EP10wxListBasePS_S2_PcRK9wxListKey
_ZN16wxStringListNodeC2EP10wxListBasePS_S2_PcRK9wxListKey
_ZN16wxStringListNodeC5EP10wxListBasePS_S2_PcRK9wxListKey
_ZN16wxStringListNodeD0Ev
_ZN16wxStringListNodeD1Ev
_ZN16wxStringListNodeD2Ev
_ZN16wxStringListNodeD5Ev
_ZN16wxSymbolListCtrl10OnLeftDownER12wxMouseEvent
_ZN16wxSymbolListCtrl10SetMarginsERK7wxPoint
_ZN16wxSymbolListCtrl12DoSetCurrentEi
_ZN16wxSymbolListCtrl12ms_classInfoE
_ZN16wxSymbolListCtrl12OnLeftDClickER12wxMouseEvent
_ZN16wxSymbolListCtrl12SetSelectionEi
_ZN16wxSymbolListCtrl13EnsureVisibleEi
_ZN16wxSymbolListCtrl13sm_eventTableE
_ZN16wxSymbolListCtrl14SetUnicodeModeEb
_ZN16wxSymbolListCtrl17DoHandleItemClickEii
_ZN16wxSymbolListCtrl17SendSelectedEventEv
_ZN16wxSymbolListCtrl17sm_eventHashTableE
_ZN16wxSymbolListCtrl20sm_eventTableEntriesE
_ZN16wxSymbolListCtrl22SetSelectionBackgroundERK8wxColour
_ZN16wxSymbolListCtrl23SymbolValueToLineNumberEi
_ZN16wxSymbolListCtrl25GetClassDefaultAttributesE15wxWindowVariant
_ZN16wxSymbolListCtrl4InitEv
_ZN16wxSymbolListCtrl6CreateEP8wxWindowiRK7wxPointRK6wxSizelRK8wxString
_ZN16wxSymbolListCtrl6OnSizeER11wxSizeEvent
_ZN16wxSymbolListCtrl7HitTestERK7wxPoint
_ZN16wxSymbolListCtrl7OnPaintER12wxPaintEvent
_ZN16wxSymbolListCtrl7SetFontERK6wxFont
_ZN16wxSymbolListCtrl9OnKeyDownER10wxKeyEvent
_ZN16wxSymbolListCtrl9SetupCtrlEb
_ZN16wxSymbolListCtrlC1EP8wxWindowiRK7wxPointRK6wxSizelRK8wxString
_ZN16wxSymbolListCtrlC2EP8wxWindowiRK7wxPointRK6wxSizelRK8wxString
_ZN16wxSymbolListCtrlC5EP8wxWindowiRK7wxPointRK6wxSizelRK8wxString
_ZN16wxSymbolListCtrlD0Ev
_ZN16wxSymbolListCtrlD1Ev
_ZN16wxSymbolListCtrlD2Ev
_ZN16wxSystemSettings13GetScreenTypeEv
_ZN16wxSystemSettings13SetScreenTypeE18wxSystemScreenType
_ZN16wxSystemSettings9GetColourE14wxSystemColour
_ZN16wxSystemSettings9ms_screenE
_ZN16wxTarHeaderBlock10WriteFieldER14wxOutputStreami
_ZN16wxTarHeaderBlock3GetEi
_ZN16wxTarHeaderBlock3LenEi
_ZN16wxTarHeaderBlock3SumEb
_ZN16wxTarHeaderBlock4NameEi
_ZN16wxTarHeaderBlock4ReadER13wxInputStream
_ZN16wxTarHeaderBlock5checkEv
_ZN16wxTarHeaderBlock5WriteER14wxOutputStream
_ZN16wxTarHeaderBlock6fieldsE
_ZN16wxTarHeaderBlock6OffsetEi
_ZN16wxTarHeaderBlock7SetPathERK8wxStringR8wxMBConv
_ZN16wxTarHeaderBlock8GetOctalEi
_ZN16wxTarHeaderBlock8SetOctalEil
_ZN16wxTarHeaderBlock8SumFieldEi
_ZN16wxTarHeaderBlockC1Ev
_ZN16wxTarHeaderBlockC2Ev
_ZN16wxTarHeaderBlockC5Ev
_ZN16wxTarInputStream10CloseEntryEv
_ZN16wxTarInputStream11ReadHeadersEv
_ZN16wxTarInputStream12GetNextEntryEv
_ZN16wxTarInputStream14DoGetNextEntryEv
_ZN16wxTarInputStream18ReadExtendedHeaderERP18wxTarHeaderRecords
_ZN16wxTarInputStream4InitEv
_ZN16wxTarInputStream9OnSysReadEPvm
_ZN16wxTarInputStream9OnSysSeekEl10wxSeekMode
_ZN16wxTarInputStream9OpenEntryER10wxTarEntry
_ZN16wxTarInputStream9OpenEntryER14wxArchiveEntry
_ZN16wxTarInputStreamC1EP13wxInputStreamR8wxMBConv
_ZN16wxTarInputStreamC1ER13wxInputStreamR8wxMBConv
_ZN16wxTarInputStreamC2EP13wxInputStreamR8wxMBConv
_ZN16wxTarInputStreamC2ER13wxInputStreamR8wxMBConv
_ZN16wxTarInputStreamD0Ev
_ZN16wxTarInputStreamD1Ev
_ZN16wxTarInputStreamD2Ev
_ZN16wxTeeInputStream4OpenEv
_ZN16wxTeeInputStream4ReadEPvm
_ZN16wxTeeInputStream5FinalEv
_ZN16wxTeeInputStream7GetDataEPcm
_ZN16wxTeeInputStream9OnSysReadEPvm
_ZN16wxTeeInputStreamC1ER13wxInputStream
_ZN16wxTeeInputStreamC2ER13wxInputStream
_ZN16wxTeeInputStreamD0Ev
_ZN16wxTeeInputStreamD1Ev
_ZN16wxTeeInputStreamD2Ev
_ZN16wxTeeInputStreamD5Ev
_ZN16wxTextDataObject7SetDataEmPKv
_ZN16wxTextDataObject7SetDataERK12wxDataFormatmPKv
_ZN16wxTextDataObject7SetTextERK8wxString
_ZN16wxTextDataObjectC1ERK8wxString
_ZN16wxTextDataObjectC2ERK8wxString
_ZN16wxTextDataObjectC5ERK8wxString
_ZN16wxTextDataObjectD0Ev
_ZN16wxTextDataObjectD1Ev
_ZN16wxTextDataObjectD2Ev
_ZN16wxTextDataObjectD5Ev
_ZN16wxThreadInternal11SetExitCodeEPv
_ZN16wxThreadInternal11SetPriorityEi
_ZN16wxThreadInternal12PthreadStartEP8wxThread
_ZN16wxThreadInternal13SetCancelFlagEv
_ZN16wxThreadInternal15SetReallyPausedEb
_ZN16wxThreadInternal3RunEv
_ZN16wxThreadInternal4WaitEv
_ZN16wxThreadInternal5PauseEv
_ZN16wxThreadInternal6DetachEv
_ZN16wxThreadInternal6ResumeEv
_ZN16wxThreadInternal7CleanupEP8wxThread
_ZN16wxThreadInternal8GetIdPtrEv
_ZN16wxThreadInternal8SetStateE13wxThreadState
_ZN16wxThreadInternal9SignalRunEv
_ZN16wxThreadInternalC1Ev
_ZN16wxThreadInternalC2Ev
_ZN16wxThreadInternalD1Ev
_ZN16wxThreadInternalD2Ev
_ZN16wxTimerScheduler10QueueTimerEP11wxTimerDesc16wxLongLongNative
_ZN16wxTimerScheduler11RemoveTimerEP11wxTimerDesc
_ZN16wxTimerScheduler12NotifyTimersEv
_ZN16wxTimerSchedulerC1Ev
_ZN16wxTimerSchedulerC2Ev
_ZN16wxTimerSchedulerC5Ev
_ZN16wxTopLevelWindow10OnActivateER15wxActivateEvent
_ZN16wxTopLevelWindow12ms_classInfoE
_ZN16wxTopLevelWindow12OnSystemMenuER14wxCommandEvent
_ZN16wxTopLevelWindow13ms_canIconizeE
_ZN16wxTopLevelWindow13PerformActionERK8wxStringlS2_
_ZN16wxTopLevelWindow13sm_eventTableE
_ZN16wxTopLevelWindow14ShowFullScreenEbl
_ZN16wxTopLevelWindow15DoSetClientSizeEii
_ZN16wxTopLevelWindow15InteractiveMoveEi
_ZN16wxTopLevelWindow15RefreshTitleBarEv
_ZN16wxTopLevelWindow17sm_eventHashTableE
_ZN16wxTopLevelWindow18GetStdInputHandlerEP14wxInputHandler
_ZN16wxTopLevelWindow18ms_drawDecorationsE
_ZN16wxTopLevelWindow19ClickTitleBarButtonEl
_ZN16wxTopLevelWindow20DoGetStdInputHandlerEP14wxInputHandler
_ZN16wxTopLevelWindow20sm_eventTableEntriesE
_ZN16wxTopLevelWindow20UseNativeDecorationsEb
_ZN16wxTopLevelWindow29UseNativeDecorationsByDefaultEb
_ZN16wxTopLevelWindow4InitEv
_ZN16wxTopLevelWindow6CreateEP8wxWindowiRK8wxStringRK7wxPointRK6wxSizelS4_
_ZN16wxTopLevelWindow7OnFocusER12wxFocusEvent
_ZN16wxTopLevelWindow7OnKeyUpER10wxKeyEvent
_ZN16wxTopLevelWindow7OnMouseER12wxMouseEvent
_ZN16wxTopLevelWindow7SetIconERK6wxIcon
_ZN16wxTopLevelWindow8SetIconsERK12wxIconBundle
_ZN16wxTopLevelWindow9OnKeyDownER10wxKeyEvent
_ZN16wxTopLevelWindow9OnNcPaintER14wxNcPaintEvent
_ZN16wxTopLevelWindowC1Ev
_ZN16wxTopLevelWindowC2Ev
_ZN16wxTopLevelWindowC5Ev
_ZN16wxTopLevelWindowD0Ev
_ZN16wxTopLevelWindowD1Ev
_ZN16wxTopLevelWindowD2Ev
_ZN16wxTopLevelWindowD5Ev
_ZN16wxWindowDisablerC1EP8wxWindow
_ZN16wxWindowDisablerC2EP8wxWindow
_ZN16wxWindowDisablerD1Ev
_ZN16wxWindowDisablerD2Ev
_ZN16wxWindowListNode10DeleteDataEv
_ZN16wxWindowListNodeC1EP10wxListBasePS_S2_P8wxWindowRK9wxListKey
_ZN16wxWindowListNodeC2EP10wxListBasePS_S2_P8wxWindowRK9wxListKey
_ZN16wxWindowListNodeC5EP10wxListBasePS_S2_P8wxWindowRK9wxListKey
_ZN16wxWindowListNodeD0Ev
_ZN16wxWindowListNodeD1Ev
_ZN16wxWindowListNodeD2Ev
_ZN16wxWindowListNodeD5Ev
_ZN16wxwxMenuListNode10DeleteDataEv
_ZN16wxwxMenuListNode7SetDataEP6wxMenu
_ZN16wxwxMenuListNodeC1EP10wxListBasePS_S2_P6wxMenuRK9wxListKey
_ZN16wxwxMenuListNodeC2EP10wxListBasePS_S2_P6wxMenuRK9wxListKey
_ZN16wxwxMenuListNodeC5EP10wxListBasePS_S2_P6wxMenuRK9wxListKey
_ZN16wxwxMenuListNodeD0Ev
_ZN16wxwxMenuListNodeD1Ev
_ZN16wxwxMenuListNodeD2Ev
_ZN16wxwxMenuListNodeD5Ev
_ZN16wxXBMDataHandler12ms_classInfoE
_ZN16wxXBMDataHandler14wxCreateObjectEv
_ZN16wxXBMDataHandler6CreateEP8wxBitmapPKvliii
_ZN16wxXBMDataHandler8LoadFileEP8wxBitmapRK8wxStringlii
_ZN16wxXBMDataHandler8SaveFileEPK8wxBitmapRK8wxStringiPK9wxPalette
_ZN16wxXBMDataHandlerC1Ev
_ZN16wxXBMDataHandlerC2Ev
_ZN16wxXBMDataHandlerC5Ev
_ZN16wxXBMDataHandlerD0Ev
_ZN16wxXBMDataHandlerD1Ev
_ZN16wxXBMDataHandlerD2Ev
_ZN16wxXBMDataHandlerD5Ev
_ZN16wxXPMDataHandler12ms_classInfoE
_ZN16wxXPMDataHandler14wxCreateObjectEv
_ZN16wxXPMDataHandler6CreateEP8wxBitmapPKvliii
_ZN16wxXPMDataHandler8LoadFileEP8wxBitmapRK8wxStringlii
_ZN16wxXPMDataHandler8SaveFileEPK8wxBitmapRK8wxStringiPK9wxPalette
_ZN16wxXPMDataHandlerC1Ev
_ZN16wxXPMDataHandlerC2Ev
_ZN16wxXPMDataHandlerC5Ev
_ZN16wxXPMDataHandlerD0Ev
_ZN16wxXPMDataHandlerD1Ev
_ZN16wxXPMDataHandlerD2Ev
_ZN16wxXPMDataHandlerD5Ev
_ZN16wxXPMFileHandler12ms_classInfoE
_ZN16wxXPMFileHandler14wxCreateObjectEv
_ZN16wxXPMFileHandler6CreateEP8wxBitmapPKvliii
_ZN16wxXPMFileHandler8LoadFileEP8wxBitmapRK8wxStringlii
_ZN16wxXPMFileHandler8SaveFileEPK8wxBitmapRK8wxStringiPK9wxPalette
_ZN16wxXPMFileHandlerC1Ev
_ZN16wxXPMFileHandlerC2Ev
_ZN16wxXPMFileHandlerC5Ev
_ZN16wxXPMFileHandlerD0Ev
_ZN16wxXPMFileHandlerD1Ev
_ZN16wxXPMFileHandlerD2Ev
_ZN16wxXPMFileHandlerD5Ev
_ZN16wxZipInputStream10CloseEntryEv
_ZN16wxZipInputStream10GetCommentEv
_ZN16wxZipInputStream11ReadCentralEv
_ZN16wxZipInputStream12GetNextEntryEv
_ZN16wxZipInputStream13FindEndRecordEv
_ZN16wxZipInputStream13LoadEndRecordEv
_ZN16wxZipInputStream13ReadSignatureEv
_ZN16wxZipInputStream14DoGetNextEntryEv
_ZN16wxZipInputStream15GetTotalEntriesEv
_ZN16wxZipInputStream16OpenDecompressorEb
_ZN16wxZipInputStream16OpenDecompressorER13wxInputStream
_ZN16wxZipInputStream17CloseDecompressorEP13wxInputStream
_ZN16wxZipInputStream4InitERK8wxString
_ZN16wxZipInputStream4InitEv
_ZN16wxZipInputStream6DoOpenEP10wxZipEntryb
_ZN16wxZipInputStream8MakeLinkEP17wxZipOutputStream
_ZN16wxZipInputStream8OpenFileERK8wxString
_ZN16wxZipInputStream9OnSysReadEPvm
_ZN16wxZipInputStream9OnSysSeekEl10wxSeekMode
_ZN16wxZipInputStream9OpenEntryER10wxZipEntry
_ZN16wxZipInputStream9OpenEntryER14wxArchiveEntry
_ZN16wxZipInputStream9ReadLocalEb
_ZN16wxZipInputStreamC1EP13wxInputStreamR8wxMBConv
_ZN16wxZipInputStreamC1ER13wxInputStreamR8wxMBConv
_ZN16wxZipInputStreamC2EP13wxInputStreamR8wxMBConv
_ZN16wxZipInputStreamC2ER13wxInputStreamR8wxMBConv
_ZN16wxZipInputStreamD0Ev
_ZN16wxZipInputStreamD1Ev
_ZN16wxZipInputStreamD2Ev
_ZN17ReentrancyBlockerC1ERb
_ZN17ReentrancyBlockerC2ERb
_ZN17ReentrancyBlockerC5ERb
_ZN17ReentrancyBlockerD1Ev
_ZN17ReentrancyBlockerD2Ev
_ZN17ReentrancyBlockerD5Ev
_ZN17wxAnimationModule12ms_classInfoE
_ZN17wxAnimationModule14wxCreateObjectEv
_ZN17wxAnimationModule6OnExitEv
_ZN17wxAnimationModule6OnInitEv
_ZN17wxAnimationModuleC1Ev
_ZN17wxAnimationModuleC2Ev
_ZN17wxAnimationModuleC5Ev
_ZN17wxAnimationModuleD0Ev
_ZN17wxAnimationModuleD1Ev
_ZN17wxAnimationModuleD2Ev
_ZN17wxAnimationModuleD5Ev
_ZN17wxAnyChoiceDialog10CreateListEiPK8wxStringl
_ZN17wxAnyChoiceDialog6CreateEP8wxWindowRK8wxStringS4_iPS3_lRK7wxPointl
_ZN17wxAnyChoiceDialog6CreateEP8wxWindowRK8wxStringS4_RK13wxArrayStringlRK7wxPointl
_ZN17wxAnyChoiceDialogC1Ev
_ZN17wxAnyChoiceDialogC2Ev
_ZN17wxAnyChoiceDialogC5Ev
_ZN17wxAnyChoiceDialogD0Ev
_ZN17wxAnyChoiceDialogD1Ev
_ZN17wxAnyChoiceDialogD2Ev
_ZN17wxAnyChoiceDialogD5Ev
_ZN17wxAuiManagerEvent10SetCanVetoEb
_ZN17wxAuiManagerEvent10SetManagerEP12wxAuiManager
_ZN17wxAuiManagerEvent12ms_classInfoE
_ZN17wxAuiManagerEvent14wxCreateObjectEv
_ZN17wxAuiManagerEvent5SetDCEP4wxDC
_ZN17wxAuiManagerEvent7SetPaneEP13wxAuiPaneInfo
_ZN17wxAuiManagerEvent9SetButtonEi
_ZN17wxAuiManagerEventC1Ei
_ZN17wxAuiManagerEventC1ERKS_
_ZN17wxAuiManagerEventC2Ei
_ZN17wxAuiManagerEventC2ERKS_
_ZN17wxAuiManagerEventC5Ei
_ZN17wxAuiManagerEventC5ERKS_
_ZN17wxAuiManagerEventD0Ev
_ZN17wxAuiManagerEventD1Ev
_ZN17wxAuiManagerEventD2Ev
_ZN17wxAuiManagerEventD5Ev
_ZN17wxAuiNotebookPageaSERKS_
_ZN17wxAuiNotebookPageC1ERKS_
_ZN17wxAuiNotebookPageC1Ev
_ZN17wxAuiNotebookPageC2ERKS_
_ZN17wxAuiNotebookPageC2Ev
_ZN17wxAuiNotebookPageC5ERKS_
_ZN17wxAuiNotebookPageC5Ev
_ZN17wxAuiNotebookPageD1Ev
_ZN17wxAuiNotebookPageD2Ev
_ZN17wxAuiNotebookPageD5Ev
_ZN17wxAuiSimpleTabArt10DrawButtonER4wxDCP8wxWindowRK6wxRectiiiPS4_
_ZN17wxAuiSimpleTabArt10GetTabSizeER4wxDCP8wxWindowRK8wxStringRK8wxBitmapbiPi
_ZN17wxAuiSimpleTabArt12ShowDropDownEP8wxWindowRK22wxAuiNotebookPageArrayi
_ZN17wxAuiSimpleTabArt13GetIndentSizeEv
_ZN17wxAuiSimpleTabArt13SetNormalFontERK6wxFont
_ZN17wxAuiSimpleTabArt13SetSizingInfoERK6wxSizem
_ZN17wxAuiSimpleTabArt14DrawBackgroundER4wxDCP8wxWindowRK6wxRect
_ZN17wxAuiSimpleTabArt15SetSelectedFontERK6wxFont
_ZN17wxAuiSimpleTabArt16SetMeasuringFontERK6wxFont
_ZN17wxAuiSimpleTabArt18GetBestTabCtrlSizeEP8wxWindowRK22wxAuiNotebookPageArrayRK6wxSize
_ZN17wxAuiSimpleTabArt5CloneEv
_ZN17wxAuiSimpleTabArt7DrawTabER4wxDCP8wxWindowRK17wxAuiNotebookPageRK6wxRectiPS7_SA_Pi
_ZN17wxAuiSimpleTabArt8SetFlagsEj
_ZN17wxAuiSimpleTabArtC1Ev
_ZN17wxAuiSimpleTabArtC2Ev
_ZN17wxAuiSimpleTabArtD0Ev
_ZN17wxAuiSimpleTabArtD1Ev
_ZN17wxAuiSimpleTabArtD2Ev
_ZN17wxAuiTabContainer10DoShowHideEv
_ZN17wxAuiTabContainer10InsertPageEP8wxWindowRK17wxAuiNotebookPagem
_ZN17wxAuiTabContainer10RemovePageEP8wxWindow
_ZN17wxAuiTabContainer12IsTabVisibleEiiP4wxDCP8wxWindow
_ZN17wxAuiTabContainer12RemoveButtonEi
_ZN17wxAuiTabContainer12SetTabOffsetEm
_ZN17wxAuiTabContainer13SetActivePageEm
_ZN17wxAuiTabContainer13SetActivePageEP8wxWindow
_ZN17wxAuiTabContainer13SetNoneActiveEv
_ZN17wxAuiTabContainer13SetNormalFontERK6wxFont
_ZN17wxAuiTabContainer14MakeTabVisibleEiP8wxWindow
_ZN17wxAuiTabContainer14SetArtProviderEP11wxAuiTabArt
_ZN17wxAuiTabContainer15SetSelectedFontERK6wxFont
_ZN17wxAuiTabContainer16SetMeasuringFontERK6wxFont
_ZN17wxAuiTabContainer6RenderEP4wxDCP8wxWindow
_ZN17wxAuiTabContainer7AddPageEP8wxWindowRK17wxAuiNotebookPage
_ZN17wxAuiTabContainer7GetPageEm
_ZN17wxAuiTabContainer7SetRectERK6wxRect
_ZN17wxAuiTabContainer8GetPagesEv
_ZN17wxAuiTabContainer8MovePageEP8wxWindowm
_ZN17wxAuiTabContainer8SetFlagsEj
_ZN17wxAuiTabContainer9AddButtonEiiRK8wxBitmapS2_
_ZN17wxAuiTabContainerC1Ev
_ZN17wxAuiTabContainerC2Ev
_ZN17wxAuiTabContainerD0Ev
_ZN17wxAuiTabContainerD1Ev
_ZN17wxAuiTabContainerD2Ev
_ZN17wxAuiToolBarEvent11SetItemRectERK6wxRect
_ZN17wxAuiToolBarEvent12ms_classInfoE
_ZN17wxAuiToolBarEvent13SetClickPointERK7wxPoint
_ZN17wxAuiToolBarEvent14wxCreateObjectEv
_ZN17wxAuiToolBarEvent18SetDropDownClickedEb
_ZN17wxAuiToolBarEvent9SetToolIdEi
_ZN17wxAuiToolBarEventC1Eii
_ZN17wxAuiToolBarEventC1ERKS_
_ZN17wxAuiToolBarEventC2Eii
_ZN17wxAuiToolBarEventC2ERKS_
_ZN17wxAuiToolBarEventC5Eii
_ZN17wxAuiToolBarEventC5ERKS_
_ZN17wxAuiToolBarEventD0Ev
_ZN17wxAuiToolBarEventD1Ev
_ZN17wxAuiToolBarEventD2Ev
_ZN17wxAuiToolBarEventD5Ev
_ZN17wxAutoScrollTimer6NotifyEv
_ZN17wxAutoScrollTimerC1EP8wxWindowP14wxScrollHelperiii
_ZN17wxAutoScrollTimerC2EP8wxWindowP14wxScrollHelperiii
_ZN17wxAutoScrollTimerD0Ev
_ZN17wxAutoScrollTimerD1Ev
_ZN17wxAutoScrollTimerD2Ev
_ZN17wxAutoScrollTimerD5Ev
_ZN17wxBackingFileImpl6AddRefEv
_ZN17wxBackingFileImpl6ReadAtElPvPm
_ZN17wxBackingFileImpl7ReleaseEv
_ZN17wxBackingFileImplC1EP13wxInputStreammRK8wxString
_ZN17wxBackingFileImplC2EP13wxInputStreammRK8wxString
_ZN17wxBackingFileImplD1Ev
_ZN17wxBackingFileImplD2Ev
_ZN17wxBaseArrayDouble3AddEdm
_ZN17wxBaseArrayDouble3AddEdPFiPKvS1_E
_ZN17wxBaseArrayDouble4GrowEm
_ZN17wxBaseArrayDouble4SortEPFiPKvS1_E
_ZN17wxBaseArrayDouble5AllocEm
_ZN17wxBaseArrayDouble5beginEv
_ZN17wxBaseArrayDouble5clearEv
_ZN17wxBaseArrayDouble5ClearEv
_ZN17wxBaseArrayDouble6assignEmRKd
_ZN17wxBaseArrayDouble6assignEPKdS1_
_ZN17wxBaseArrayDouble6InsertEdmm
_ZN17wxBaseArrayDouble6insertEPdPKdS2_
_ZN17wxBaseArrayDouble6RemoveEd
_ZN17wxBaseArrayDouble6ShrinkEv
_ZN17wxBaseArrayDouble7ReallocEm
_ZN17wxBaseArrayDouble7reserveEm
_ZN17wxBaseArrayDouble8RemoveAtEmm
_ZN17wxBaseArrayDouble8SetCountEmd
_ZN17wxBaseArrayDouble9push_backERKd
_ZN17wxBaseArrayDoubleaSERKS_
_ZN17wxBaseArrayDoubleC1ERKS_
_ZN17wxBaseArrayDoubleC1Ev
_ZN17wxBaseArrayDoubleC2ERKS_
_ZN17wxBaseArrayDoubleC2Ev
_ZN17wxBaseArrayDoubleD1Ev
_ZN17wxBaseArrayDoubleD2Ev
_ZN17wxBufferedPaintDC12ms_classInfoE
_ZN17wxBufferedPaintDC15GetBufferedSizeEP8wxWindowi
_ZN17wxBufferedPaintDCC1EP8wxWindowi
_ZN17wxBufferedPaintDCC1EP8wxWindowR8wxBitmapi
_ZN17wxBufferedPaintDCC2EP8wxWindowi
_ZN17wxBufferedPaintDCC2EP8wxWindowR8wxBitmapi
_ZN17wxBufferedPaintDCC5EP8wxWindowi
_ZN17wxBufferedPaintDCC5EP8wxWindowR8wxBitmapi
_ZN17wxBufferedPaintDCD0Ev
_ZN17wxBufferedPaintDCD1Ev
_ZN17wxBufferedPaintDCD2Ev
_ZN17wxBufferedPaintDCD5Ev
_ZN17wxChildFocusEvent12ms_classInfoE
_ZN17wxChildFocusEvent14wxCreateObjectEv
_ZN17wxChildFocusEventC1EP8wxWindow
_ZN17wxChildFocusEventC1ERKS_
_ZN17wxChildFocusEventC2EP8wxWindow
_ZN17wxChildFocusEventC2ERKS_
_ZN17wxChildFocusEventC5ERKS_
_ZN17wxChildFocusEventD0Ev
_ZN17wxChildFocusEventD1Ev
_ZN17wxChildFocusEventD2Ev
_ZN17wxChildFocusEventD5Ev
_ZN17wxChoicebookEvent12ms_classInfoE
_ZN17wxChoicebookEvent14wxCreateObjectEv
_ZN17wxChoicebookEventC1Eiiii
_ZN17wxChoicebookEventC1ERKS_
_ZN17wxChoicebookEventC2Eiiii
_ZN17wxChoicebookEventC2ERKS_
_ZN17wxChoicebookEventC5Eiiii
_ZN17wxChoicebookEventC5ERKS_
_ZN17wxChoicebookEventD0Ev
_ZN17wxChoicebookEventD1Ev
_ZN17wxChoicebookEventD2Ev
_ZN17wxChoicebookEventD5Ev
_ZN17wxClipboardLockerC1EP11wxClipboard
_ZN17wxClipboardLockerC2EP11wxClipboard
_ZN17wxClipboardLockerC5EP11wxClipboard
_ZN17wxClipboardLockerD1Ev
_ZN17wxClipboardLockerD2Ev
_ZN17wxClipboardLockerD5Ev
_ZN17wxClipboardModule12ms_classInfoE
_ZN17wxClipboardModule14wxCreateObjectEv
_ZN17wxClipboardModule6OnExitEv
_ZN17wxClipboardModule6OnInitEv
_ZN17wxClipboardModuleC1Ev
_ZN17wxClipboardModuleC2Ev
_ZN17wxClipboardModuleC5Ev
_ZN17wxClipboardModuleD0Ev
_ZN17wxClipboardModuleD1Ev
_ZN17wxClipboardModuleD2Ev
_ZN17wxClipboardModuleD5Ev
_ZN17wxControlRenderer10DrawBitmapER4wxDCRK8wxBitmapRK6wxRecti9wxStretch
_ZN17wxControlRenderer10DrawBitmapERK8wxBitmap
_ZN17wxControlRenderer11DoDrawItemsEPK9wxListBoxmmb
_ZN17wxControlRenderer13DrawScrollbarEPK11wxScrollBari
_ZN17wxControlRenderer14DrawCheckItemsEPK14wxCheckListBoxmm
_ZN17wxControlRenderer15DrawProgressBarEPK7wxGauge
_ZN17wxControlRenderer16DrawButtonBorderEv
_ZN17wxControlRenderer5GetDCEv
_ZN17wxControlRenderer7GetRectEv
_ZN17wxControlRenderer8DrawLineEiiii
_ZN17wxControlRenderer9DrawFrameEv
_ZN17wxControlRenderer9DrawItemsEPK9wxListBoxmm
_ZN17wxControlRenderer9DrawLabelERK8wxBitmapii
_ZN17wxControlRendererC1EP8wxWindowR4wxDCP10wxRenderer
_ZN17wxControlRendererC2EP8wxWindowR4wxDCP10wxRenderer
_ZN17wxCriticalSection5EnterEv
_ZN17wxCriticalSection5LeaveEv
_ZN17wxCriticalSectionC1Ev
_ZN17wxCriticalSectionC2Ev
_ZN17wxCriticalSectionC5Ev
_ZN17wxCriticalSectionD1Ev
_ZN17wxCriticalSectionD2Ev
_ZN17wxCriticalSectionD5Ev
_ZN17wxDataInputStream10ReadDoubleEPdm
_ZN17wxDataInputStream10ReadDoubleEv
_ZN17wxDataInputStream10ReadStringEv
_ZN17wxDataInputStream5Read8EPhm
_ZN17wxDataInputStream5Read8Ev
_ZN17wxDataInputStream6Read16EPtm
_ZN17wxDataInputStream6Read16Ev
_ZN17wxDataInputStream6Read32EPjm
_ZN17wxDataInputStream6Read32Ev
_ZN17wxDataInputStream6Read64EP16wxLongLongNativem
_ZN17wxDataInputStream6Read64EP17wxULongLongNativem
_ZN17wxDataInputStream6Read64EPxm
_ZN17wxDataInputStream6Read64EPym
_ZN17wxDataInputStream6Read64Ev
_ZN17wxDataInputStream6ReadLLEP16wxLongLongNativem
_ZN17wxDataInputStream6ReadLLEP17wxULongLongNativem
_ZN17wxDataInputStream6ReadLLEv
_ZN17wxDataInputStreamC1ER13wxInputStream
_ZN17wxDataInputStreamC2ER13wxInputStream
_ZN17wxDataInputStreamD1Ev
_ZN17wxDataInputStreamD2Ev
_ZN17wxDataInputStreamrsER16wxLongLongNative
_ZN17wxDataInputStreamrsER17wxULongLongNative
_ZN17wxDataInputStreamrsER8wxString
_ZN17wxDataInputStreamrsERa
_ZN17wxDataInputStreamrsERd
_ZN17wxDataInputStreamrsERf
_ZN17wxDataInputStreamrsERh
_ZN17wxDataInputStreamrsERi
_ZN17wxDataInputStreamrsERj
_ZN17wxDataInputStreamrsERs
_ZN17wxDataInputStreamrsERt
_ZN17wxDataInputStreamrsERx
_ZN17wxDataInputStreamrsERy
_ZN17wxDummyConsoleApp5OnRunEv
_ZN17wxDummyConsoleAppC1Ev
_ZN17wxDummyConsoleAppC2Ev
_ZN17wxDummyConsoleAppC5Ev
_ZN17wxDummyConsoleAppD0Ev
_ZN17wxDummyConsoleAppD1Ev
_ZN17wxDummyConsoleAppD2Ev
_ZN17wxDummyConsoleAppD5Ev
_ZN17wxEventTableEntryC1ERKiiiM8wxObjectFvR7wxEventEPS2_
_ZN17wxEventTableEntryC2ERKiiiM8wxObjectFvR7wxEventEPS2_
_ZN17wxEventTableEntryC5ERKiiiM8wxObjectFvR7wxEventEPS2_
_ZN17wxExtHelpMapEntryC1EiRK8wxStringS2_
_ZN17wxExtHelpMapEntryC2EiRK8wxStringS2_
_ZN17wxExtHelpMapEntryC5EiRK8wxStringS2_
_ZN17wxExtHelpMapEntryD0Ev
_ZN17wxExtHelpMapEntryD1Ev
_ZN17wxExtHelpMapEntryD2Ev
_ZN17wxExtHelpMapEntryD5Ev
_ZN17wxFileConfigEntry7SetLineEP20wxFileConfigLineList
_ZN17wxFileConfigEntry8SetValueERK8wxStringb
_ZN17wxFileConfigEntryC1EP17wxFileConfigGroupRK8wxStringi
_ZN17wxFileConfigEntryC2EP17wxFileConfigGroupRK8wxStringi
_ZN17wxFileConfigEntryD1Ev
_ZN17wxFileConfigEntryD2Ev
_ZN17wxFileConfigEntryD5Ev
_ZN17wxFileConfigGroup11AddSubgroupERK8wxString
_ZN17wxFileConfigGroup11DeleteEntryEPKc
_ZN17wxFileConfigGroup12GetGroupLineEv
_ZN17wxFileConfigGroup12SetLastEntryEP17wxFileConfigEntry
_ZN17wxFileConfigGroup12SetLastGroupEPS_
_ZN17wxFileConfigGroup14DeleteSubgroupEPS_
_ZN17wxFileConfigGroup16GetLastEntryLineEv
_ZN17wxFileConfigGroup16GetLastGroupLineEv
_ZN17wxFileConfigGroup20DeleteSubgroupByNameEPKc
_ZN17wxFileConfigGroup28UpdateGroupAndSubgroupsLinesEv
_ZN17wxFileConfigGroup6RenameERK8wxString
_ZN17wxFileConfigGroup7SetLineEP20wxFileConfigLineList
_ZN17wxFileConfigGroup8AddEntryERK8wxStringi
_ZN17wxFileConfigGroupC1EPS_RK8wxStringP12wxFileConfig
_ZN17wxFileConfigGroupC2EPS_RK8wxStringP12wxFileConfig
_ZN17wxFileConfigGroupD1Ev
_ZN17wxFileConfigGroupD2Ev
_ZN17wxFileInputStream9OnSysReadEPvm
_ZN17wxFileInputStream9OnSysSeekEl10wxSeekMode
_ZN17wxFileInputStreamC1Ei
_ZN17wxFileInputStreamC1ER6wxFile
_ZN17wxFileInputStreamC1ERK8wxString
_ZN17wxFileInputStreamC1Ev
_ZN17wxFileInputStreamC2Ei
_ZN17wxFileInputStreamC2ER6wxFile
_ZN17wxFileInputStreamC2ERK8wxString
_ZN17wxFileInputStreamC2Ev
_ZN17wxFileInputStreamD0Ev
_ZN17wxFileInputStreamD1Ev
_ZN17wxFileInputStreamD2Ev
_ZN17wxFileTipProvider6GetTipEv
_ZN17wxFileTipProviderC1ERK8wxStringm
_ZN17wxFileTipProviderC2ERK8wxStringm
_ZN17wxFileTipProviderD0Ev
_ZN17wxFileTipProviderD1Ev
_ZN17wxFileTipProviderD2Ev
_ZN17wxFileTipProviderD5Ev
_ZN17wxFilterFSHandler7CanOpenERK8wxString
_ZN17wxFilterFSHandler8FindNextEv
_ZN17wxFilterFSHandler8OpenFileER12wxFileSystemRK8wxString
_ZN17wxFilterFSHandler9FindFirstERK8wxStringi
_ZN17wxFilterFSHandlerD0Ev
_ZN17wxFilterFSHandlerD1Ev
_ZN17wxFilterFSHandlerD2Ev
_ZN17wxFilterFSHandlerD5Ev
_ZN17wxFindDialogEvent12ms_classInfoE
_ZN17wxFindDialogEvent13SetFindStringERK8wxString
_ZN17wxFindDialogEvent14wxCreateObjectEv
_ZN17wxFindDialogEvent16SetReplaceStringERK8wxString
_ZN17wxFindDialogEvent8SetFlagsEi
_ZN17wxFindDialogEventC1Eii
_ZN17wxFindDialogEventC2Eii
_ZN17wxFindDialogEventC5Eii
_ZN17wxFindDialogEventD0Ev
_ZN17wxFindDialogEventD1Ev
_ZN17wxFindDialogEventD2Ev
_ZN17wxFindDialogEventD5Ev
_ZN17wxFindReplaceData13GetFindStringEv
_ZN17wxFindReplaceData16GetReplaceStringEv
_ZN17wxFindReplaceData4InitEv
_ZN17wxFontPickerEvent12ms_classInfoE
_ZN17wxFontPickerEvent14wxCreateObjectEv
_ZN17wxFontPickerEventC1EP8wxObjectiRK6wxFont
_ZN17wxFontPickerEventC1ERKS_
_ZN17wxFontPickerEventC1Ev
_ZN17wxFontPickerEventC2EP8wxObjectiRK6wxFont
_ZN17wxFontPickerEventC2ERKS_
_ZN17wxFontPickerEventC2Ev
_ZN17wxFontPickerEventC5EP8wxObjectiRK6wxFont
_ZN17wxFontPickerEventC5ERKS_
_ZN17wxFontPickerEventC5Ev
_ZN17wxFontPickerEventD0Ev
_ZN17wxFontPickerEventD1Ev
_ZN17wxFontPickerEventD2Ev
_ZN17wxFontPickerEventD5Ev
_ZN17wxForceLinkm_listC1Ev
_ZN17wxForceLinkm_listC2Ev
_ZN17wxForceLinkm_listC5Ev
_ZN17wxFrameXmlHandler12ms_classInfoE
_ZN17wxFrameXmlHandler14wxCreateObjectEv
_ZN17wxFrameXmlHandler16DoCreateResourceEv
_ZN17wxFrameXmlHandler9CanHandleEP9wxXmlNode
_ZN17wxFrameXmlHandlerC1Ev
_ZN17wxFrameXmlHandlerC2Ev
_ZN17wxFrameXmlHandlerD0Ev
_ZN17wxFrameXmlHandlerD1Ev
_ZN17wxFrameXmlHandlerD2Ev
_ZN17wxFrameXmlHandlerD5Ev
_ZN17wxGaugeXmlHandler12ms_classInfoE
_ZN17wxGaugeXmlHandler14wxCreateObjectEv
_ZN17wxGaugeXmlHandler16DoCreateResourceEv
_ZN17wxGaugeXmlHandler9CanHandleEP9wxXmlNode
_ZN17wxGaugeXmlHandlerC1Ev
_ZN17wxGaugeXmlHandlerC2Ev
_ZN17wxGaugeXmlHandlerD0Ev
_ZN17wxGaugeXmlHandlerD1Ev
_ZN17wxGaugeXmlHandlerD2Ev
_ZN17wxGaugeXmlHandlerD5Ev
_ZN17wxGenericListCtrl10DeleteItemEl
_ZN17wxGenericListCtrl10InsertItemEli
_ZN17wxGenericListCtrl10InsertItemElRK8wxString
_ZN17wxGenericListCtrl10InsertItemElRK8wxStringi
_ZN17wxGenericListCtrl10InsertItemER10wxListItem
_ZN17wxGenericListCtrl10ScrollListEii
_ZN17wxGenericListCtrl11DoPopupMenuEP6wxMenuii
_ZN17wxGenericListCtrl11RefreshItemEl
_ZN17wxGenericListCtrl11SetItemDataEll
_ZN17wxGenericListCtrl11SetItemFontElRK6wxFont
_ZN17wxGenericListCtrl11SetItemTextElRK8wxString
_ZN17wxGenericListCtrl12DeleteColumnEi
_ZN17wxGenericListCtrl12InsertColumnElR10wxListItem
_ZN17wxGenericListCtrl12InsertColumnElRK8wxStringii
_ZN17wxGenericListCtrl12ms_classInfoE
_ZN17wxGenericListCtrl12RefreshItemsEll
_ZN17wxGenericListCtrl12SetImageListEP11wxImageListi
_ZN17wxGenericListCtrl12SetItemCountEl
_ZN17wxGenericListCtrl12SetItemImageElii
_ZN17wxGenericListCtrl12SetItemStateElll
_ZN17wxGenericListCtrl12SetScrollPosEiib
_ZN17wxGenericListCtrl13EnsureVisibleEl
_ZN17wxGenericListCtrl13SetTextColourERK8wxColour
_ZN17wxGenericListCtrl13sm_eventTableE
_ZN17wxGenericListCtrl14DeleteAllItemsEv
_ZN17wxGenericListCtrl14OnInternalIdleEv
_ZN17wxGenericListCtrl14SetColumnWidthEii
_ZN17wxGenericListCtrl14SetItemPtrDataElm
_ZN17wxGenericListCtrl14SetItemSpacingEib
_ZN17wxGenericListCtrl14SetSingleStyleElb
_ZN17wxGenericListCtrl14wxCreateObjectEv
_ZN17wxGenericListCtrl15AssignImageListEP11wxImageListi
_ZN17wxGenericListCtrl15SetItemPositionElRK7wxPoint
_ZN17wxGenericListCtrl16DeleteAllColumnsEv
_ZN17wxGenericListCtrl16ResizeReportViewEb
_ZN17wxGenericListCtrl17SetItemTextColourElRK8wxColour
_ZN17wxGenericListCtrl17sm_eventHashTableE
_ZN17wxGenericListCtrl18CreateHeaderWindowEv
_ZN17wxGenericListCtrl18SetItemColumnImageElli
_ZN17wxGenericListCtrl18SetWindowStyleFlagEl
_ZN17wxGenericListCtrl19SetBackgroundColourERK8wxColour
_ZN17wxGenericListCtrl19SetForegroundColourERK8wxColour
_ZN17wxGenericListCtrl20sm_eventTableEntriesE
_ZN17wxGenericListCtrl23SetItemBackgroundColourElRK8wxColour
_ZN17wxGenericListCtrl25GetClassDefaultAttributesE15wxWindowVariant
_ZN17wxGenericListCtrl27CalculateAndSetHeaderHeightEv
_ZN17wxGenericListCtrl4ThawEv
_ZN17wxGenericListCtrl6CreateEP8wxWindowiRK7wxPointRK6wxSizelRK11wxValidatorRK8wxString
_ZN17wxGenericListCtrl6FreezeEv
_ZN17wxGenericListCtrl6OnSizeER11wxSizeEvent
_ZN17wxGenericListCtrl6UpdateEv
_ZN17wxGenericListCtrl7ArrangeEi
_ZN17wxGenericListCtrl7RefreshEbPK6wxRect
_ZN17wxGenericListCtrl7SetFontERK6wxFont
_ZN17wxGenericListCtrl7SetItemEliRK8wxStringi
_ZN17wxGenericListCtrl7SetItemER10wxListItem
_ZN17wxGenericListCtrl8ClearAllEv
_ZN17wxGenericListCtrl8FindItemElm
_ZN17wxGenericListCtrl8FindItemElRK7wxPointi
_ZN17wxGenericListCtrl8FindItemElRK8wxStringb
_ZN17wxGenericListCtrl8SetFocusEv
_ZN17wxGenericListCtrl9EditLabelElP11wxClassInfo
_ZN17wxGenericListCtrl9SetColumnEiR10wxListItem
_ZN17wxGenericListCtrl9SetCursorERK8wxCursor
_ZN17wxGenericListCtrl9SortItemsEPFilllEl
_ZN17wxGenericListCtrlC1EP8wxWindowiRK7wxPointRK6wxSizelRK11wxValidatorRK8wxString
_ZN17wxGenericListCtrlC1Ev
_ZN17wxGenericListCtrlC2EP8wxWindowiRK7wxPointRK6wxSizelRK11wxValidatorRK8wxString
_ZN17wxGenericListCtrlC2Ev
_ZN17wxGenericListCtrlC5EP8wxWindowiRK7wxPointRK6wxSizelRK11wxValidatorRK8wxString
_ZN17wxGenericListCtrlD0Ev
_ZN17wxGenericListCtrlD1Ev
_ZN17wxGenericListCtrlD2Ev
_ZN17wxGenericTreeCtrl10DrawBorderERK12wxTreeItemId
_ZN17wxGenericTreeCtrl10OnSetFocusER12wxFocusEvent
_ZN17wxGenericTreeCtrl10PaintLevelEP17wxGenericTreeItemR4wxDCiRi
_ZN17wxGenericTreeCtrl10SelectItemERK12wxTreeItemIdb
_ZN17wxGenericTreeCtrl11OnKillFocusER12wxFocusEvent
_ZN17wxGenericTreeCtrl11RefreshLineEP17wxGenericTreeItem
_ZN17wxGenericTreeCtrl11SetItemBoldERK12wxTreeItemIdb
_ZN17wxGenericTreeCtrl11SetItemDataERK12wxTreeItemIdP14wxTreeItemData
_ZN17wxGenericTreeCtrl11SetItemFontERK12wxTreeItemIdRK6wxFont
_ZN17wxGenericTreeCtrl11SetItemTextERK12wxTreeItemIdRK8wxString
_ZN17wxGenericTreeCtrl11UnselectAllEv
_ZN17wxGenericTreeCtrl12DoInsertItemERK12wxTreeItemIdmRK8wxStringiiP14wxTreeItemData
_ZN17wxGenericTreeCtrl12DoSelectItemERK12wxTreeItemIdbb
_ZN17wxGenericTreeCtrl12EndEditLabelERK12wxTreeItemIdb
_ZN17wxGenericTreeCtrl12ms_classInfoE
_ZN17wxGenericTreeCtrl12OnGetToolTipER11wxTreeEvent
_ZN17wxGenericTreeCtrl12SetImageListEP11wxImageList
_ZN17wxGenericTreeCtrl12SetItemImageERK12wxTreeItemIdi14wxTreeItemIcon
_ZN17wxGenericTreeCtrl12SortChildrenERK12wxTreeItemId
_ZN17wxGenericTreeCtrl13CalculateSizeEP17wxGenericTreeItemR4wxDC
_ZN17wxGenericTreeCtrl13DoInsertAfterERK12wxTreeItemIdS2_RK8wxStringiiP14wxTreeItemData
_ZN17wxGenericTreeCtrl13EnsureVisibleERK12wxTreeItemId
_ZN17wxGenericTreeCtrl13OnRenameTimerEv
_ZN17wxGenericTreeCtrl13sm_eventTableE
_ZN17wxGenericTreeCtrl14CalculateLevelEP17wxGenericTreeItemR4wxDCiRi
_ZN17wxGenericTreeCtrl14DeleteAllItemsEv
_ZN17wxGenericTreeCtrl14DeleteChildrenERK12wxTreeItemId
_ZN17wxGenericTreeCtrl14DrawDropEffectEP17wxGenericTreeItem
_ZN17wxGenericTreeCtrl14OnInternalIdleEv
_ZN17wxGenericTreeCtrl14OnRenameAcceptEP17wxGenericTreeItemRK8wxString
_ZN17wxGenericTreeCtrl14RefreshSubtreeEP17wxGenericTreeItem
_ZN17wxGenericTreeCtrl14SetWindowStyleEl
_ZN17wxGenericTreeCtrl14wxCreateObjectEv
_ZN17wxGenericTreeCtrl15ChildrenClosingEP17wxGenericTreeItem
_ZN17wxGenericTreeCtrl15RefreshSelectedEv
_ZN17wxGenericTreeCtrl15SelectItemRangeEP17wxGenericTreeItemS1_
_ZN17wxGenericTreeCtrl15SendDeleteEventEP17wxGenericTreeItem
_ZN17wxGenericTreeCtrl15TagNextChildrenEP17wxGenericTreeItemS1_b
_ZN17wxGenericTreeCtrl16CollapseAndResetERK12wxTreeItemId
_ZN17wxGenericTreeCtrl16DoSetVirtualSizeEii
_ZN17wxGenericTreeCtrl16ResetTextControlEv
_ZN17wxGenericTreeCtrl17DoDirtyProcessingEv
_ZN17wxGenericTreeCtrl17OnRenameCancelledEP17wxGenericTreeItem
_ZN17wxGenericTreeCtrl17SetItemTextColourERK12wxTreeItemIdRK8wxColour
_ZN17wxGenericTreeCtrl17SetStateImageListEP11wxImageList
_ZN17wxGenericTreeCtrl17sm_eventHashTableE
_ZN17wxGenericTreeCtrl18AdjustMyScrollbarsEv
_ZN17wxGenericTreeCtrl18CalculatePositionsEv
_ZN17wxGenericTreeCtrl18SetItemHasChildrenERK12wxTreeItemIdb
_ZN17wxGenericTreeCtrl19CalculateLineHeightEv
_ZN17wxGenericTreeCtrl19SetBackgroundColourERK8wxColour
_ZN17wxGenericTreeCtrl19SetButtonsImageListEP11wxImageList
_ZN17wxGenericTreeCtrl19SetForegroundColourERK8wxColour
_ZN17wxGenericTreeCtrl19UnselectAllChildrenEP17wxGenericTreeItem
_ZN17wxGenericTreeCtrl20RefreshSelectedUnderEP17wxGenericTreeItem
_ZN17wxGenericTreeCtrl20SetItemDropHighlightERK12wxTreeItemIdb
_ZN17wxGenericTreeCtrl20sm_eventTableEntriesE
_ZN17wxGenericTreeCtrl22AssignButtonsImageListEP11wxImageList
_ZN17wxGenericTreeCtrl23SetItemBackgroundColourERK12wxTreeItemIdRK8wxColour
_ZN17wxGenericTreeCtrl23TagAllChildrenUntilLastEP17wxGenericTreeItemS1_b
_ZN17wxGenericTreeCtrl25GetClassDefaultAttributesE15wxWindowVariant
_ZN17wxGenericTreeCtrl4InitEv
_ZN17wxGenericTreeCtrl4ThawEv
_ZN17wxGenericTreeCtrl6CreateEP8wxWindowiRK7wxPointRK6wxSizelRK11wxValidatorRK8wxString
_ZN17wxGenericTreeCtrl6DeleteERK12wxTreeItemId
_ZN17wxGenericTreeCtrl6ExpandERK12wxTreeItemId
_ZN17wxGenericTreeCtrl6FreezeEv
_ZN17wxGenericTreeCtrl6LayoutEv
_ZN17wxGenericTreeCtrl6OnCharER10wxKeyEvent
_ZN17wxGenericTreeCtrl6OnSizeER11wxSizeEvent
_ZN17wxGenericTreeCtrl6ToggleERK12wxTreeItemId
_ZN17wxGenericTreeCtrl7AddRootERK8wxStringiiP14wxTreeItemData
_ZN17wxGenericTreeCtrl7OnMouseER12wxMouseEvent
_ZN17wxGenericTreeCtrl7OnPaintER12wxPaintEvent
_ZN17wxGenericTreeCtrl7RefreshEbPK6wxRect
_ZN17wxGenericTreeCtrl7SetFontERK6wxFont
_ZN17wxGenericTreeCtrl8CollapseERK12wxTreeItemId
_ZN17wxGenericTreeCtrl8DrawLineERK12wxTreeItemIdb
_ZN17wxGenericTreeCtrl8ScrollToERK12wxTreeItemId
_ZN17wxGenericTreeCtrl8UnselectEv
_ZN17wxGenericTreeCtrl9EditLabelERK12wxTreeItemIdP11wxClassInfo
_ZN17wxGenericTreeCtrl9PaintItemEP17wxGenericTreeItemR4wxDC
_ZN17wxGenericTreeCtrl9PrepareDCER4wxDC
_ZN17wxGenericTreeCtrl9SetIndentEj
_ZN17wxGenericTreeCtrlC1EP8wxWindowiRK7wxPointRK6wxSizelRK11wxValidatorRK8wxString
_ZN17wxGenericTreeCtrlC1Ev
_ZN17wxGenericTreeCtrlC2EP8wxWindowiRK7wxPointRK6wxSizelRK11wxValidatorRK8wxString
_ZN17wxGenericTreeCtrlC2Ev
_ZN17wxGenericTreeCtrlC5EP8wxWindowiRK7wxPointRK6wxSizelRK11wxValidatorRK8wxString
_ZN17wxGenericTreeCtrlC5Ev
_ZN17wxGenericTreeCtrlD0Ev
_ZN17wxGenericTreeCtrlD1Ev
_ZN17wxGenericTreeCtrlD2Ev
_ZN17wxGenericTreeItem10SetHasPlusEb
_ZN17wxGenericTreeItem10SetHilightEb
_ZN17wxGenericTreeItem11GetChildrenEv
_ZN17wxGenericTreeItem13CalculateSizeEP17wxGenericTreeCtrl
_ZN17wxGenericTreeItem13CalculateSizeEP17wxGenericTreeCtrlR4wxDC
_ZN17wxGenericTreeItem13ResetTextSizeEv
_ZN17wxGenericTreeItem14DeleteChildrenEP17wxGenericTreeCtrl
_ZN17wxGenericTreeItem15DoCalculateSizeEP17wxGenericTreeCtrlR4wxDCb
_ZN17wxGenericTreeItem18RecursiveResetSizeEv
_ZN17wxGenericTreeItem22RecursiveResetTextSizeEv
_ZN17wxGenericTreeItem4AttrEv
_ZN17wxGenericTreeItem4SetXEi
_ZN17wxGenericTreeItem4SetYEi
_ZN17wxGenericTreeItem6ExpandEv
_ZN17wxGenericTreeItem6InsertEPS_m
_ZN17wxGenericTreeItem7GetSizeERiS0_PK17wxGenericTreeCtrl
_ZN17wxGenericTreeItem7HitTestERK7wxPointPK17wxGenericTreeCtrlRii
_ZN17wxGenericTreeItem7SetBoldEb
_ZN17wxGenericTreeItem7SetDataEP14wxTreeItemData
_ZN17wxGenericTreeItem7SetTextERK8wxString
_ZN17wxGenericTreeItem8CollapseEv
_ZN17wxGenericTreeItem8SetImageEi14wxTreeItemIcon
_ZN17wxGenericTreeItemC1EPS_RK8wxStringiiP14wxTreeItemData
_ZN17wxGenericTreeItemC2EPS_RK8wxStringiiP14wxTreeItemData
_ZN17wxGenericTreeItemD1Ev
_ZN17wxGenericTreeItemD2Ev
_ZN17wxGridStringArray3AddERK13wxArrayStringm
_ZN17wxGridStringArray5AllocEm
_ZN17wxGridStringArray5ClearEv
_ZN17wxGridStringArray5EmptyEv
_ZN17wxGridStringArray6DoCopyERKS_
_ZN17wxGridStringArray6InsertERK13wxArrayStringmm
_ZN17wxGridStringArray7DoEmptyEv
_ZN17wxGridStringArray8RemoveAtEmm
_ZN17wxGridStringArrayaSERKS_
_ZN17wxGridStringArrayC1ERKS_
_ZN17wxGridStringArrayC1Ev
_ZN17wxGridStringArrayC2ERKS_
_ZN17wxGridStringArrayC2Ev
_ZN17wxGridStringArrayC5Ev
_ZN17wxGridStringArrayD1Ev
_ZN17wxGridStringArrayD2Ev
_ZN17wxGridStringTable10AppendColsEm
_ZN17wxGridStringTable10AppendRowsEm
_ZN17wxGridStringTable10DeleteColsEmm
_ZN17wxGridStringTable10DeleteRowsEmm
_ZN17wxGridStringTable10InsertColsEmm
_ZN17wxGridStringTable10InsertRowsEmm
_ZN17wxGridStringTable11IsEmptyCellEii
_ZN17wxGridStringTable12ms_classInfoE
_ZN17wxGridStringTable13GetNumberColsEv
_ZN17wxGridStringTable13GetNumberRowsEv
_ZN17wxGridStringTable14wxCreateObjectEv
_ZN17wxGridStringTable16GetColLabelValueEi
_ZN17wxGridStringTable16GetRowLabelValueEi
_ZN17wxGridStringTable16SetColLabelValueEiRK8wxString
_ZN17wxGridStringTable16SetRowLabelValueEiRK8wxString
_ZN17wxGridStringTable5ClearEv
_ZN17wxGridStringTable8GetValueEii
_ZN17wxGridStringTable8SetValueEiiRK8wxString
_ZN17wxGridStringTableC1Eii
_ZN17wxGridStringTableC1Ev
_ZN17wxGridStringTableC2Eii
_ZN17wxGridStringTableC2Ev
_ZN17wxGridStringTableD0Ev
_ZN17wxGridStringTableD1Ev
_ZN17wxGridStringTableD2Ev
_ZN17wxGTKColourSchemeC1Ev
_ZN17wxGTKColourSchemeC2Ev
_ZN17wxGTKColourSchemeC5Ev
_ZN17wxGTKColourSchemeD0Ev
_ZN17wxGTKColourSchemeD1Ev
_ZN17wxGTKColourSchemeD2Ev
_ZN17wxGTKColourSchemeD5Ev
_ZN17wxGTKInputHandler11HandleMouseEP15wxInputConsumerRK12wxMouseEvent
_ZN17wxGTKInputHandler15HandleMouseMoveEP15wxInputConsumerRK12wxMouseEvent
_ZN17wxGTKInputHandler9HandleKeyEP15wxInputConsumerRK10wxKeyEventb
_ZN17wxGTKInputHandlerC1Ev
_ZN17wxGTKInputHandlerC2Ev
_ZN17wxGTKInputHandlerC5Ev
_ZN17wxGTKInputHandlerD0Ev
_ZN17wxGTKInputHandlerD1Ev
_ZN17wxGTKInputHandlerD2Ev
_ZN17wxGTKInputHandlerD5Ev
_ZN17_wxHashTableBase210AllocTableEm
_ZN17_wxHashTableBase211DeleteNodesEmPP21_wxHashTable_NodeBasePFvS1_E
_ZN17_wxHashTableBase212GetFirstNodeEmPP21_wxHashTable_NodeBase
_ZN17_wxHashTableBase212GetNextPrimeEm
_ZN17_wxHashTableBase213CopyHashTableEPP21_wxHashTable_NodeBasemPS_S2_PFmS3_S1_EPFS1_S1_E
_ZN17_wxHashTableBase216DummyProcessNodeEP21_wxHashTable_NodeBase
_ZN17_wxHashTableBase216GetPreviousPrimeEm
_ZN17_wxHashTableBase29FreeTableEPv
_ZN17_wxHashTableBase29ms_primesE
_ZN17wxHtmlFilterImage12ms_classInfoE
_ZN17wxHtmlFilterImage14wxCreateObjectEv
_ZN17wxHtmlFilterImageC1Ev
_ZN17wxHtmlFilterImageC2Ev
_ZN17wxHtmlFilterImageC5Ev
_ZN17wxHtmlFilterImageD0Ev
_ZN17wxHtmlFilterImageD1Ev
_ZN17wxHtmlFilterImageD2Ev
_ZN17wxHtmlFilterImageD5Ev
_ZN17wxHTML_Handler_BR16GetSupportedTagsEv
_ZN17wxHTML_Handler_BR9HandleTagERK9wxHtmlTag
_ZN17wxHTML_Handler_BRC1Ev
_ZN17wxHTML_Handler_BRC2Ev
_ZN17wxHTML_Handler_BRC5Ev
_ZN17wxHTML_Handler_BRD0Ev
_ZN17wxHTML_Handler_BRD1Ev
_ZN17wxHTML_Handler_BRD2Ev
_ZN17wxHTML_Handler_BRD5Ev
_ZN17wxHTML_Handler_HR16GetSupportedTagsEv
_ZN17wxHTML_Handler_HR9HandleTagERK9wxHtmlTag
_ZN17wxHTML_Handler_HRC1Ev
_ZN17wxHTML_Handler_HRC2Ev
_ZN17wxHTML_Handler_HRC5Ev
_ZN17wxHTML_Handler_HRD0Ev
_ZN17wxHTML_Handler_HRD1Ev
_ZN17wxHTML_Handler_HRD2Ev
_ZN17wxHTML_Handler_HRD5Ev
_ZN17wxHTML_Handler_Hx16GetSupportedTagsEv
_ZN17wxHTML_Handler_Hx9HandleTagERK9wxHtmlTag
_ZN17wxHTML_Handler_HxC1Ev
_ZN17wxHTML_Handler_HxC2Ev
_ZN17wxHTML_Handler_HxC5Ev
_ZN17wxHTML_Handler_HxD0Ev
_ZN17wxHTML_Handler_HxD1Ev
_ZN17wxHTML_Handler_HxD2Ev
_ZN17wxHTML_Handler_HxD5Ev
_ZN17wxHtmlHistoryItem6SetPosEi
_ZN17wxHtmlHistoryItemC1ERK8wxStringS2_
_ZN17wxHtmlHistoryItemC1ERKS_
_ZN17wxHtmlHistoryItemC2ERK8wxStringS2_
_ZN17wxHtmlHistoryItemC2ERKS_
_ZN17wxHtmlHistoryItemC5ERK8wxStringS2_
_ZN17wxHtmlHistoryItemC5ERKS_
_ZN17wxHtmlHistoryItemD1Ev
_ZN17wxHtmlHistoryItemD2Ev
_ZN17wxHtmlHistoryItemD5Ev
_ZN17wxHTML_ModuleList12ms_classInfoE
_ZN17wxHTML_ModuleList14wxCreateObjectEv
_ZN17wxHTML_ModuleList17FillHandlersTableEP15wxHtmlWinParser
_ZN17wxHTML_ModuleListC1Ev
_ZN17wxHTML_ModuleListC2Ev
_ZN17wxHTML_ModuleListC5Ev
_ZN17wxHTML_ModuleListD0Ev
_ZN17wxHTML_ModuleListD1Ev
_ZN17wxHTML_ModuleListD2Ev
_ZN17wxHTML_ModuleListD5Ev
_ZN17wxHtmlParserStateC1Ev
_ZN17wxHtmlParserStateC2Ev
_ZN17wxHtmlParserStateC5Ev
_ZN17wxHtmlParserStateD1Ev
_ZN17wxHtmlParserStateD2Ev
_ZN17wxHtmlParserStateD5Ev
_ZN17wxIconVariantData12ms_classInfoE
_ZN17wxIconVariantData17GetValueClassInfoEv
_ZN17wxIconVariantData8GetValueEv
_ZN17wxIconVariantDataC1ERK6wxIcon
_ZN17wxIconVariantDataC2ERK6wxIcon
_ZN17wxIconVariantDataC5ERK6wxIcon
_ZN17wxIconVariantDataD0Ev
_ZN17wxIconVariantDataD1Ev
_ZN17wxIconVariantDataD2Ev
_ZN17wxIconVariantDataD5Ev
_ZN17wxInitDialogEvent12ms_classInfoE
_ZN17wxInitDialogEvent14wxCreateObjectEv
_ZN17wxInitDialogEventC1Ei
_ZN17wxInitDialogEventC1ERKS_
_ZN17wxInitDialogEventC2Ei
_ZN17wxInitDialogEventC2ERKS_
_ZN17wxInitDialogEventC5Ei
_ZN17wxInitDialogEventC5ERKS_
_ZN17wxInitDialogEventD0Ev
_ZN17wxInitDialogEventD1Ev
_ZN17wxInitDialogEventD2Ev
_ZN17wxInitDialogEventD5Ev
_ZN17wxLayoutAlgorithm11LayoutFrameEP7wxFrameP8wxWindow
_ZN17wxLayoutAlgorithm12LayoutWindowEP8wxWindowS1_
_ZN17wxLayoutAlgorithm14LayoutMDIFrameEP16wxMDIParentFrameP6wxRect
_ZN17wxLayoutAlgorithmC1Ev
_ZN17wxLayoutAlgorithmC2Ev
_ZN17wxLayoutAlgorithmC5Ev
_ZN17wxLayoutAlgorithmD0Ev
_ZN17wxLayoutAlgorithmD1Ev
_ZN17wxLayoutAlgorithmD2Ev
_ZN17wxLayoutAlgorithmD5Ev
_ZN17wxListRenameTimer6NotifyEv
_ZN17wxListRenameTimerC1EP16wxListMainWindow
_ZN17wxListRenameTimerC2EP16wxListMainWindow
_ZN17wxListRenameTimerD0Ev
_ZN17wxListRenameTimerD1Ev
_ZN17wxListRenameTimerD2Ev
_ZN17wxListRenameTimerD5Ev
_ZN17wxMBConvUTF16Base9GetLengthEPKcm
_ZN17wxMBConvUTF16BaseC1Ev
_ZN17wxMBConvUTF16BaseC2Ev
_ZN17wxMBConvUTF16BaseC5Ev
_ZN17wxMBConvUTF16BaseD0Ev
_ZN17wxMBConvUTF16BaseD1Ev
_ZN17wxMBConvUTF16BaseD2Ev
_ZN17wxMBConvUTF16BaseD5Ev
_ZN17wxMBConvUTF32Base9GetLengthEPKcm
_ZN17wxMBConvUTF32BaseC1Ev
_ZN17wxMBConvUTF32BaseC2Ev
_ZN17wxMBConvUTF32BaseC5Ev
_ZN17wxMBConvUTF32BaseD0Ev
_ZN17wxMBConvUTF32BaseD1Ev
_ZN17wxMBConvUTF32BaseD2Ev
_ZN17wxMBConvUTF32BaseD5Ev
_ZN17wxMDIClientWindow12ms_classInfoE
_ZN17wxMDIClientWindow14wxCreateObjectEv
_ZN17wxMDIClientWindowC1EP23wxGenericMDIParentFramel
_ZN17wxMDIClientWindowC1Ev
_ZN17wxMDIClientWindowC2EP23wxGenericMDIParentFramel
_ZN17wxMDIClientWindowC2Ev
_ZN17wxMDIClientWindowC5EP23wxGenericMDIParentFramel
_ZN17wxMDIClientWindowC5Ev
_ZN17wxMDIClientWindowD0Ev
_ZN17wxMDIClientWindowD1Ev
_ZN17wxMDIClientWindowD2Ev
_ZN17wxMDIClientWindowD5Ev
_ZN17wxMemoryFSHandler7AddFileERK8wxStringRK7wxImagel
_ZN17wxMemoryFSHandler7AddFileERK8wxStringRK8wxBitmapl
_ZN17wxMonoArtProvider12CreateBitmapERK8wxStringS2_RK6wxSize
_ZN17wxMonoArtProviderC1Ev
_ZN17wxMonoArtProviderC2Ev
_ZN17wxMonoArtProviderC5Ev
_ZN17wxMonoArtProviderD0Ev
_ZN17wxMonoArtProviderD1Ev
_ZN17wxMonoArtProviderD2Ev
_ZN17wxMonoArtProviderD5Ev
_ZN17wxNotebookSpinBtn13sm_eventTableE
_ZN17wxNotebookSpinBtn17sm_eventHashTableE
_ZN17wxNotebookSpinBtn20sm_eventTableEntriesE
_ZN17wxNotebookSpinBtn6OnSpinER11wxSpinEvent
_ZN17wxNotebookSpinBtnC1EP10wxNotebook
_ZN17wxNotebookSpinBtnC2EP10wxNotebook
_ZN17wxNotebookSpinBtnC5EP10wxNotebook
_ZN17wxNotebookSpinBtnD0Ev
_ZN17wxNotebookSpinBtnD1Ev
_ZN17wxNotebookSpinBtnD2Ev
_ZN17wxNotebookSpinBtnD5Ev
_ZN17wxOutputFTPStreamC1EP5wxFTPP12wxSocketBase
_ZN17wxOutputFTPStreamC2EP5wxFTPP12wxSocketBase
_ZN17wxOutputFTPStreamC5EP5wxFTPP12wxSocketBase
_ZN17wxOutputFTPStreamD0Ev
_ZN17wxOutputFTPStreamD1Ev
_ZN17wxOutputFTPStreamD2Ev
_ZN17wxOutputFTPStreamD5Ev
_ZN17wxPageSetupDialog12ms_classInfoE
_ZN17wxPageSetupDialog16GetPageSetupDataEv
_ZN17wxPageSetupDialog22GetPageSetupDialogDataEv
_ZN17wxPageSetupDialog9ShowModalEv
_ZN17wxPageSetupDialogC1EP8wxWindowP21wxPageSetupDialogData
_ZN17wxPageSetupDialogC2EP8wxWindowP21wxPageSetupDialogData
_ZN17wxPageSetupDialogD0Ev
_ZN17wxPageSetupDialogD1Ev
_ZN17wxPageSetupDialogD2Ev
_ZN17wxPanelXmlHandler12ms_classInfoE
_ZN17wxPanelXmlHandler14wxCreateObjectEv
_ZN17wxPanelXmlHandler16DoCreateResourceEv
_ZN17wxPanelXmlHandler9CanHandleEP9wxXmlNode
_ZN17wxPanelXmlHandlerC1Ev
_ZN17wxPanelXmlHandlerC2Ev
_ZN17wxPanelXmlHandlerD0Ev
_ZN17wxPanelXmlHandlerD1Ev
_ZN17wxPanelXmlHandlerD2Ev
_ZN17wxPanelXmlHandlerD5Ev
_ZN17wxPipeInputStreamC1Ei
_ZN17wxPipeInputStreamC2Ei
_ZN17wxPipeInputStreamC5Ei
_ZN17wxPipeInputStreamD0Ev
_ZN17wxPipeInputStreamD1Ev
_ZN17wxPipeInputStreamD2Ev
_ZN17wxPipeInputStreamD5Ev
_ZN17wxPluralFormsNode11releaseNodeEm
_ZN17wxPluralFormsNode7setNodeEmPS_
_ZN17wxPluralFormsNodeC1ERK18wxPluralFormsToken
_ZN17wxPluralFormsNodeC2ERK18wxPluralFormsToken
_ZN17wxPluralFormsNodeC5ERK18wxPluralFormsToken
_ZN17wxPluralFormsNodeD1Ev
_ZN17wxPluralFormsNodeD2Ev
_ZN17wxPluralFormsNodeD5Ev
_ZN17wxPopupMenuWindow11OnMouseMoveER12wxMouseEvent
_ZN17wxPopupMenuWindow11OpenSubmenuEP10wxMenuItemNS_11InputMethodE
_ZN17wxPopupMenuWindow11RefreshItemEP10wxMenuItem
_ZN17wxPopupMenuWindow11SelectFirstEv
_ZN17wxPopupMenuWindow12ActivateItemEP10wxMenuItemNS_11InputMethodE
_ZN17wxPopupMenuWindow12OnMouseLeaveER12wxMouseEvent
_ZN17wxPopupMenuWindow12ResetCurrentEv
_ZN17wxPopupMenuWindow13ChangeCurrentEN14wxMenuItemList22compatibility_iteratorE
_ZN17wxPopupMenuWindow13HandleDismissEb
_ZN17wxPopupMenuWindow13sm_eventTableE
_ZN17wxPopupMenuWindow14ProcessKeyDownEi
_ZN17wxPopupMenuWindow14SetCurrentItemEN14wxMenuItemList22compatibility_iteratorE
_ZN17wxPopupMenuWindow15ProcessLeftDownER12wxMouseEvent
_ZN17wxPopupMenuWindow16DismissAndNotifyEv
_ZN17wxPopupMenuWindow16OnSubmenuDismissEb
_ZN17wxPopupMenuWindow16ProcessMouseMoveERK7wxPoint
_ZN17wxPopupMenuWindow17sm_eventHashTableE
_ZN17wxPopupMenuWindow20sm_eventTableEntriesE
_ZN17wxPopupMenuWindow5PopupEP8wxWindow
_ZN17wxPopupMenuWindow6DoDrawEP17wxControlRenderer
_ZN17wxPopupMenuWindow7CanOpenEP10wxMenuItem
_ZN17wxPopupMenuWindow7DismissEv
_ZN17wxPopupMenuWindow8OnLeftUpER12wxMouseEvent
_ZN17wxPopupMenuWindow9ClickItemEP10wxMenuItem
_ZN17wxPopupMenuWindow9OnDismissEv
_ZN17wxPopupMenuWindow9OnKeyDownER10wxKeyEvent
_ZN17wxPopupMenuWindowC1EP8wxWindowP6wxMenu
_ZN17wxPopupMenuWindowC2EP8wxWindowP6wxMenu
_ZN17wxPopupMenuWindowD0Ev
_ZN17wxPopupMenuWindowD1Ev
_ZN17wxPopupMenuWindowD2Ev
_ZN17wxPopupWindowBase6CreateEP8wxWindowi
_ZN17wxPopupWindowBase8PositionERK7wxPointRK6wxSize
_ZN17wxPopupWindowBaseC1Ev
_ZN17wxPopupWindowBaseC2Ev
_ZN17wxPopupWindowBaseC5Ev
_ZN17wxPopupWindowBaseD0Ev
_ZN17wxPopupWindowBaseD1Ev
_ZN17wxPopupWindowBaseD2Ev
_ZN17wxPrintDialogBase12ms_classInfoE
_ZN17wxPrintDialogBaseC1EP8wxWindowiRK8wxStringRK7wxPointRK6wxSizel
_ZN17wxPrintDialogBaseC2EP8wxWindowiRK8wxStringRK7wxPointRK6wxSizel
_ZN17wxPrintDialogBaseD0Ev
_ZN17wxPrintDialogBaseD1Ev
_ZN17wxPrintDialogBaseD2Ev
_ZN17wxPrintDialogBaseD5Ev
_ZN17wxPrintDialogData10SetMaxPageEi
_ZN17wxPrintDialogData10SetMinPageEi
_ZN17wxPrintDialogData11SetAllPagesEb
_ZN17wxPrintDialogData11SetFromPageEi
_ZN17wxPrintDialogData11SetNoCopiesEi
_ZN17wxPrintDialogData12GetPrintDataEv
_ZN17wxPrintDialogData12ms_classInfoE
_ZN17wxPrintDialogData14SetPrintToFileEb
_ZN17wxPrintDialogData14wxCreateObjectEv
_ZN17wxPrintDialogData9SetToPageEi
_ZN17wxPrintDialogDataaSERK11wxPrintData
_ZN17wxPrintDialogDataaSERKS_
_ZN17wxPrintDialogDataC1ERK11wxPrintData
_ZN17wxPrintDialogDataC1ERKS_
_ZN17wxPrintDialogDataC1Ev
_ZN17wxPrintDialogDataC2ERK11wxPrintData
_ZN17wxPrintDialogDataC2ERKS_
_ZN17wxPrintDialogDataC2Ev
_ZN17wxPrintDialogDataD0Ev
_ZN17wxPrintDialogDataD1Ev
_ZN17wxPrintDialogDataD2Ev
_ZN17wxRendererGeneric12DoGetGenericEv
_ZN17wxRendererGeneric12DrawCheckBoxEP8wxWindowR4wxDCRK6wxRecti
_ZN17wxRendererGeneric13DrawDropArrowEP8wxWindowR4wxDCRK6wxRecti
_ZN17wxRendererGeneric14DrawPushButtonEP8wxWindowR4wxDCRK6wxRecti
_ZN17wxRendererGeneric14DrawShadedRectER4wxDCP6wxRectRK5wxPenS6_
_ZN17wxRendererGeneric16DrawHeaderButtonEP8wxWindowR4wxDCRK6wxRecti20wxHeaderSortIconTypeP20wxHeaderButtonParams
_ZN17wxRendererGeneric16DrawSplitterSashEP8wxWindowR4wxDCRK6wxSizei13wxOrientationi
_ZN17wxRendererGeneric17GetSplitterParamsEPK8wxWindow
_ZN17wxRendererGeneric18DrawSplitterBorderEP8wxWindowR4wxDCRK6wxRecti
_ZN17wxRendererGeneric18DrawTreeItemButtonEP8wxWindowR4wxDCRK6wxRecti
_ZN17wxRendererGeneric18sm_rendererGenericE
_ZN17wxRendererGeneric21DrawItemSelectionRectEP8wxWindowR4wxDCRK6wxRecti
_ZN17wxRendererGeneric21GetHeaderButtonHeightEP8wxWindow
_ZN17wxRendererGeneric22DrawComboBoxDropButtonEP8wxWindowR4wxDCRK6wxRecti
_ZN17wxRendererGeneric24DrawHeaderButtonContentsEP8wxWindowR4wxDCRK6wxRecti20wxHeaderSortIconTypeP20wxHeaderButtonParams
_ZN17wxRendererGeneric7CleanupEv
_ZN17wxRendererGenericC1Ev
_ZN17wxRendererGenericC2Ev
_ZN17wxRendererGenericD0Ev
_ZN17wxRendererGenericD1Ev
_ZN17wxRendererGenericD2Ev
_ZN17wxRendererGenericD5Ev
_ZN17wxRendererPtrBase5resetEP16wxRendererNative
_ZN17wxRendererPtrBase7releaseEv
_ZN17wxRendererPtrBaseC1EP16wxRendererNative
_ZN17wxRendererPtrBaseC2EP16wxRendererNative
_ZN17wxRendererPtrBaseC5EP16wxRendererNative
_ZN17wxRendererPtrBaseD1Ev
_ZN17wxRendererPtrBaseD2Ev
_ZN17wxRendererVersion12IsCompatibleERKS_
_ZN17wxRendererVersionC1Eii
_ZN17wxRendererVersionC2Eii
_ZN17wxRendererVersionC5Eii
_ZN17wxRichTextCommand10GetActionsEv
_ZN17wxRichTextCommand12ClearActionsEv
_ZN17wxRichTextCommand2DoEv
_ZN17wxRichTextCommand4UndoEv
_ZN17wxRichTextCommand9AddActionEP16wxRichTextAction
_ZN17wxRichTextCommandC1ERK8wxString
_ZN17wxRichTextCommandC1ERK8wxString19wxRichTextCommandIdP16wxRichTextBufferP14wxRichTextCtrlb
_ZN17wxRichTextCommandC2ERK8wxString
_ZN17wxRichTextCommandC2ERK8wxString19wxRichTextCommandIdP16wxRichTextBufferP14wxRichTextCtrlb
_ZN17wxRichTextCommandD0Ev
_ZN17wxRichTextCommandD1Ev
_ZN17wxRichTextCommandD2Ev
_ZN17wxScopeGuardImpl1IPDoFvPvEPhE7ExecuteEv
_ZN17wxScopeGuardImpl1IPDoFvPvEPhE9MakeGuardES2_S3_
_ZN17wxScopeGuardImpl1IPDoFvPvEPhEC1ES2_S3_
_ZN17wxScopeGuardImpl1IPDoFvPvEPhEC2ES2_S3_
_ZN17wxScopeGuardImpl1IPDoFvPvEPhEC5ES2_S3_
_ZN17wxScopeGuardImpl1IPDoFvPvEPhED1Ev
_ZN17wxScopeGuardImpl1IPDoFvPvEPhED2Ev
_ZN17wxScopeGuardImpl1IPDoFvPvEPhED5Ev
_ZN17wxSelectedIndices3AddEm
_ZN17wxSelectedIndices5AddAtEmm
_ZN17wxSelectedIndices8RemoveAtEmm
_ZN17wxSelectedIndicesC1EPFimmE
_ZN17wxSelectedIndicesC1ERKS_
_ZN17wxSelectedIndicesC2EPFimmE
_ZN17wxSelectedIndicesC2ERKS_
_ZN17wxSelectedIndicesC5EPFimmE
_ZN17wxSelectedIndicesC5ERKS_
_ZN17wxSelectedIndicesD1Ev
_ZN17wxSelectedIndicesD2Ev
_ZN17wxSelectedIndicesD5Ev
_ZN17wxSizerXmlHandler11IsSizerNodeEP9wxXmlNode
_ZN17wxSizerXmlHandler12AddSizerItemEP11wxSizerItem
_ZN17wxSizerXmlHandler12Handle_sizerEv
_ZN17wxSizerXmlHandler12ms_classInfoE
_ZN17wxSizerXmlHandler12SetGrowablesEP15wxFlexGridSizerPKcb
_ZN17wxSizerXmlHandler13Handle_spacerEv
_ZN17wxSizerXmlHandler13MakeSizerItemEv
_ZN17wxSizerXmlHandler14wxCreateObjectEv
_ZN17wxSizerXmlHandler16DoCreateResourceEv
_ZN17wxSizerXmlHandler16Handle_sizeritemEv
_ZN17wxSizerXmlHandler17Handle_wxBoxSizerEv
_ZN17wxSizerXmlHandler18Handle_wxGridSizerEv
_ZN17wxSizerXmlHandler21Handle_wxGridBagSizerEv
_ZN17wxSizerXmlHandler22Handle_wxFlexGridSizerEv
_ZN17wxSizerXmlHandler22SetSizerItemAttributesEP11wxSizerItem
_ZN17wxSizerXmlHandler23Handle_wxStaticBoxSizerEv
_ZN17wxSizerXmlHandler8GetGBPosERK8wxString
_ZN17wxSizerXmlHandler9CanHandleEP9wxXmlNode
_ZN17wxSizerXmlHandler9GetGBSpanERK8wxString
_ZN17wxSizerXmlHandlerC1Ev
_ZN17wxSizerXmlHandlerC2Ev
_ZN17wxSizerXmlHandlerD0Ev
_ZN17wxSizerXmlHandlerD1Ev
_ZN17wxSizerXmlHandlerD2Ev
_ZN17wxSizerXmlHandlerD5Ev
_ZN17wxSoundBackendOSS4PlayEP11wxSoundDatajPV21wxSoundPlaybackStatus
_ZN17wxSoundBackendOSS4StopEv
_ZN17wxSoundBackendOSS7InitDSPEiPK11wxSoundData
_ZN17wxSoundBackendOSS7OpenDSPEPK11wxSoundData
_ZN17wxSoundBackendOSSC1Ev
_ZN17wxSoundBackendOSSC2Ev
_ZN17wxSoundBackendOSSC5Ev
_ZN17wxSoundBackendOSSD0Ev
_ZN17wxSoundBackendOSSD1Ev
_ZN17wxSoundBackendOSSD2Ev
_ZN17wxSoundBackendOSSD5Ev
_ZN17wxStackWalkerBaseC1Ev
_ZN17wxStackWalkerBaseC2Ev
_ZN17wxStackWalkerBaseC5Ev
_ZN17wxStackWalkerBaseD0Ev
_ZN17wxStackWalkerBaseD1Ev
_ZN17wxStackWalkerBaseD2Ev
_ZN17wxStackWalkerBaseD5Ev
_ZN17wxStdInputHandler11HandleFocusEP15wxInputConsumerRK12wxFocusEvent
_ZN17wxStdInputHandler11HandleMouseEP15wxInputConsumerRK12wxMouseEvent
_ZN17wxStdInputHandler15HandleMouseMoveEP15wxInputConsumerRK12wxMouseEvent
_ZN17wxStdInputHandler9HandleKeyEP15wxInputConsumerRK10wxKeyEventb
_ZN17wxStdInputHandlerC1EP14wxInputHandler
_ZN17wxStdInputHandlerC2EP14wxInputHandler
_ZN17wxStdInputHandlerC5EP14wxInputHandler
_ZN17wxStdInputHandlerD0Ev
_ZN17wxStdInputHandlerD1Ev
_ZN17wxStdInputHandlerD2Ev
_ZN17wxStdInputHandlerD5Ev
_ZN17wxStringTokenizer12GetNextTokenEv
_ZN17wxStringTokenizer6ReinitERK8wxString
_ZN17wxStringTokenizer9NextTokenEv
_ZN17wxStringTokenizer9SetStringERK8wxStringS2_21wxStringTokenizerMode
_ZN17wxStringTokenizerC1ERK8wxStringS2_21wxStringTokenizerMode
_ZN17wxStringTokenizerC1Ev
_ZN17wxStringTokenizerC2ERK8wxStringS2_21wxStringTokenizerMode
_ZN17wxStringTokenizerC2Ev
_ZN17wxStringTokenizerC5Ev
_ZN17wxStringTokenizerD0Ev
_ZN17wxStringTokenizerD1Ev
_ZN17wxStringTokenizerD2Ev
_ZN17wxStringTokenizerD5Ev
_ZN17wxTarClassFactory12ms_classInfoE
_ZN17wxTarClassFactory14wxCreateObjectEv
_ZN17wxTarClassFactoryC1Ev
_ZN17wxTarClassFactoryC2Ev
_ZN17wxTarClassFactoryD0Ev
_ZN17wxTarClassFactoryD1Ev
_ZN17wxTarClassFactoryD2Ev
_ZN17wxTarClassFactoryD5Ev
_ZN17wxTarOutputStream10CloseEntryEv
_ZN17wxTarOutputStream10OnSysWriteEPKvm
_ZN17wxTarOutputStream12ModifyHeaderEv
_ZN17wxTarOutputStream12PutNextEntryEP10wxTarEntry
_ZN17wxTarOutputStream12PutNextEntryEP14wxArchiveEntry
_ZN17wxTarOutputStream12PutNextEntryERK8wxStringRK10wxDateTimel
_ZN17wxTarOutputStream12WriteHeadersER10wxTarEntry
_ZN17wxTarOutputStream13PaxHeaderPathERK8wxStringS2_
_ZN17wxTarOutputStream13SetHeaderDateERK8wxStringRK10wxDateTime
_ZN17wxTarOutputStream13SetHeaderPathERK8wxString
_ZN17wxTarOutputStream15PutNextDirEntryERK8wxStringRK10wxDateTime
_ZN17wxTarOutputStream15SetHeaderNumberEil
_ZN17wxTarOutputStream15SetHeaderStringEiRK8wxString
_ZN17wxTarOutputStream17SetExtendedHeaderERK8wxStringS2_
_ZN17wxTarOutputStream19CopyArchiveMetaDataER20wxArchiveInputStream
_ZN17wxTarOutputStream4InitE11wxTarFormat
_ZN17wxTarOutputStream4SyncEv
_ZN17wxTarOutputStream5CloseEv
_ZN17wxTarOutputStream9CopyEntryEP10wxTarEntryR16wxTarInputStream
_ZN17wxTarOutputStream9CopyEntryEP14wxArchiveEntryR20wxArchiveInputStream
_ZN17wxTarOutputStream9OnSysSeekEl10wxSeekMode
_ZN17wxTarOutputStreamC1EP14wxOutputStream11wxTarFormatR8wxMBConv
_ZN17wxTarOutputStreamC1ER14wxOutputStream11wxTarFormatR8wxMBConv
_ZN17wxTarOutputStreamC2EP14wxOutputStream11wxTarFormatR8wxMBConv
_ZN17wxTarOutputStreamC2ER14wxOutputStream11wxTarFormatR8wxMBConv
_ZN17wxTarOutputStreamD0Ev
_ZN17wxTarOutputStreamD1Ev
_ZN17wxTarOutputStreamD2Ev
_ZN17wxTaskBarIconArea11OnMenuEventER14wxCommandEvent
_ZN17wxTaskBarIconArea11SetTrayIconERK8wxBitmap
_ZN17wxTaskBarIconArea12OnMouseEventER12wxMouseEvent
_ZN17wxTaskBarIconArea12OnSizeChangeER11wxSizeEvent
_ZN17wxTaskBarIconArea13sm_eventTableE
_ZN17wxTaskBarIconArea17sm_eventHashTableE
_ZN17wxTaskBarIconArea20sm_eventTableEntriesE
_ZN17wxTaskBarIconArea21SetLegacyWMPropertiesEv
_ZN17wxTaskBarIconArea4IsOkEv
_ZN17wxTaskBarIconArea7OnPaintER12wxPaintEvent
_ZN17wxTaskBarIconAreaC1EP13wxTaskBarIconRK8wxBitmap
_ZN17wxTaskBarIconAreaC2EP13wxTaskBarIconRK8wxBitmap
_ZN17wxTaskBarIconAreaD0Ev
_ZN17wxTaskBarIconAreaD1Ev
_ZN17wxTaskBarIconAreaD2Ev
_ZN17wxTaskBarIconAreaD5Ev
_ZN17wxTaskBarIconBase13sm_eventTableE
_ZN17wxTaskBarIconBase15CreatePopupMenuEv
_ZN17wxTaskBarIconBase17OnRightButtonDownER18wxTaskBarIconEvent
_ZN17wxTaskBarIconBase17sm_eventHashTableE
_ZN17wxTaskBarIconBase20sm_eventTableEntriesE
_ZN17wxTaskBarIconBaseC1Ev
_ZN17wxTaskBarIconBaseC2Ev
_ZN17wxTaskBarIconBaseC5Ev
_ZN17wxTaskBarIconBaseD0Ev
_ZN17wxTaskBarIconBaseD1Ev
_ZN17wxTaskBarIconBaseD2Ev
_ZN17wxTaskBarIconBaseD5Ev
_ZN17wxTCPEventHandler13sm_eventTableE
_ZN17wxTCPEventHandler16Client_OnRequestER13wxSocketEvent
_ZN17wxTCPEventHandler16Server_OnRequestER13wxSocketEvent
_ZN17wxTCPEventHandler17sm_eventHashTableE
_ZN17wxTCPEventHandler20sm_eventTableEntriesE
_ZN17wxTCPEventHandlerC1Ev
_ZN17wxTCPEventHandlerC2Ev
_ZN17wxTCPEventHandlerC5Ev
_ZN17wxTCPEventHandlerD0Ev
_ZN17wxTCPEventHandlerD1Ev
_ZN17wxTCPEventHandlerD2Ev
_ZN17wxTCPEventHandlerD5Ev
_ZN17wxTextCtrlCommand2DoEv
_ZN17wxTextCtrlCommand4UndoEv
_ZN17wxTextCtrlCommandC1ERK8wxString
_ZN17wxTextCtrlCommandC2ERK8wxString
_ZN17wxTextCtrlCommandC5ERK8wxString
_ZN17wxTextCtrlCommandD0Ev
_ZN17wxTextCtrlCommandD1Ev
_ZN17wxTextCtrlCommandD2Ev
_ZN17wxTextCtrlCommandD5Ev
_ZN17wxTextEntryDialog12ms_classInfoE
_ZN17wxTextEntryDialog13sm_eventTableE
_ZN17wxTextEntryDialog16SetTextValidatorEl
_ZN17wxTextEntryDialog16SetTextValidatorERK15wxTextValidator
_ZN17wxTextEntryDialog17sm_eventHashTableE
_ZN17wxTextEntryDialog20sm_eventTableEntriesE
_ZN17wxTextEntryDialog4OnOKER14wxCommandEvent
_ZN17wxTextEntryDialog8SetValueERK8wxString
_ZN17wxTextEntryDialogC1EP8wxWindowRK8wxStringS4_S4_lRK7wxPoint
_ZN17wxTextEntryDialogC2EP8wxWindowRK8wxStringS4_S4_lRK7wxPoint
_ZN17wxTextEntryDialogD0Ev
_ZN17wxTextEntryDialogD1Ev
_ZN17wxTextEntryDialogD2Ev
_ZN17wxTextEntryDialogD5Ev
_ZN17wxTextInputStream10ReadDoubleEv
_ZN17wxTextInputStream10ReadStringEv
_ZN17wxTextInputStream17NextNonSeparatorsEv
_ZN17wxTextInputStream5Read8Ei
_ZN17wxTextInputStream6EatEOLERKc
_ZN17wxTextInputStream6Read16Ei
_ZN17wxTextInputStream6Read32Ei
_ZN17wxTextInputStream6Read8SEi
_ZN17wxTextInputStream7Read16SEi
_ZN17wxTextInputStream7Read32SEi
_ZN17wxTextInputStream8NextCharEv
_ZN17wxTextInputStream8ReadLineEv
_ZN17wxTextInputStream8ReadWordEv
_ZN17wxTextInputStream9UngetLastEv
_ZN17wxTextInputStreamC1ER13wxInputStreamRK8wxString
_ZN17wxTextInputStreamC2ER13wxInputStreamRK8wxString
_ZN17wxTextInputStreamD1Ev
_ZN17wxTextInputStreamD2Ev
_ZN17wxTextInputStreamrsER8wxString
_ZN17wxTextInputStreamrsERc
_ZN17wxTextInputStreamrsERd
_ZN17wxTextInputStreamrsERf
_ZN17wxTextInputStreamrsERi
_ZN17wxTextInputStreamrsERj
_ZN17wxTextInputStreamrsERs
_ZN17wxTextInputStreamrsERt
_ZN17wxTextWrappedData20InvalidateLinesBelowEl
_ZN17wxTextWrappedDataC1Ev
_ZN17wxTextWrappedDataC2Ev
_ZN17wxTextWrappedDataC5Ev
_ZN17wxTextWrappedDataD1Ev
_ZN17wxTextWrappedDataD2Ev
_ZN17wxTextWrappedDataD5Ev
_ZN17wxToolBarToolBase11SetLongHelpERK8wxString
_ZN17wxToolBarToolBase12ms_classInfoE
_ZN17wxToolBarToolBase12SetShortHelpERK8wxString
_ZN17wxToolBarToolBase13SetClientDataEP8wxObject
_ZN17wxToolBarToolBase14wxCreateObjectEv
_ZN17wxToolBarToolBase15SetNormalBitmapERK8wxBitmap
_ZN17wxToolBarToolBase17SetDisabledBitmapERK8wxBitmap
_ZN17wxToolBarToolBase6AttachEP13wxToolBarBase
_ZN17wxToolBarToolBase6DetachEv
_ZN17wxToolBarToolBase6EnableEb
_ZN17wxToolBarToolBase6ToggleEb
_ZN17wxToolBarToolBase6ToggleEv
_ZN17wxToolBarToolBase8SetLabelERK8wxString
_ZN17wxToolBarToolBase9SetToggleEb
_ZN17wxToolBarToolBaseC1EP13wxToolBarBaseiRK8wxStringRK8wxBitmapS7_10wxItemKindP8wxObjectS4_S4_
_ZN17wxToolBarToolBaseC1EP13wxToolBarBaseP9wxControl
_ZN17wxToolBarToolBaseC2EP13wxToolBarBaseiRK8wxStringRK8wxBitmapS7_10wxItemKindP8wxObjectS4_S4_
_ZN17wxToolBarToolBaseC2EP13wxToolBarBaseP9wxControl
_ZN17wxToolBarToolBaseC5EP13wxToolBarBaseiRK8wxStringRK8wxBitmapS7_10wxItemKindP8wxObjectS4_S4_
_ZN17wxToolBarToolBaseC5EP13wxToolBarBaseP9wxControl
_ZN17wxToolBarToolBaseD0Ev
_ZN17wxToolBarToolBaseD1Ev
_ZN17wxToolBarToolBaseD2Ev
_ZN17wxToolBarToolBaseD5Ev
_ZN17wxTransformMatrix10Get_scaleXEv
_ZN17wxTransformMatrix10Get_scaleYEv
_ZN17wxTransformMatrix11GetRotationEv
_ZN17wxTransformMatrix11SetRotationEd
_ZN17wxTransformMatrix5ScaleEd
_ZN17wxTransformMatrix5ScaleERKdS1_S1_S1_
_ZN17wxTransformMatrix6InvertEv
_ZN17wxTransformMatrix6MirrorEbb
_ZN17wxTransformMatrix6RotateEd
_ZN17wxTransformMatrix6RotateERKdS1_S1_
_ZN17wxTransformMatrix8IdentityEv
_ZN17wxTransformMatrix8SetValueEiid
_ZN17wxTransformMatrix9TranslateEdd
_ZN17wxTransformMatrixaSERKS_
_ZN17wxTransformMatrixC1ERKS_
_ZN17wxTransformMatrixC1Ev
_ZN17wxTransformMatrixC2ERKS_
_ZN17wxTransformMatrixC2Ev
_ZN17wxTransformMatrixclEii
_ZN17wxTransformMatrixD0Ev
_ZN17wxTransformMatrixD1Ev
_ZN17wxTransformMatrixD2Ev
_ZN17wxTransformMatrixD5Ev
_ZN17wxTransformMatrixdVERKd
_ZN17wxTransformMatrixmIERKS_
_ZN17wxTransformMatrixmLERKd
_ZN17wxTransformMatrixmLERKS_
_ZN17wxTransformMatrixpLERKS_
_ZN17wxTreeRenameTimer6NotifyEv
_ZN17wxTreeRenameTimerC1EP17wxGenericTreeCtrl
_ZN17wxTreeRenameTimerC2EP17wxGenericTreeCtrl
_ZN17wxTreeRenameTimerD0Ev
_ZN17wxTreeRenameTimerD1Ev
_ZN17wxTreeRenameTimerD2Ev
_ZN17wxTreeRenameTimerD5Ev
_ZN17wxULongLongNativeaSEl
_ZN17wxULongLongNativeaSERK16wxLongLongNative
_ZN17wxULongLongNativeC1Ejj
_ZN17wxULongLongNativeC1Ev
_ZN17wxULongLongNativeC1Ey
_ZN17wxULongLongNativeC2Ejj
_ZN17wxULongLongNativeC2Ev
_ZN17wxULongLongNativeC2Ey
_ZN17wxULongLongNativeC5Ejj
_ZN17wxULongLongNativeC5Ev
_ZN17wxULongLongNativeC5Ey
_ZN17wxULongLongNativedVEm
_ZN17wxULongLongNativepLERKS_
_ZN17wxULongLongNativerSEi
_ZN17wxVariantDataBool12ms_classInfoE
_ZN17wxVariantDataBool14wxCreateObjectEv
_ZN17wxVariantDataBool4ReadER13wxInputStream
_ZN17wxVariantDataBool4ReadER8wxString
_ZN17wxVariantDataBool4ReadERSi
_ZN17wxVariantDataBool8SetValueEb
_ZN17wxVariantDataBoolC1Eb
_ZN17wxVariantDataBoolC1Ev
_ZN17wxVariantDataBoolC2Eb
_ZN17wxVariantDataBoolC2Ev
_ZN17wxVariantDataBoolC5Eb
_ZN17wxVariantDataBoolC5Ev
_ZN17wxVariantDataBoolD0Ev
_ZN17wxVariantDataBoolD1Ev
_ZN17wxVariantDataBoolD2Ev
_ZN17wxVariantDataBoolD5Ev
_ZN17wxVariantDataChar12ms_classInfoE
_ZN17wxVariantDataChar14wxCreateObjectEv
_ZN17wxVariantDataChar4ReadER13wxInputStream
_ZN17wxVariantDataChar4ReadER8wxString
_ZN17wxVariantDataChar4ReadERSi
_ZN17wxVariantDataChar8SetValueEc
_ZN17wxVariantDataCharC1Ec
_ZN17wxVariantDataCharC1Ev
_ZN17wxVariantDataCharC2Ec
_ZN17wxVariantDataCharC2Ev
_ZN17wxVariantDataCharC5Ec
_ZN17wxVariantDataCharC5Ev
_ZN17wxVariantDataCharD0Ev
_ZN17wxVariantDataCharD1Ev
_ZN17wxVariantDataCharD2Ev
_ZN17wxVariantDataCharD5Ev
_ZN17wxVariantDataList12ms_classInfoE
_ZN17wxVariantDataList14wxCreateObjectEv
_ZN17wxVariantDataList4ReadER8wxString
_ZN17wxVariantDataList4ReadERSi
_ZN17wxVariantDataList5ClearEv
_ZN17wxVariantDataList8GetValueEv
_ZN17wxVariantDataList8SetValueERK6wxList
_ZN17wxVariantDataListC1ERK6wxList
_ZN17wxVariantDataListC1Ev
_ZN17wxVariantDataListC2ERK6wxList
_ZN17wxVariantDataListC2Ev
_ZN17wxVariantDataListC5Ev
_ZN17wxVariantDataListD0Ev
_ZN17wxVariantDataListD1Ev
_ZN17wxVariantDataListD2Ev
_ZN17wxVariantDataLong12ms_classInfoE
_ZN17wxVariantDataLong14wxCreateObjectEv
_ZN17wxVariantDataLong4ReadER13wxInputStream
_ZN17wxVariantDataLong4ReadER8wxString
_ZN17wxVariantDataLong4ReadERSi
_ZN17wxVariantDataLong8SetValueEl
_ZN17wxVariantDataLongC1El
_ZN17wxVariantDataLongC1Ev
_ZN17wxVariantDataLongC2El
_ZN17wxVariantDataLongC2Ev
_ZN17wxVariantDataLongC5El
_ZN17wxVariantDataLongC5Ev
_ZN17wxVariantDataLongD0Ev
_ZN17wxVariantDataLongD1Ev
_ZN17wxVariantDataLongD2Ev
_ZN17wxVariantDataLongD5Ev
_ZN17wxVScrolledWindow10RefreshAllEv
_ZN17wxVScrolledWindow11RefreshLineEm
_ZN17wxVScrolledWindow11ScrollLinesEi
_ZN17wxVScrolledWindow11ScrollPagesEi
_ZN17wxVScrolledWindow12ms_classInfoE
_ZN17wxVScrolledWindow12OnMouseWheelER12wxMouseEvent
_ZN17wxVScrolledWindow12RefreshLinesEmm
_ZN17wxVScrolledWindow12ScrollToLineEm
_ZN17wxVScrolledWindow12SetLineCountEm
_ZN17wxVScrolledWindow13sm_eventTableE
_ZN17wxVScrolledWindow15RemoveScrollbarEv
_ZN17wxVScrolledWindow15UpdateScrollbarEv
_ZN17wxVScrolledWindow17sm_eventHashTableE
_ZN17wxVScrolledWindow19FindFirstFromBottomEmb
_ZN17wxVScrolledWindow20sm_eventTableEntriesE
_ZN17wxVScrolledWindow4InitEv
_ZN17wxVScrolledWindow6CreateEP8wxWindowiRK7wxPointRK6wxSizelRK8wxString
_ZN17wxVScrolledWindow6LayoutEv
_ZN17wxVScrolledWindow6OnSizeER11wxSizeEvent
_ZN17wxVScrolledWindow8OnScrollER16wxScrollWinEvent
_ZN17wxVScrolledWindowC1Ev
_ZN17wxVScrolledWindowC2Ev
_ZN17wxVScrolledWindowC5Ev
_ZN17wxVScrolledWindowD0Ev
_ZN17wxVScrolledWindowD1Ev
_ZN17wxVScrolledWindowD2Ev
_ZN17wxVScrolledWindowD5Ev
_ZN17wxWrappedLineDataC1ERKS_
_ZN17wxWrappedLineDataC1Ev
_ZN17wxWrappedLineDataC2ERKS_
_ZN17wxWrappedLineDataC2Ev
_ZN17wxWrappedLineDataC5ERKS_
_ZN17wxWrappedLineDataC5Ev
_ZN17wxWrappedLineDataD1Ev
_ZN17wxWrappedLineDataD2Ev
_ZN17wxWrappedLineDataD5Ev
_ZN17wxwxAccelListNode10DeleteDataEv
_ZN17wxwxAccelListNodeC1EP10wxListBasePS_S2_P18wxAcceleratorEntryRK9wxListKey
_ZN17wxwxAccelListNodeC2EP10wxListBasePS_S2_P18wxAcceleratorEntryRK9wxListKey
_ZN17wxwxAccelListNodeC5EP10wxListBasePS_S2_P18wxAcceleratorEntryRK9wxListKey
_ZN17wxwxAccelListNodeD0Ev
_ZN17wxwxAccelListNodeD1Ev
_ZN17wxwxAccelListNodeD2Ev
_ZN17wxwxAccelListNodeD5Ev
_ZN17wxZipClassFactory12ms_classInfoE
_ZN17wxZipClassFactory14wxCreateObjectEv
_ZN17wxZipClassFactoryC1Ev
_ZN17wxZipClassFactoryC2Ev
_ZN17wxZipClassFactoryD0Ev
_ZN17wxZipClassFactoryD1Ev
_ZN17wxZipClassFactoryD2Ev
_ZN17wxZipClassFactoryD5Ev
_ZN17wxZipOutputStream10CloseEntryEv
_ZN17wxZipOutputStream10OnSysWriteEPKvm
_ZN17wxZipOutputStream10SetCommentERK8wxString
_ZN17wxZipOutputStream12PutNextEntryEP10wxZipEntry
_ZN17wxZipOutputStream12PutNextEntryEP14wxArchiveEntry
_ZN17wxZipOutputStream12PutNextEntryERK8wxStringRK10wxDateTimel
_ZN17wxZipOutputStream14OpenCompressorER14wxOutputStreamR10wxZipEntryPKNS_6BufferE
_ZN17wxZipOutputStream15CloseCompressorEP14wxOutputStream
_ZN17wxZipOutputStream15PutNextDirEntryERK8wxStringRK10wxDateTime
_ZN17wxZipOutputStream18CreatePendingEntryEPKvm
_ZN17wxZipOutputStream18CreatePendingEntryEv
_ZN17wxZipOutputStream19CopyArchiveMetaDataER16wxZipInputStream
_ZN17wxZipOutputStream19CopyArchiveMetaDataER20wxArchiveInputStream
_ZN17wxZipOutputStream4InitEi
_ZN17wxZipOutputStream4SyncEv
_ZN17wxZipOutputStream5CloseEv
_ZN17wxZipOutputStream8DoCreateEP10wxZipEntryb
_ZN17wxZipOutputStream8SetLevelEi
_ZN17wxZipOutputStream9CopyEntryEP10wxZipEntryR16wxZipInputStream
_ZN17wxZipOutputStream9CopyEntryEP14wxArchiveEntryR20wxArchiveInputStream
_ZN17wxZipOutputStreamC1EP14wxOutputStreamiR8wxMBConv
_ZN17wxZipOutputStreamC1ER14wxOutputStreamiR8wxMBConv
_ZN17wxZipOutputStreamC2EP14wxOutputStreamiR8wxMBConv
_ZN17wxZipOutputStreamC2ER14wxOutputStreamiR8wxMBConv
_ZN17wxZipOutputStreamD0Ev
_ZN17wxZipOutputStreamD1Ev
_ZN17wxZipOutputStreamD2Ev
_ZN17wxZlibInputStream13CanHandleGZipEv
_ZN17wxZlibInputStream4InitEi
_ZN17wxZlibInputStream4PeekEv
_ZN17wxZlibInputStream9OnSysReadEPvm
_ZN17wxZlibInputStreamC1EP13wxInputStreami
_ZN17wxZlibInputStreamC1ER13wxInputStreami
_ZN17wxZlibInputStreamC2EP13wxInputStreami
_ZN17wxZlibInputStreamC2ER13wxInputStreami
_ZN17wxZlibInputStreamD0Ev
_ZN17wxZlibInputStreamD1Ev
_ZN17wxZlibInputStreamD2Ev
_ZN18wxAcceleratorEntry10FromStringERK8wxString
_ZN18wxAcceleratorEntry10ParseAccelERK8wxStringPiS3_
_ZN18wxAcceleratorEntry11SetMenuItemEP10wxMenuItem
_ZN18wxAcceleratorEntry3SetEiiiP10wxMenuItem
_ZN18wxAcceleratorEntry6CreateERK8wxString
_ZN18wxAcceleratorEntryC1EiiiP10wxMenuItem
_ZN18wxAcceleratorEntryC1ERKS_
_ZN18wxAcceleratorEntryC2EiiiP10wxMenuItem
_ZN18wxAcceleratorEntryC2ERKS_
_ZN18wxAcceleratorEntryC5EiiiP10wxMenuItem
_ZN18wxAcceleratorEntryC5ERKS_
_ZN18wxAcceleratorTable12ms_classInfoE
_ZN18wxAcceleratorTable14wxCreateObjectEv
_ZN18wxAcceleratorTable3AddERK18wxAcceleratorEntry
_ZN18wxAcceleratorTable6RemoveERK18wxAcceleratorEntry
_ZN18wxAcceleratorTableaSERKS_
_ZN18wxAcceleratorTableC1EiPK18wxAcceleratorEntry
_ZN18wxAcceleratorTableC1ERKS_
_ZN18wxAcceleratorTableC1Ev
_ZN18wxAcceleratorTableC2EiPK18wxAcceleratorEntry
_ZN18wxAcceleratorTableC2ERKS_
_ZN18wxAcceleratorTableC2Ev
_ZN18wxAcceleratorTableC5ERKS_
_ZN18wxAcceleratorTableD0Ev
_ZN18wxAcceleratorTableD1Ev
_ZN18wxAcceleratorTableD2Ev
_ZN18wxAnimationDecoderC1Ev
_ZN18wxAnimationDecoderC2Ev
_ZN18wxAnimationDecoderC5Ev
_ZN18wxAnimationDecoderD0Ev
_ZN18wxAnimationDecoderD1Ev
_ZN18wxAnimationDecoderD2Ev
_ZN18wxAnimationDecoderD5Ev
_ZN18wxArchiveFSHandler12ms_classInfoE
_ZN18wxArchiveFSHandler14wxCreateObjectEv
_ZN18wxArchiveFSHandler6DoFindEv
_ZN18wxArchiveFSHandler7CanOpenERK8wxString
_ZN18wxArchiveFSHandler7CleanupEv
_ZN18wxArchiveFSHandler8FindNextEv
_ZN18wxArchiveFSHandler8OpenFileER12wxFileSystemRK8wxString
_ZN18wxArchiveFSHandler9FindFirstERK8wxStringi
_ZN18wxArchiveFSHandlerC1Ev
_ZN18wxArchiveFSHandlerC2Ev
_ZN18wxArchiveFSHandlerD0Ev
_ZN18wxArchiveFSHandlerD1Ev
_ZN18wxArchiveFSHandlerD2Ev
_ZN18wxArrayTreeItemIds3AddERK12wxTreeItemId
_ZN18wxArrayTreeItemIds6InsertERK12wxTreeItemIdm
_ZN18wxArrayTreeItemIdsC1Ev
_ZN18wxArrayTreeItemIdsC2Ev
_ZN18wxArrayTreeItemIdsC5Ev
_ZN18wxArrayTreeItemIdsD1Ev
_ZN18wxArrayTreeItemIdsD2Ev
_ZN18wxArrayTreeItemIdsD5Ev
_ZN18wxArtProviderCache15ConstructHashIDERK8wxStringS2_RK6wxSize
_ZN18wxArtProviderCache5ClearEv
_ZN18wxArtProviderCache9GetBitmapERK8wxStringP8wxBitmap
_ZN18wxArtProviderCache9PutBitmapERK8wxStringRK8wxBitmap
_ZN18wxArtProviderCacheC1Ev
_ZN18wxArtProviderCacheC2Ev
_ZN18wxArtProviderCacheC5Ev
_ZN18wxArtProviderCacheD1Ev
_ZN18wxArtProviderCacheD2Ev
_ZN18wxArtProviderCacheD5Ev
_ZN18wxArtProvidersList10CreateNodeEP10wxNodeBaseS1_PvRK9wxListKey
_ZN18wxArtProvidersList12DeleteObjectEP13wxArtProvider
_ZN18wxArtProvidersList22compatibility_iteratorC1EP24wxwxArtProvidersListNode
_ZN18wxArtProvidersList22compatibility_iteratorC2EP24wxwxArtProvidersListNode
_ZN18wxArtProvidersList22compatibility_iteratorC5EP24wxwxArtProvidersListNode
_ZN18wxArtProvidersList5beginEv
_ZN18wxArtProvidersList6AppendEP13wxArtProvider
_ZN18wxArtProvidersList6InsertEP13wxArtProvider
_ZN18wxArtProvidersList6InsertEP24wxwxArtProvidersListNodeP13wxArtProvider
_ZN18wxArtProvidersList8iteratorC1EP24wxwxArtProvidersListNodeS2_
_ZN18wxArtProvidersList8iteratorC2EP24wxwxArtProvidersListNodeS2_
_ZN18wxArtProvidersList8iteratorC5EP24wxwxArtProvidersListNodeS2_
_ZN18wxArtProvidersListC1E9wxKeyType
_ZN18wxArtProvidersListC2E9wxKeyType
_ZN18wxArtProvidersListC5E9wxKeyType
_ZN18wxArtProvidersListD0Ev
_ZN18wxArtProvidersListD1Ev
_ZN18wxArtProvidersListD2Ev
_ZN18wxArtProvidersListD5Ev
_ZN18wxAuiDefaultTabArt10DrawButtonER4wxDCP8wxWindowRK6wxRectiiiPS4_
_ZN18wxAuiDefaultTabArt10GetTabSizeER4wxDCP8wxWindowRK8wxStringRK8wxBitmapbiPi
_ZN18wxAuiDefaultTabArt12ShowDropDownEP8wxWindowRK22wxAuiNotebookPageArrayi
_ZN18wxAuiDefaultTabArt13GetIndentSizeEv
_ZN18wxAuiDefaultTabArt13SetNormalFontERK6wxFont
_ZN18wxAuiDefaultTabArt13SetSizingInfoERK6wxSizem
_ZN18wxAuiDefaultTabArt14DrawBackgroundER4wxDCP8wxWindowRK6wxRect
_ZN18wxAuiDefaultTabArt15SetSelectedFontERK6wxFont
_ZN18wxAuiDefaultTabArt16SetMeasuringFontERK6wxFont
_ZN18wxAuiDefaultTabArt18GetBestTabCtrlSizeEP8wxWindowRK22wxAuiNotebookPageArrayRK6wxSize
_ZN18wxAuiDefaultTabArt5CloneEv
_ZN18wxAuiDefaultTabArt7DrawTabER4wxDCP8wxWindowRK17wxAuiNotebookPageRK6wxRectiPS7_SA_Pi
_ZN18wxAuiDefaultTabArt8SetFlagsEj
_ZN18wxAuiDefaultTabArtC1Ev
_ZN18wxAuiDefaultTabArtC2Ev
_ZN18wxAuiDefaultTabArtD0Ev
_ZN18wxAuiDefaultTabArtD1Ev
_ZN18wxAuiDefaultTabArtD2Ev
_ZN18wxAuiDockInfoArray3AddERK13wxAuiDockInfom
_ZN18wxAuiDockInfoArray5ClearEv
_ZN18wxAuiDockInfoArray5EmptyEv
_ZN18wxAuiDockInfoArray6DoCopyERKS_
_ZN18wxAuiDockInfoArray6InsertERK13wxAuiDockInfomm
_ZN18wxAuiDockInfoArray7DoEmptyEv
_ZN18wxAuiDockInfoArray8RemoveAtEmm
_ZN18wxAuiDockInfoArrayaSERKS_
_ZN18wxAuiDockInfoArrayC1ERKS_
_ZN18wxAuiDockInfoArrayC1Ev
_ZN18wxAuiDockInfoArrayC2ERKS_
_ZN18wxAuiDockInfoArrayC2Ev
_ZN18wxAuiDockInfoArrayC5Ev
_ZN18wxAuiDockInfoArrayD1Ev
_ZN18wxAuiDockInfoArrayD2Ev
_ZN18wxAuiFloatingFrame10OnActivateER15wxActivateEvent
_ZN18wxAuiFloatingFrame11isMouseDownEv
_ZN18wxAuiFloatingFrame11OnMoveEventER11wxMoveEvent
_ZN18wxAuiFloatingFrame11OnMoveStartEv
_ZN18wxAuiFloatingFrame12ms_classInfoE
_ZN18wxAuiFloatingFrame13SetPaneWindowERK13wxAuiPaneInfo
_ZN18wxAuiFloatingFrame13sm_eventTableE
_ZN18wxAuiFloatingFrame14OnMoveFinishedEv
_ZN18wxAuiFloatingFrame17sm_eventHashTableE
_ZN18wxAuiFloatingFrame20sm_eventTableEntriesE
_ZN18wxAuiFloatingFrame6OnIdleER11wxIdleEvent
_ZN18wxAuiFloatingFrame6OnSizeER11wxSizeEvent
_ZN18wxAuiFloatingFrame7OnCloseER12wxCloseEvent
_ZN18wxAuiFloatingFrame8OnMovingERK6wxRect11wxDirection
_ZN18wxAuiFloatingFrameC1EP8wxWindowP12wxAuiManagerRK13wxAuiPaneInfoil
_ZN18wxAuiFloatingFrameC2EP8wxWindowP12wxAuiManagerRK13wxAuiPaneInfoil
_ZN18wxAuiFloatingFrameD0Ev
_ZN18wxAuiFloatingFrameD1Ev
_ZN18wxAuiFloatingFrameD2Ev
_ZN18wxAuiMDIChildFrame10OnActivateER15wxActivateEvent
_ZN18wxAuiMDIChildFrame10SetMenuBarEP9wxMenuBar
_ZN18wxAuiMDIChildFrame12DoMoveWindowEiiii
_ZN18wxAuiMDIChildFrame12ms_classInfoE
_ZN18wxAuiMDIChildFrame13CreateToolBarEliRK8wxString
_ZN18wxAuiMDIChildFrame13OnCloseWindowER12wxCloseEvent
_ZN18wxAuiMDIChildFrame13SetStatusTextERK8wxStringi
_ZN18wxAuiMDIChildFrame13sm_eventTableE
_ZN18wxAuiMDIChildFrame14DoSetSizeHintsEiiiiii
_ZN18wxAuiMDIChildFrame14ShowFullScreenEbl
_ZN18wxAuiMDIChildFrame14wxCreateObjectEv
_ZN18wxAuiMDIChildFrame15CreateStatusBarEiliRK8wxString
_ZN18wxAuiMDIChildFrame15OnMenuHighlightER11wxMenuEvent
_ZN18wxAuiMDIChildFrame15SetStatusWidthsEiPKi
_ZN18wxAuiMDIChildFrame17SetMDIParentFrameEP19wxAuiMDIParentFrame
_ZN18wxAuiMDIChildFrame17sm_eventHashTableE
_ZN18wxAuiMDIChildFrame20sm_eventTableEntriesE
_ZN18wxAuiMDIChildFrame22ApplyMDIChildFrameRectEv
_ZN18wxAuiMDIChildFrame4InitEv
_ZN18wxAuiMDIChildFrame4ShowEb
_ZN18wxAuiMDIChildFrame6CreateEP19wxAuiMDIParentFrameiRK8wxStringRK7wxPointRK6wxSizelS4_
_ZN18wxAuiMDIChildFrame6DoShowEb
_ZN18wxAuiMDIChildFrame7DestroyEv
_ZN18wxAuiMDIChildFrame7IconizeEb
_ZN18wxAuiMDIChildFrame7RestoreEv
_ZN18wxAuiMDIChildFrame7SetIconERK6wxIcon
_ZN18wxAuiMDIChildFrame8ActivateEv
_ZN18wxAuiMDIChildFrame8MaximizeEb
_ZN18wxAuiMDIChildFrame8SetIconsERK12wxIconBundle
_ZN18wxAuiMDIChildFrame8SetTitleERK8wxString
_ZN18wxAuiMDIChildFrame9DoSetSizeEiiiii
_ZN18wxAuiMDIChildFrameC1EP19wxAuiMDIParentFrameiRK8wxStringRK7wxPointRK6wxSizelS4_
_ZN18wxAuiMDIChildFrameC1Ev
_ZN18wxAuiMDIChildFrameC2EP19wxAuiMDIParentFrameiRK8wxStringRK7wxPointRK6wxSizelS4_
_ZN18wxAuiMDIChildFrameC2Ev
_ZN18wxAuiMDIChildFrameD0Ev
_ZN18wxAuiMDIChildFrameD1Ev
_ZN18wxAuiMDIChildFrameD2Ev
_ZN18wxAuiNotebookEvent12ms_classInfoE
_ZN18wxAuiNotebookEvent12SetSelectionEi
_ZN18wxAuiNotebookEvent13SetDragSourceEP13wxAuiNotebook
_ZN18wxAuiNotebookEvent14wxCreateObjectEv
_ZN18wxAuiNotebookEvent15SetOldSelectionEi
_ZN18wxAuiNotebookEventC1Eii
_ZN18wxAuiNotebookEventC1ERKS_
_ZN18wxAuiNotebookEventC2Eii
_ZN18wxAuiNotebookEventC2ERKS_
_ZN18wxAuiNotebookEventC5Eii
_ZN18wxAuiNotebookEventC5ERKS_
_ZN18wxAuiNotebookEventD0Ev
_ZN18wxAuiNotebookEventD1Ev
_ZN18wxAuiNotebookEventD2Ev
_ZN18wxAuiNotebookEventD5Ev
_ZN18wxAuiPaneInfoArray3AddERK13wxAuiPaneInfom
_ZN18wxAuiPaneInfoArray5EmptyEv
_ZN18wxAuiPaneInfoArray6DoCopyERKS_
_ZN18wxAuiPaneInfoArray6InsertERK13wxAuiPaneInfomm
_ZN18wxAuiPaneInfoArray7DoEmptyEv
_ZN18wxAuiPaneInfoArray8RemoveAtEmm
_ZN18wxAuiPaneInfoArrayaSERKS_
_ZN18wxAuiPaneInfoArrayC1ERKS_
_ZN18wxAuiPaneInfoArrayC1Ev
_ZN18wxAuiPaneInfoArrayC2ERKS_
_ZN18wxAuiPaneInfoArrayC2Ev
_ZN18wxAuiPaneInfoArrayC5Ev
_ZN18wxAuiPaneInfoArrayD1Ev
_ZN18wxAuiPaneInfoArrayD2Ev
_ZN18wxBaseArrayPtrVoid3AddEPKvm
_ZN18wxBaseArrayPtrVoid3AddEPKvPFiS1_S1_E
_ZN18wxBaseArrayPtrVoid3endEv
_ZN18wxBaseArrayPtrVoid4GrowEm
_ZN18wxBaseArrayPtrVoid4SortEPFiPKvS1_E
_ZN18wxBaseArrayPtrVoid5AllocEm
_ZN18wxBaseArrayPtrVoid5beginEv
_ZN18wxBaseArrayPtrVoid5clearEv
_ZN18wxBaseArrayPtrVoid5ClearEv
_ZN18wxBaseArrayPtrVoid5EmptyEv
_ZN18wxBaseArrayPtrVoid5eraseEPPKv
_ZN18wxBaseArrayPtrVoid5eraseEPPKvS2_
_ZN18wxBaseArrayPtrVoid6assignEmRKPKv
_ZN18wxBaseArrayPtrVoid6assignEPKPKvS3_
_ZN18wxBaseArrayPtrVoid6InsertEPKvmm
_ZN18wxBaseArrayPtrVoid6insertEPPKvmRKS1_
_ZN18wxBaseArrayPtrVoid6insertEPPKvPKS1_S4_
_ZN18wxBaseArrayPtrVoid6insertEPPKvRKS1_
_ZN18wxBaseArrayPtrVoid6RemoveEPKv
_ZN18wxBaseArrayPtrVoid6ShrinkEv
_ZN18wxBaseArrayPtrVoid7ReallocEm
_ZN18wxBaseArrayPtrVoid7reserveEm
_ZN18wxBaseArrayPtrVoid8RemoveAtEmm
_ZN18wxBaseArrayPtrVoid8SetCountEmPKv
_ZN18wxBaseArrayPtrVoid9push_backERKPKv
_ZN18wxBaseArrayPtrVoidaSERKS_
_ZN18wxBaseArrayPtrVoidC1ERKS_
_ZN18wxBaseArrayPtrVoidC1Ev
_ZN18wxBaseArrayPtrVoidC2ERKS_
_ZN18wxBaseArrayPtrVoidC2Ev
_ZN18wxBaseArrayPtrVoidD1Ev
_ZN18wxBaseArrayPtrVoidD2Ev
_ZN18wxBitmapBaseModule12ms_classInfoE
_ZN18wxBitmapBaseModule14wxCreateObjectEv
_ZN18wxBitmapBaseModule6OnExitEv
_ZN18wxBitmapBaseModule6OnInitEv
_ZN18wxBitmapBaseModuleC1Ev
_ZN18wxBitmapBaseModuleC2Ev
_ZN18wxBitmapBaseModuleC5Ev
_ZN18wxBitmapBaseModuleD0Ev
_ZN18wxBitmapBaseModuleD1Ev
_ZN18wxBitmapBaseModuleD2Ev
_ZN18wxBitmapBaseModuleD5Ev
_ZN18wxBitmapButtonBase10SetMarginsEii
_ZN18wxBitmapButtonBase11OnSetBitmapEv
_ZN18wxBitmapButtonBase14SetBitmapFocusERK8wxBitmap
_ZN18wxBitmapButtonBase14SetBitmapHoverERK8wxBitmap
_ZN18wxBitmapButtonBase17SetBitmapDisabledERK8wxBitmap
_ZN18wxBitmapButtonBase17SetBitmapSelectedERK8wxBitmap
_ZN18wxBitmapButtonBase8SetLabelERK8wxString
_ZN18wxBitmapButtonBaseC1Ev
_ZN18wxBitmapButtonBaseC2Ev
_ZN18wxBitmapButtonBaseC5Ev
_ZN18wxBitmapButtonBaseD0Ev
_ZN18wxBitmapButtonBaseD1Ev
_ZN18wxBitmapButtonBaseD2Ev
_ZN18wxBitmapButtonBaseD5Ev
_ZN18wxBitmapDataObject14DoConvertToPngEv
_ZN18wxBitmapDataObject4InitEv
_ZN18wxBitmapDataObject5ClearEv
_ZN18wxBitmapDataObject7SetDataEmPKv
_ZN18wxBitmapDataObject7SetDataERK12wxDataFormatmPKv
_ZN18wxBitmapDataObject8ClearAllEv
_ZN18wxBitmapDataObject9SetBitmapERK8wxBitmap
_ZN18wxBitmapDataObjectC1ERK8wxBitmap
_ZN18wxBitmapDataObjectC1Ev
_ZN18wxBitmapDataObjectC2ERK8wxBitmap
_ZN18wxBitmapDataObjectC2Ev
_ZN18wxBitmapDataObjectD0Ev
_ZN18wxBitmapDataObjectD1Ev
_ZN18wxBitmapDataObjectD2Ev
_ZN18wxBitmapXmlHandler12ms_classInfoE
_ZN18wxBitmapXmlHandler14wxCreateObjectEv
_ZN18wxBitmapXmlHandler16DoCreateResourceEv
_ZN18wxBitmapXmlHandler9CanHandleEP9wxXmlNode
_ZN18wxBitmapXmlHandlerC1Ev
_ZN18wxBitmapXmlHandlerC2Ev
_ZN18wxBitmapXmlHandlerD0Ev
_ZN18wxBitmapXmlHandlerD1Ev
_ZN18wxBitmapXmlHandlerD2Ev
_ZN18wxBitmapXmlHandlerD5Ev
_ZN18wxButtonXmlHandler12ms_classInfoE
_ZN18wxButtonXmlHandler14wxCreateObjectEv
_ZN18wxButtonXmlHandler16DoCreateResourceEv
_ZN18wxButtonXmlHandler9CanHandleEP9wxXmlNode
_ZN18wxButtonXmlHandlerC1Ev
_ZN18wxButtonXmlHandlerC2Ev
_ZN18wxButtonXmlHandlerD0Ev
_ZN18wxButtonXmlHandlerD1Ev
_ZN18wxButtonXmlHandlerD2Ev
_ZN18wxButtonXmlHandlerD5Ev
_ZN18wxCalendarDateAttr10SetHolidayEb
_ZN18wxCalendarDateAttr4InitE20wxCalendarDateBorder
_ZN18wxCalendarDateAttrC1Ev
_ZN18wxCalendarDateAttrC2Ev
_ZN18wxCalendarDateAttrC5Ev
_ZN18wxCalendarDateAttrD1Ev
_ZN18wxCalendarDateAttrD2Ev
_ZN18wxCalendarDateAttrD5Ev
_ZN18wxCheckListBoxBaseC1Ev
_ZN18wxCheckListBoxBaseC2Ev
_ZN18wxCheckListBoxBaseC5Ev
_ZN18wxCheckListBoxBaseD0Ev
_ZN18wxCheckListBoxBaseD1Ev
_ZN18wxCheckListBoxBaseD2Ev
_ZN18wxCheckListBoxBaseD5Ev
_ZN18wxChoiceXmlHandler12ms_classInfoE
_ZN18wxChoiceXmlHandler14wxCreateObjectEv
_ZN18wxChoiceXmlHandler16DoCreateResourceEv
_ZN18wxChoiceXmlHandler9CanHandleEP9wxXmlNode
_ZN18wxChoiceXmlHandlerC1Ev
_ZN18wxChoiceXmlHandlerC2Ev
_ZN18wxChoiceXmlHandlerD0Ev
_ZN18wxChoiceXmlHandlerD1Ev
_ZN18wxChoiceXmlHandlerD2Ev
_ZN18wxChoiceXmlHandlerD5Ev
_ZN18wxColourPickerCtrl12ms_classInfoE
_ZN18wxColourPickerCtrl14OnColourChangeER19wxColourPickerEvent
_ZN18wxColourPickerCtrl14wxCreateObjectEv
_ZN18wxColourPickerCtrl24UpdatePickerFromTextCtrlEv
_ZN18wxColourPickerCtrl24UpdateTextCtrlFromPickerEv
_ZN18wxColourPickerCtrl6CreateEP8wxWindowiRK8wxColourRK7wxPointRK6wxSizelRK11wxValidatorRK8wxString
_ZN18wxColourPickerCtrl9SetColourERK8wxColour
_ZN18wxColourPickerCtrl9SetColourERK8wxString
_ZN18wxColourPickerCtrlC1Ev
_ZN18wxColourPickerCtrlC2Ev
_ZN18wxColourPickerCtrlC5Ev
_ZN18wxColourPickerCtrlD0Ev
_ZN18wxColourPickerCtrlD1Ev
_ZN18wxColourPickerCtrlD2Ev
_ZN18wxColourPickerCtrlD5Ev
_ZN18wxComboPopupWindowC1EP15wxComboCtrlBasei
_ZN18wxComboPopupWindowC2EP15wxComboCtrlBasei
_ZN18wxComboPopupWindowC5EP15wxComboCtrlBasei
_ZN18wxComboPopupWindowD0Ev
_ZN18wxComboPopupWindowD1Ev
_ZN18wxComboPopupWindowD2Ev
_ZN18wxComboPopupWindowD5Ev
_ZN18wxCommandProcessor10InitializeEv
_ZN18wxCommandProcessor11UndoCommandER9wxCommand
_ZN18wxCommandProcessor12ms_classInfoE
_ZN18wxCommandProcessor13ClearCommandsEv
_ZN18wxCommandProcessor14SetMenuStringsEv
_ZN18wxCommandProcessor14wxCreateObjectEv
_ZN18wxCommandProcessor4RedoEv
_ZN18wxCommandProcessor4UndoEv
_ZN18wxCommandProcessor5StoreEP9wxCommand
_ZN18wxCommandProcessor6SubmitEP9wxCommandb
_ZN18wxCommandProcessor9DoCommandER9wxCommand
_ZN18wxCommandProcessorC1Ei
_ZN18wxCommandProcessorC2Ei
_ZN18wxCommandProcessorD0Ev
_ZN18wxCommandProcessorD1Ev
_ZN18wxCommandProcessorD2Ev
_ZN18wxConsoleAppTraits12WaitForChildER13wxExecuteData
_ZN18wxConsoleAppTraits20CreateEndProcessPipeER13wxExecuteData
_ZN18wxConsoleAppTraits25IsWriteFDOfEndProcessPipeER13wxExecuteDatai
_ZN18wxConsoleAppTraits29DetachWriteFDOfEndProcessPipeER13wxExecuteData
_ZN18wxConsoleAppTraitsC1Ev
_ZN18wxConsoleAppTraitsC2Ev
_ZN18wxConsoleAppTraitsC5Ev
_ZN18wxConsoleAppTraitsD0Ev
_ZN18wxConsoleAppTraitsD1Ev
_ZN18wxConsoleAppTraitsD2Ev
_ZN18wxConsoleAppTraitsD5Ev
_ZN18wxContextMenuEvent12ms_classInfoE
_ZN18wxContextMenuEvent14wxCreateObjectEv
_ZN18wxContextMenuEventC1EiiRK7wxPoint
_ZN18wxContextMenuEventC1ERKS_
_ZN18wxContextMenuEventC2EiiRK7wxPoint
_ZN18wxContextMenuEventC2ERKS_
_ZN18wxContextMenuEventC5EiiRK7wxPoint
_ZN18wxContextMenuEventC5ERKS_
_ZN18wxContextMenuEventD0Ev
_ZN18wxContextMenuEventD1Ev
_ZN18wxContextMenuEventD2Ev
_ZN18wxContextMenuEventD5Ev
_ZN18wxControlContainer10DoSetFocusEv
_ZN18wxControlContainer12SetLastFocusEP8wxWindow
_ZN18wxControlContainer13HandleOnFocusER12wxFocusEvent
_ZN18wxControlContainer15SetFocusToChildEv
_ZN18wxControlContainer18SetContainerWindowEP8wxWindow
_ZN18wxControlContainer21HandleOnNavigationKeyER20wxNavigationKeyEvent
_ZN18wxControlContainer21HandleOnWindowDestroyEP12wxWindowBase
_ZN18wxControlContainerC1EP8wxWindow
_ZN18wxControlContainerC2EP8wxWindow
_ZN18wxControlWithItems12ms_classInfoE
_ZN18wxControlWithItems13SetClientDataEjPv
_ZN18wxControlWithItems15SetClientObjectEjP12wxClientData
_ZN18wxControlWithItems25InitCommandEventWithItemsER14wxCommandEventi
_ZN18wxControlWithItemsC1Ev
_ZN18wxControlWithItemsC2Ev
_ZN18wxControlWithItemsC5Ev
_ZN18wxControlWithItemsD0Ev
_ZN18wxControlWithItemsD1Ev
_ZN18wxControlWithItemsD2Ev
_ZN18wxControlWithThumbC1Ev
_ZN18wxControlWithThumbC2Ev
_ZN18wxControlWithThumbC5Ev
_ZN18wxControlWithThumbD0Ev
_ZN18wxControlWithThumbD1Ev
_ZN18wxControlWithThumbD2Ev
_ZN18wxControlWithThumbD5Ev
_ZN18wxCustomDataObject4FreeEv
_ZN18wxCustomDataObject5AllocEm
_ZN18wxCustomDataObject7SetDataEmPKv
_ZN18wxCustomDataObject7SetDataERK12wxDataFormatmPKv
_ZN18wxCustomDataObject8TakeDataEmPv
_ZN18wxCustomDataObjectC1ERK12wxDataFormat
_ZN18wxCustomDataObjectC2ERK12wxDataFormat
_ZN18wxCustomDataObjectD0Ev
_ZN18wxCustomDataObjectD1Ev
_ZN18wxCustomDataObjectD2Ev
_ZN18wxDataObjectSimple7SetDataEmPKv
_ZN18wxDataObjectSimple7SetDataERK12wxDataFormatmPKv
_ZN18wxDataObjectSimple9SetFormatERK12wxDataFormat
_ZN18wxDataObjectSimpleC1ERK12wxDataFormat
_ZN18wxDataObjectSimpleC2ERK12wxDataFormat
_ZN18wxDataObjectSimpleC5ERK12wxDataFormat
_ZN18wxDataObjectSimpleD0Ev
_ZN18wxDataObjectSimpleD1Ev
_ZN18wxDataObjectSimpleD2Ev
_ZN18wxDataObjectSimpleD5Ev
_ZN18wxDataOutputStream11WriteDoubleEd
_ZN18wxDataOutputStream11WriteDoubleEPKdm
_ZN18wxDataOutputStream11WriteStringERK8wxString
_ZN18wxDataOutputStream6Write8Eh
_ZN18wxDataOutputStream6Write8EPKhm
_ZN18wxDataOutputStream7Write16EPKtm
_ZN18wxDataOutputStream7Write16Et
_ZN18wxDataOutputStream7Write32Ej
_ZN18wxDataOutputStream7Write32EPKjm
_ZN18wxDataOutputStream7Write64EPK16wxLongLongNativem
_ZN18wxDataOutputStream7Write64EPK17wxULongLongNativem
_ZN18wxDataOutputStream7Write64EPKxm
_ZN18wxDataOutputStream7Write64EPKym
_ZN18wxDataOutputStream7Write64Ex
_ZN18wxDataOutputStream7Write64Ey
_ZN18wxDataOutputStream7WriteLLEPK16wxLongLongNativem
_ZN18wxDataOutputStream7WriteLLEPK17wxULongLongNativem
_ZN18wxDataOutputStream7WriteLLERK16wxLongLongNative
_ZN18wxDataOutputStream7WriteLLERK17wxULongLongNative
_ZN18wxDataOutputStreamC1ER14wxOutputStream
_ZN18wxDataOutputStreamC2ER14wxOutputStream
_ZN18wxDataOutputStreamD1Ev
_ZN18wxDataOutputStreamD2Ev
_ZN18wxDataOutputStreamlsEa
_ZN18wxDataOutputStreamlsEd
_ZN18wxDataOutputStreamlsEf
_ZN18wxDataOutputStreamlsEh
_ZN18wxDataOutputStreamlsEi
_ZN18wxDataOutputStreamlsEj
_ZN18wxDataOutputStreamlsEPKc
_ZN18wxDataOutputStreamlsERK16wxLongLongNative
_ZN18wxDataOutputStreamlsERK17wxULongLongNative
_ZN18wxDataOutputStreamlsERK8wxString
_ZN18wxDataOutputStreamlsEs
_ZN18wxDataOutputStreamlsEt
_ZN18wxDataOutputStreamlsEx
_ZN18wxDataOutputStreamlsEy
_ZN18wxDateTimeWorkDaysC1Ev
_ZN18wxDateTimeWorkDaysC2Ev
_ZN18wxDateTimeWorkDaysC5Ev
_ZN18wxDateTimeWorkDaysD0Ev
_ZN18wxDateTimeWorkDaysD1Ev
_ZN18wxDateTimeWorkDaysD2Ev
_ZN18wxDateTimeWorkDaysD5Ev
_ZN18wxDelegateRenderer10AdjustSizeEP6wxSizePK8wxWindow
_ZN18wxDelegateRenderer10DrawBorderER4wxDC8wxBorderRK6wxRectiPS3_
_ZN18wxDelegateRenderer12DrawMenuItemER4wxDCiRK18wxMenuGeometryInfoRK8wxStringS7_RK8wxBitmapii
_ZN18wxDelegateRenderer12DrawTextLineER4wxDCRK8wxStringRK6wxRectiii
_ZN18wxDelegateRenderer13DrawCheckItemER4wxDCRK8wxStringRK8wxBitmapRK6wxRecti
_ZN18wxDelegateRenderer13DrawFocusRectER4wxDCRK6wxRecti
_ZN18wxDelegateRenderer13DrawFrameIconER4wxDCRK6wxRectRK6wxIconi
_ZN18wxDelegateRenderer14DrawBackgroundER4wxDCRK8wxColourRK6wxRectiP8wxWindow
_ZN18wxDelegateRenderer14DrawFrameTitleER4wxDCRK6wxRectRK8wxStringi
_ZN18wxDelegateRenderer14DrawTextBorderER4wxDC8wxBorderRK6wxRectiPS3_
_ZN18wxDelegateRenderer15DrawButtonLabelER4wxDCRK8wxStringRK8wxBitmapRK6wxRectiiiPS8_
_ZN18wxDelegateRenderer15DrawCheckButtonER4wxDCRK8wxStringRK8wxBitmapRK6wxRecti11wxAlignmenti
_ZN18wxDelegateRenderer15DrawFrameBorderER4wxDCRK6wxRecti
_ZN18wxDelegateRenderer15DrawFrameButtonER4wxDCiiii
_ZN18wxDelegateRenderer15DrawMenuBarItemER4wxDCRK6wxRectRK8wxStringii
_ZN18wxDelegateRenderer15DrawRadioButtonER4wxDCRK8wxStringRK8wxBitmapRK6wxRecti11wxAlignmenti
_ZN18wxDelegateRenderer15DrawSliderShaftER4wxDCRK6wxRecti13wxOrientationilPS2_
_ZN18wxDelegateRenderer15DrawSliderThumbER4wxDCRK6wxRect13wxOrientationil
_ZN18wxDelegateRenderer15DrawSliderTicksER4wxDCRK6wxRecti13wxOrientationiiiil
_ZN18wxDelegateRenderer15DrawStatusFieldER4wxDCRK6wxRectRK8wxStringii
_ZN18wxDelegateRenderer15GetComboBitmapsEP8wxBitmapS1_S1_S1_
_ZN18wxDelegateRenderer16DrawButtonBorderER4wxDCRK6wxRectiPS2_
_ZN18wxDelegateRenderer16DrawHeaderButtonEP8wxWindowR4wxDCRK6wxRecti20wxHeaderSortIconTypeP20wxHeaderButtonParams
_ZN18wxDelegateRenderer16DrawLineWrapMarkER4wxDCRK6wxRect
_ZN18wxDelegateRenderer16DrawScrollCornerER4wxDCRK6wxRect
_ZN18wxDelegateRenderer16DrawVerticalLineER4wxDCiii
_ZN18wxDelegateRenderer17DrawButtonSurfaceER4wxDCRK8wxColourRK6wxRecti
_ZN18wxDelegateRenderer17DrawFrameTitleBarER4wxDCRK6wxRectRK8wxStringRK6wxIconiii
_ZN18wxDelegateRenderer17DrawMenuSeparatorER4wxDCiRK18wxMenuGeometryInfo
_ZN18wxDelegateRenderer17DrawToolBarButtonER4wxDCRK8wxStringRK8wxBitmapRK6wxRectili
_ZN18wxDelegateRenderer18DrawHorizontalLineER4wxDCiii
_ZN18wxDelegateRenderer18DrawScrollbarArrowER4wxDC11wxDirectionRK6wxRecti
_ZN18wxDelegateRenderer18DrawScrollbarShaftER4wxDC13wxOrientationRK6wxRecti
_ZN18wxDelegateRenderer18DrawScrollbarThumbER4wxDC13wxOrientationRK6wxRecti
_ZN18wxDelegateRenderer18DrawTreeItemButtonEP8wxWindowR4wxDCRK6wxRecti
_ZN18wxDelegateRenderer19DrawFrameBackgroundER4wxDCRK6wxRecti
_ZN18wxDelegateRenderer20GetListboxItemHeightEi
_ZN18wxDelegateRenderer7DrawTabER4wxDCRK6wxRect11wxDirectionRK8wxStringRK8wxBitmapii
_ZN18wxDelegateRenderer8DrawItemER4wxDCRK8wxStringRK6wxRecti
_ZN18wxDelegateRenderer9DrawArrowER4wxDC11wxDirectionRK6wxRecti
_ZN18wxDelegateRenderer9DrawFrameER4wxDCRK8wxStringRK6wxRectiii
_ZN18wxDelegateRenderer9DrawLabelER4wxDCRK8wxStringRK6wxRectiiiPS5_
_ZN18wxDelegateRendererC1EP10wxRenderer
_ZN18wxDelegateRendererC2EP10wxRenderer
_ZN18wxDelegateRendererC5EP10wxRenderer
_ZN18wxDelegateRendererD0Ev
_ZN18wxDelegateRendererD1Ev
_ZN18wxDelegateRendererD2Ev
_ZN18wxDelegateRendererD5Ev
_ZN18wxDialogXmlHandler12ms_classInfoE
_ZN18wxDialogXmlHandler14wxCreateObjectEv
_ZN18wxDialogXmlHandler16DoCreateResourceEv
_ZN18wxDialogXmlHandler9CanHandleEP9wxXmlNode
_ZN18wxDialogXmlHandlerC1Ev
_ZN18wxDialogXmlHandlerC2Ev
_ZN18wxDialogXmlHandlerD0Ev
_ZN18wxDialogXmlHandlerD1Ev
_ZN18wxDialogXmlHandlerD2Ev
_ZN18wxDialogXmlHandlerD5Ev
_ZN18wxDocMDIChildFrame10OnActivateER15wxActivateEvent
_ZN18wxDocMDIChildFrame12ms_classInfoE
_ZN18wxDocMDIChildFrame12ProcessEventER7wxEvent
_ZN18wxDocMDIChildFrame13OnCloseWindowER12wxCloseEvent
_ZN18wxDocMDIChildFrame13sm_eventTableE
_ZN18wxDocMDIChildFrame17sm_eventHashTableE
_ZN18wxDocMDIChildFrame20sm_eventTableEntriesE
_ZN18wxDocMDIChildFrame4InitEv
_ZN18wxDocMDIChildFrame6CreateEP10wxDocumentP6wxViewP16wxMDIParentFrameiRK8wxStringRK7wxPointRK6wxSizelS8_
_ZN18wxDocMDIChildFrame7DestroyEv
_ZN18wxDocMDIChildFrameC1EP10wxDocumentP6wxViewP16wxMDIParentFrameiRK8wxStringRK7wxPointRK6wxSizelS8_
_ZN18wxDocMDIChildFrameC1Ev
_ZN18wxDocMDIChildFrameC2EP10wxDocumentP6wxViewP16wxMDIParentFrameiRK8wxStringRK7wxPointRK6wxSizelS8_
_ZN18wxDocMDIChildFrameC2Ev
_ZN18wxDocMDIChildFrameD0Ev
_ZN18wxDocMDIChildFrameD1Ev
_ZN18wxDocMDIChildFrameD2Ev
_ZN18wxEventLoopTiedPtrC1EPP11wxEventLoopS1_
_ZN18wxEventLoopTiedPtrC2EPP11wxEventLoopS1_
_ZN18wxEventLoopTiedPtrC5EPP11wxEventLoopS1_
_ZN18wxEventLoopTiedPtrD1Ev
_ZN18wxEventLoopTiedPtrD2Ev
_ZN18wxEventLoopTiedPtrD5Ev
_ZN18wxFFileInputStream9OnSysReadEPvm
