
activate_link
activate_link.cold
adjustmentChanged
AdjustRangeValue
afterLayout
arrow_button_press_event
arrow_toggled
async_targets_selection_received
async_targets_selection_received.cold
au_apply_tag_callback
au_check_range
au_check_range.cold
au_delete_range_callback
auilib_auibar.o:
auilib_auibook.o:
auilib_dockart.o:
auilib_floatpane.o:
auilib_framemanager.o:
auilib_tabart.o:
auilib_tabmdi.o:
auilib_xh_aui.o:
auilib_xh_auitoolb.o:
au_insert_text_callback
baselib_any.o:
baselib_appbase.o:
baselib_appunix.o:
baselib_arcall.o:
baselib_arcfind.o:
baselib_archive.o:
baselib_arrstr.o:
baselib_base64.o:
baselib_clntdata.o:
baselib_cmdline.o:
baselib_common_secretstore.o:
baselib_common_uilocale.o:
baselib_config.o:
baselib_convauto.o:
baselib_datetimefmt.o:
baselib_datetime.o:
baselib_datstrm.o:
baselib_dircmn.o:
baselib_dlunix.o:
baselib_dynlib.o:
baselib_dynload.o:
baselib_encconv.o:
baselib_epolldispatcher.o:
baselib_event.o:
baselib_evtloopcmn.o:
baselib_evtloopunix.o:
baselib_extended.o:
baselib_fdiodispatcher.o:
baselib_fdiounix.o:
baselib_ffile.o:
baselib_fileback.o:
baselib_fileconf.o:
baselib_filefn.o:
baselib_filename.o:
baselib_file.o:
baselib_filesys.o:
baselib_filtall.o:
baselib_filtfind.o:
baselib_fmapbase.o:
baselib_fs_arc.o:
baselib_fs_filter.o:
baselib_fs_mem.o:
baselib_fswatchercmn.o:
baselib_fswatcherg.o:
baselib_fswatcher_inotify.o:
baselib_fswatcher_kqueue.o:
baselib_hashmap.o:
baselib_hash.o:
baselib_init.o:
baselib_intl.o:
baselib_ipcbase.o:
baselib_languageinfo.o:
baselib_list.o:
baselib_log.o:
baselib_longlong.o:
baselib_lzmastream.o:
baselib_memory.o:
baselib_mimecmn.o:
baselib_module.o:
baselib_msgout.o:
baselib_mstream.o:
baselib_numformatter.o:
baselib_object.o:
baselib_platinfo.o:
baselib_powercmn.o:
baselib_process.o:
baselib_regex.o:
baselib_selectdispatcher.o:
baselib_sstream.o:
baselib_stdpbase.o:
baselib_stdstream.o:
baselib_stopwatch.o:
baselib_strconv.o:
baselib_stream.o:
baselib_stringimpl.o:
baselib_string.o:
baselib_stringops.o:
baselib_strvararg.o:
baselib_sysopt.o:
baselib_tarstrm.o:
baselib_textbuf.o:
baselib_textfile.o:
baselib_threadinfo.o:
baselib_threadpsx.o:
baselib_time.o:
baselib_timercmn.o:
baselib_timerimpl.o:
baselib_timerunx.o:
baselib_tokenzr.o:
baselib_translation.o:
baselib_txtstrm.o:
baselib_unichar.o:
baselib_unix_dir.o:
baselib_unix_mimetype.o:
baselib_unix_secretstore.o:
baselib_unix_snglinst.o:
baselib_unix_stackwalk.o:
baselib_unix_stdpaths.o:
baselib_unix_uilocale.o:
baselib_uri.o:
baselib_ustring.o:
baselib_utilscmn.o:
baselib_utilsunx.o:
baselib_variant.o:
baselib_wakeuppipe.o:
baselib_wfstream.o:
baselib_wxcrt.o:
baselib_wxprintf.o:
baselib_xlocale.o:
baselib_xti.o:
baselib_xtistrm.o:
baselib_zipstrm.o:
baselib_zstream.o:
before_resize
button_press_event
button_release_event
can_activate_accel
child_attached
child_detached
class_init
CommentHnd
CommentHnd.cold
CompareCharsetItems
corelib_aboutdlgg.o:
corelib_accelcmn.o:
corelib_accesscmn.o:
corelib_addremovectrl.o:
corelib_affinematrix2d.o:
corelib_anidecod.o:
corelib_animatecmn.o:
corelib_animateg.o:
corelib_animate.o:
corelib_appcmn.o:
corelib_artgtk.o:
corelib_artprov.o:
corelib_artstd.o:
corelib_arttango.o:
corelib_assertdlg_gtk.o:
corelib_bannerwindow.o:
corelib_bmpbase.o:
corelib_bmpbtncmn.o:
corelib_bmpcboxcmn.o:
corelib_bmpcboxg.o:
corelib_bmpsvg.o:
corelib_bookctrl.o:
corelib_btncmn.o:
corelib_busyinfo.o:
corelib_buttonbar.o:
corelib_cairo.o:
corelib_calctrlcmn.o:
corelib_calctrlg.o:
corelib_checkboxcmn.o:
corelib_checklstcmn.o:
corelib_choicbkg.o:
corelib_choiccmn.o:
corelib_choicdgg.o:
corelib_clipcmn.o:
corelib_clrpickercmn.o:
corelib_cmdproc.o:
corelib_cmndata.o:
corelib_collheaderctrlg.o:
corelib_collpane.o:
corelib_colourcmn.o:
corelib_colourdata.o:
corelib_combocmn.o:
corelib_combog.o:
corelib_commandlinkbuttong.o:
corelib_common_bmpbndl.o:
corelib_common_ctrlsub.o:
corelib_containr.o:
corelib_creddlgg.o:
corelib_cshelp.o:
corelib_ctrlcmn.o:
corelib_datavcmn.o:
corelib_datavgen.o:
corelib_datectlg.o:
corelib_dcbase.o:
corelib_dcbufcmn.o:
corelib_dcgraph.o:
corelib_dcpsg.o:
corelib_dcsvg.o:
corelib_dirctrlcmn.o:
corelib_dirctrlg.o:
corelib_dlgcmn.o:
corelib_dndcmn.o:
corelib_dobjcmn.o:
corelib_docmdi.o:
corelib_docview.o:
corelib_dpycmn.o:
corelib_dragimgg.o:
corelib_dseldlg.o:
corelib_editlbox.o:
corelib_effects.o:
corelib_event.o:
corelib_fddlgcmn.o:
corelib_filectrlcmn.o:
corelib_filectrlg.o:
corelib_filectrl.o:
corelib_filehistorycmn.o:
corelib_filehistory.o:
corelib_filepickercmn.o:
corelib_filepickerg.o:
corelib_filepicker.o:
corelib_fldlgcmn.o:
corelib_fontcmn.o:
corelib_fontdata.o:
corelib_fontenumcmn.o:
corelib_fontmap.o:
corelib_fontpickercmn.o:
corelib_fontpicker.o:
corelib_fontutilcmn.o:
corelib_framecmn.o:
corelib_fs_mem.o:
corelib_gaugecmn.o:
corelib_gbsizer.o:
corelib_gdicmn.o:
corelib_generic_accel.o:
corelib_generic_caret.o:
corelib_generic_fdrepdlg.o:
corelib_generic_icon.o:
corelib_generic_imaglist.o:
corelib_generic_infobar.o:
corelib_generic_listctrl.o:
corelib_generic_statusbr.o:
corelib_geometry.o:
corelib_gifdecod.o:
corelib_graphcmn.o:
corelib_graphicc.o:
corelib_gridcmn.o:
corelib_gridctrl.o:
corelib_grideditors.o:
corelib_grid.o:
corelib_gridsel.o:
corelib_gtk_aboutdlg.o:
corelib_gtk_activityindicator.o:
corelib_gtk_anybutton.o:
corelib_gtk_app.o:
corelib_gtk_bitmap.o:
corelib_gtk_bmpbuttn.o:
corelib_gtk_bmpcbox.o:
corelib_gtk_brush.o:
corelib_gtk_button.o:
corelib_gtk_calctrl.o:
corelib_gtk_checkbox.o:
corelib_gtk_checklst.o:
corelib_gtk_choice.o:
corelib_gtk_clipbrd.o:
corelib_gtk_clrpicker.o:
corelib_gtk_colordlg.o:
corelib_gtk_colour.o:
corelib_gtk_combobox.o:
corelib_gtk_control.o:
corelib_gtk_cursor.o:
corelib_gtk_dataobj.o:
corelib_gtk_dataview.o:
corelib_gtk_dc.o:
corelib_gtk_dialog.o:
corelib_gtk_dirdlg.o:
corelib_gtk_display.o:
corelib_gtk_dnd.o:
corelib_gtk_evtloop.o:
corelib_gtk_filedlg.o:
corelib_gtk_fontdlg.o:
corelib_gtk_font.o:
corelib_gtk_frame.o:
corelib_gtk_gauge.o:
corelib_gtk_hyperlink.o:
corelib_gtk_infobar.o:
corelib_gtk_listbox.o:
corelib_gtk_mdi.o:
corelib_gtk_menu.o:
corelib_gtk_minifram.o:
corelib_gtk_mnemonics.o:
corelib_gtk_msgdlg.o:
corelib_gtk_nativewin.o:
corelib_gtk_nonownedwnd.o:
corelib_gtk_notebook.o:
corelib_gtk_notifmsg.o:
corelib_gtk_overlay.o:
corelib_gtk_pen.o:
corelib_gtk_popupwin.o:
corelib_gtk_radiobox.o:
corelib_gtk_radiobut.o:
corelib_gtk_region.o:
corelib_gtk_renderer.o:
corelib_gtk_scrolbar.o:
corelib_gtk_scrolwin.o:
corelib_gtk_settings.o:
corelib_gtk_slider.o:
corelib_gtk_sockgtk.o:
corelib_gtk_spinbutt.o:
corelib_gtk_spinctrl.o:
corelib_gtk_srchctrl.o:
corelib_gtk_statbmp.o:
corelib_gtk_statbox.o:
corelib_gtk_statline.o:
corelib_gtk_stattext.o:
corelib_gtk_taskbar.o:
corelib_gtk_textctrl.o:
corelib_gtk_textentry.o:
corelib_gtk_textmeasure.o:
corelib_gtk_tglbtn.o:
corelib_gtk_timer.o:
corelib_gtk_toolbar.o:
corelib_gtk_tooltip.o:
corelib_gtk_toplevel.o:
corelib_gtk_utilsgtk.o:
corelib_gtk_window.o:
corelib_gtk_win_gtk.o:
corelib_gvfs.o:
corelib_headercolcmn.o:
corelib_headerctrlcmn.o:
corelib_headerctrlg.o:
corelib_helpbase.o:
corelib_helpext.o:
corelib_hyperlinkg.o:
corelib_hyperlnkcmn.o:
corelib_iconbndl.o:
corelib_imagall.o:
corelib_imagbmp.o:
corelib_image_gtk.o:
corelib_image.o:
corelib_imagfill.o:
corelib_imaggif.o:
corelib_imagiff.o:
corelib_imagjpeg.o:
corelib_imagpcx.o:
corelib_imagpng.o:
corelib_imagpnm.o:
corelib_imagtga.o:
corelib_imagtiff.o:
corelib_imagxpm.o:
corelib_layout.o:
corelib_laywin.o:
corelib_lboxcmn.o:
corelib_listbkg.o:
corelib_listctrlcmn.o:
corelib_logg.o:
corelib_markupparser.o:
corelib_markuptext.o:
corelib_matrix.o:
corelib_menucmn.o:
corelib_mimetype.o:
corelib_modalhook.o:
corelib_mousemanager.o:
corelib_msgdlgg.o:
corelib_msgout.o:
corelib_nbkbase.o:
corelib_notifmsgcmn.o:
corelib_notifmsgg.o:
corelib_numdlgg.o:
corelib_odcombocmn.o:
corelib_odcombo.o:
corelib_overlaycmn.o:
corelib_ownerdrwcmn.o:
corelib_paletteg.o:
corelib_panelcmn.o:
corelib_paper.o:
corelib_persist.o:
corelib_pickerbase.o:
corelib_popupcmn.o:
corelib_preferencescmn.o:
corelib_preferencesg.o:
corelib_print.o:
corelib_printps.o:
corelib_private.o:
corelib_prntbase.o:
corelib_prntdlgg.o:
corelib_progdlgg.o:
corelib_propdlg.o:
corelib_quantize.o:
corelib_radiobtncmn.o:
corelib_radiocmn.o:
corelib_rearrangectrl.o:
corelib_rendcmn.o:
corelib_renderg.o:
corelib_rgncmn.o:
corelib_richmsgdlgg.o:
corelib_richtooltipcmn.o:
corelib_richtooltipg.o:
corelib_rowheightcache.o:
corelib_sashwin.o:
corelib_scrlwing.o:
corelib_scrolbarcmn.o:
corelib_selstore.o:
corelib_settcmn.o:
corelib_sizer.o:
corelib_slidercmn.o:
corelib_sound_sdl.o:
corelib_spinbtncmn.o:
corelib_spinctlg.o:
corelib_spinctrlcmn.o:
corelib_splash.o:
corelib_splitter.o:
corelib_srchcmn.o:
corelib_srchctlg.o:
corelib_statbar.o:
corelib_statbmpcmn.o:
corelib_statbmpg.o:
corelib_statboxcmn.o:
corelib_statlinecmn.o:
corelib_stattextcmn.o:
corelib_stattextg.o:
corelib_stockitem.o:
corelib_taskbarcmn.o:
corelib_taskbarx11.o:
corelib_tbarbase.o:
corelib_textcmn.o:
corelib_textdlgg.o:
corelib_textentrycmn.o:
corelib_textmeasurecmn.o:
corelib_timectrlg.o:
corelib_tipdlg.o:
corelib_tipwin.o:
corelib_toolbkg.o:
corelib_toplvcmn.o:
corelib_treebase.o:
corelib_treebkg.o:
corelib_treectlg.o:
corelib_treeentry_gtk.o:
corelib_treelist.o:
corelib_uiactioncmn.o:
corelib_uiactionx11.o:
corelib_unix_apptraits.o:
corelib_unix_dialup.o:
corelib_unix_fontenum.o:
corelib_unix_fontutil.o:
corelib_unix_joystick.o:
corelib_unix_sound.o:
corelib_utilscmn.o:
corelib_utilsx11.o:
corelib_valgen.o:
corelib_validate.o:
corelib_valnum.o:
corelib_valtext.o:
corelib_vlbox.o:
corelib_vscroll.o:
corelib_wincmn.o:
corelib_windowid.o:
corelib_wizard.o:
corelib_wrapsizer.o:
corelib_xmlreshandler.o:
corelib_xpmdecod.o:
CSWTCH.1070
CSWTCH.1351
CSWTCH.1399
CSWTCH.1400
CSWTCH.1412
CSWTCH.182
CSWTCH.183
CSWTCH.307
CSWTCH.333
CSWTCH.337
CSWTCH.345
CSWTCH.360
CSWTCH.367
CSWTCH.383
CSWTCH.385
CSWTCH.386
CSWTCH.417
CSWTCH.494
CSWTCH.511
CSWTCH.541
CSWTCH.543
DefaultHnd
DefaultHnd.cold
draw
draw_border
draw.cold
draw_freeze
DW.ref.__gxx_personality_v0
DW.ref._ZTIN10__cxxabiv115__forced_unwindE
EndCdataHnd
EndDoctypeHnd
EndElementHnd
enter_notify_event
event_after
file_set
file_set.cold
findTitlebar
frame_clock_layout
frame_clock_layout_after
__func__.0
__func__.1
__func__.2
__func__.3
__func__.4
__func__.5
__func__.6
g_blockEventsOnDrag
g_blockEventsOnScroll
g_busyCursor
gdk_pixbuf_area_updated
g_globalCursor
g_inSizeAllocate
g_lastButtonNumber
g_lastMouseEvent
_GLOBAL__sub_I_accelcmn.cpp
_GLOBAL__sub_I_accel.cpp
_GLOBAL__sub_I_activityindicator.cpp
_GLOBAL__sub_I_advprops.cpp
_GLOBAL__sub_I_anidecod.cpp
_GLOBAL__sub_I_animatecmn.cpp
_GLOBAL__sub_I_animate.cpp
_GLOBAL__sub_I_animateg.cpp
_GLOBAL__sub_I_animateg.cpp.cold
_GLOBAL__sub_I_any.cpp
_GLOBAL__sub_I_appbase.cpp
_GLOBAL__sub_I_appcmn.cpp
_GLOBAL__sub_I_app.cpp
_GLOBAL__sub_I_archive.cpp
_GLOBAL__sub_I_artgtk.cpp
_GLOBAL__sub_I_artgtk.cpp.cold
_GLOBAL__sub_I_artprov.cpp
_GLOBAL__sub_I_auibar.cpp
_GLOBAL__sub_I_auibar.cpp.cold
_GLOBAL__sub_I_auibook.cpp
_GLOBAL__sub_I_auibook.cpp.cold
_GLOBAL__sub_I_bannerwindow.cpp
_GLOBAL__sub_I_bannerwindow.cpp.cold
_GLOBAL__sub_I_bar.cpp
_GLOBAL__sub_I_bar.cpp.cold
_GLOBAL__sub_I_bitmap.cpp
_GLOBAL__sub_I_bmpbase.cpp
_GLOBAL__sub_I_bmpbndl.cpp
_GLOBAL__sub_I_bmpbtncmn.cpp
_GLOBAL__sub_I_bmpcboxcmn.cpp
_GLOBAL__sub_I_bmpcbox.cpp
_GLOBAL__sub_I_bmpcboxg.cpp
_GLOBAL__sub_I_bookctrl.cpp
_GLOBAL__sub_I_bookctrl.cpp.cold
_GLOBAL__sub_I_brush.cpp
_GLOBAL__sub_I_btncmn.cpp
_GLOBAL__sub_I_buttonbar.cpp
_GLOBAL__sub_I_buttonbar.cpp.cold
_GLOBAL__sub_I_calctrlcmn.cpp
_GLOBAL__sub_I_calctrlg.cpp
_GLOBAL__sub_I_calctrlg.cpp.cold
_GLOBAL__sub_I_checkboxcmn.cpp
_GLOBAL__sub_I_checklstcmn.cpp
_GLOBAL__sub_I_choicbkg.cpp
_GLOBAL__sub_I_choiccmn.cpp
_GLOBAL__sub_I_choicdgg.cpp
_GLOBAL__sub_I_choicdgg.cpp.cold
_GLOBAL__sub_I_clipbrd.cpp
_GLOBAL__sub_I_clipcmn.cpp
_GLOBAL__sub_I_clrpickercmn.cpp
_GLOBAL__sub_I_clrpicker.cpp
_GLOBAL__sub_I_cmdproc.cpp
_GLOBAL__sub_I_cmndata.cpp
_GLOBAL__sub_I_collheaderctrlg.cpp
_GLOBAL__sub_I_collpane.cpp
_GLOBAL__sub_I_colordlg.cpp
_GLOBAL__sub_I_colourcmn.cpp
_GLOBAL__sub_I_colourdata.cpp
_GLOBAL__sub_I_combobox.cpp
_GLOBAL__sub_I_combobox.cpp.cold
_GLOBAL__sub_I_combocmn.cpp
_GLOBAL__sub_I_combocmn.cpp.cold
_GLOBAL__sub_I_combog.cpp
_GLOBAL__sub_I_combog.cpp.cold
_GLOBAL__sub_I_commandlinkbuttong.cpp
_GLOBAL__sub_I_config.cpp
_GLOBAL__sub_I_control.cpp
_GLOBAL__sub_I_creddlgg.cpp
_GLOBAL__sub_I_cshelp.cpp
_GLOBAL__sub_I_ctrlsub.cpp
_GLOBAL__sub_I_cursor.cpp
_GLOBAL__sub_I_dataobj.cpp
_GLOBAL__sub_I_datavcmn.cpp
_GLOBAL__sub_I_datavcmn.cpp.cold
_GLOBAL__sub_I_datavgen.cpp
_GLOBAL__sub_I_dataview.cpp
_GLOBAL__sub_I_datectlg.cpp
_GLOBAL__sub_I_datectlg.cpp.cold
_GLOBAL__sub_I_datetime.cpp
_GLOBAL__sub_I_dbgrptg.cpp
_GLOBAL__sub_I_dbgrptg.cpp.cold
_GLOBAL__sub_I_dcbase.cpp
_GLOBAL__sub_I_dcbufcmn.cpp
_GLOBAL__sub_I_dcgraph.cpp
_GLOBAL__sub_I_dcpsg.cpp
_GLOBAL__sub_I_dcsvg.cpp
_GLOBAL__sub_I_debugrpt.cpp
_GLOBAL__sub_I_dialup.cpp
_GLOBAL__sub_I_dirctrlcmn.cpp
_GLOBAL__sub_I_dirctrlg.cpp
_GLOBAL__sub_I_dirctrlg.cpp.cold
_GLOBAL__sub_I_dirdlg.cpp
_GLOBAL__sub_I_dlgcmn.cpp
_GLOBAL__sub_I_dlgcmn.cpp.cold
_GLOBAL__sub_I_dobjcmn.cpp
_GLOBAL__sub_I_docmdi.cpp
_GLOBAL__sub_I_docview.cpp
_GLOBAL__sub_I_docview.cpp.cold
_GLOBAL__sub_I_dpycmn.cpp
_GLOBAL__sub_I_dragimgg.cpp
_GLOBAL__sub_I_dynload.cpp
_GLOBAL__sub_I_editlbox.cpp
_GLOBAL__sub_I_editlbox.cpp.cold
_GLOBAL__sub_I_editors.cpp
_GLOBAL__sub_I_editors.cpp.cold
_GLOBAL__sub_I_event.cpp
_GLOBAL__sub_I_fddlgcmn.cpp
_GLOBAL__sub_I_fdiodispatcher.cpp
_GLOBAL__sub_I_fdrepdlg.cpp
_GLOBAL__sub_I_fdrepdlg.cpp.cold
_GLOBAL__sub_I_fileconf.cpp
_GLOBAL__sub_I_filectrlcmn.cpp
_GLOBAL__sub_I_filectrl.cpp
_GLOBAL__sub_I_filectrlg.cpp
_GLOBAL__sub_I_filectrlg.cpp.cold
_GLOBAL__sub_I_filedlg.cpp
_GLOBAL__sub_I_filedlg.cpp.cold
_GLOBAL__sub_I_filefn.cpp
_GLOBAL__sub_I_filehistorycmn.cpp
_GLOBAL__sub_I_filename.cpp
_GLOBAL__sub_I_filepickercmn.cpp
_GLOBAL__sub_I_filepicker.cpp
_GLOBAL__sub_I_filepickerg.cpp
_GLOBAL__sub_I_filesys.cpp
_GLOBAL__sub_I_fldlgcmn.cpp
_GLOBAL__sub_I_floatpane.cpp
_GLOBAL__sub_I_floatpane.cpp.cold
_GLOBAL__sub_I_fmapbase.cpp
_GLOBAL__sub_I_fontcmn.cpp
_GLOBAL__sub_I_font.cpp
_GLOBAL__sub_I_fontdata.cpp
_GLOBAL__sub_I_fontdlg.cpp
_GLOBAL__sub_I_fontenumcmn.cpp
_GLOBAL__sub_I_fontpickercmn.cpp
_GLOBAL__sub_I_fontpicker.cpp
_GLOBAL__sub_I_framecmn.cpp
_GLOBAL__sub_I_framecmn.cpp.cold
_GLOBAL__sub_I_framemanager.cpp
_GLOBAL__sub_I_framemanager.cpp.cold
_GLOBAL__sub_I_fs_arc.cpp
_GLOBAL__sub_I_fs_inet.cpp
_GLOBAL__sub_I_fs_mem.cpp
_GLOBAL__sub_I_fswatchercmn.cpp
_GLOBAL__sub_I_ftp.cpp
_GLOBAL__sub_I_gallery.cpp
_GLOBAL__sub_I_gallery.cpp.cold
_GLOBAL__sub_I_gaugecmn.cpp
_GLOBAL__sub_I_gbsizer.cpp
_GLOBAL__sub_I_gdicmn.cpp
_GLOBAL__sub_I_graphcmn.cpp
_GLOBAL__sub_I_graphicc.cpp
_GLOBAL__sub_I_gridcmn.cpp
_GLOBAL__sub_I_grid.cpp
_GLOBAL__sub_I_grid.cpp.cold
_GLOBAL__sub_I_gridctrl.cpp
_GLOBAL__sub_I_grideditors.cpp
_GLOBAL__sub_I_grideditors.cpp.cold
_GLOBAL__sub_I_headerctrlcmn.cpp
_GLOBAL__sub_I_headerctrlcmn.cpp.cold
_GLOBAL__sub_I_headerctrlg.cpp
_GLOBAL__sub_I_headerctrlg.cpp.cold
_GLOBAL__sub_I_helpbase.cpp
_GLOBAL__sub_I_helpctrl.cpp
_GLOBAL__sub_I_helpdata.cpp
_GLOBAL__sub_I_helpdlg.cpp
_GLOBAL__sub_I_helpext.cpp
_GLOBAL__sub_I_helpfrm.cpp
_GLOBAL__sub_I_helpfrm.cpp.cold
_GLOBAL__sub_I_helpwnd.cpp
_GLOBAL__sub_I_helpwnd.cpp.cold
_GLOBAL__sub_I_htmlcell.cpp
_GLOBAL__sub_I_htmlfilt.cpp
_GLOBAL__sub_I_htmllbox.cpp
_GLOBAL__sub_I_htmllbox.cpp.cold
_GLOBAL__sub_I_htmlpars.cpp
_GLOBAL__sub_I_htmlwin.cpp
_GLOBAL__sub_I_htmlwin.cpp.cold
_GLOBAL__sub_I_htmprint.cpp
_GLOBAL__sub_I_http.cpp
_GLOBAL__sub_I_hyperlnkcmn.cpp
_GLOBAL__sub_I_iconbndl.cpp
_GLOBAL__sub_I_icon.cpp
_GLOBAL__sub_I_imagbmp.cpp
_GLOBAL__sub_I_image.cpp
_GLOBAL__sub_I_imaggif.cpp
_GLOBAL__sub_I_imagiff.cpp
_GLOBAL__sub_I_imagjpeg.cpp
_GLOBAL__sub_I_imaglist.cpp
_GLOBAL__sub_I_imagpcx.cpp
_GLOBAL__sub_I_imagpng.cpp
_GLOBAL__sub_I_imagpnm.cpp
_GLOBAL__sub_I_imagtga.cpp
_GLOBAL__sub_I_imagtiff.cpp
_GLOBAL__sub_I_imagxpm.cpp
_GLOBAL__sub_I_infobar.cpp
_GLOBAL__sub_I_init.cpp
_GLOBAL__sub_I_intl.cpp
_GLOBAL__sub_I_ipcbase.cpp
_GLOBAL__sub_I_joystick.cpp
_GLOBAL__sub_I_languageinfo.cpp
_GLOBAL__sub_I_layout.cpp
_GLOBAL__sub_I_laywin.cpp
_GLOBAL__sub_I_laywin.cpp.cold
_GLOBAL__sub_I_lboxcmn.cpp
_GLOBAL__sub_I_listbkg.cpp
_GLOBAL__sub_I_listbkg.cpp.cold
_GLOBAL__sub_I_list.cpp
_GLOBAL__sub_I_listctrlcmn.cpp
_GLOBAL__sub_I_listctrl.cpp
_GLOBAL__sub_I_listctrl.cpp.cold
_GLOBAL__sub_I_log.cpp
_GLOBAL__sub_I_log.cpp.cold
_GLOBAL__sub_I_logg.cpp
_GLOBAL__sub_I_logg.cpp.cold
_GLOBAL__sub_I_longlong.cpp
_GLOBAL__sub_I_manager.cpp
_GLOBAL__sub_I_manager.cpp.cold
_GLOBAL__sub_I_m_dflist.cpp
_GLOBAL__sub_I_mdi.cpp
_GLOBAL__sub_I_mdi.cpp.cold
_GLOBAL__sub_I_menucmn.cpp
_GLOBAL__sub_I_m_fonts.cpp
_GLOBAL__sub_I_m_hline.cpp
_GLOBAL__sub_I_m_image.cpp
_GLOBAL__sub_I_mimecmn.cpp
_GLOBAL__sub_I_minifram.cpp
_GLOBAL__sub_I_m_layout.cpp
_GLOBAL__sub_I_m_links.cpp
_GLOBAL__sub_I_m_list.cpp
_GLOBAL__sub_I_modalhook.cpp
_GLOBAL__sub_I_module.cpp
_GLOBAL__sub_I_mousemanager.cpp
_GLOBAL__sub_I_mousemanager.cpp.cold
_GLOBAL__sub_I_m_pre.cpp
_GLOBAL__sub_I_msgdlg.cpp
_GLOBAL__sub_I_msgdlgg.cpp
_GLOBAL__sub_I_msgdlgg.cpp.cold
_GLOBAL__sub_I_m_span.cpp
_GLOBAL__sub_I_mstream.cpp
_GLOBAL__sub_I_m_style.cpp
_GLOBAL__sub_I_m_tables.cpp
_GLOBAL__sub_I_nbkbase.cpp
_GLOBAL__sub_I_notebook.cpp
_GLOBAL__sub_I_notifmsgcmn.cpp
_GLOBAL__sub_I_notifmsgg.cpp
_GLOBAL__sub_I_notifmsgg.cpp.cold
_GLOBAL__sub_I_numdlgg.cpp
_GLOBAL__sub_I_numdlgg.cpp.cold
_GLOBAL__sub_I_object.cpp
_GLOBAL__sub_I_odcombocmn.cpp
_GLOBAL__sub_I_odcombo.cpp
_GLOBAL__sub_I_odcombo.cpp.cold
_GLOBAL__sub_I_page.cpp
_GLOBAL__sub_I_page.cpp.cold
_GLOBAL__sub_I_paletteg.cpp
_GLOBAL__sub_I_panelcmn.cpp
_GLOBAL__sub_I_panel.cpp
_GLOBAL__sub_I_panel.cpp.cold
_GLOBAL__sub_I_paper.cpp
_GLOBAL__sub_I_pen.cpp
_GLOBAL__sub_I_pickerbase.cpp
_GLOBAL__sub_I_platinfo.cpp
_GLOBAL__sub_I_PlatWX.cpp
_GLOBAL__sub_I_popupcmn.cpp
_GLOBAL__sub_I_popupcmn.cpp.cold
_GLOBAL__sub_I_print.cpp
_GLOBAL__sub_I_printps.cpp
_GLOBAL__sub_I_private.cpp
_GLOBAL__sub_I_prntbase.cpp
_GLOBAL__sub_I_prntbase.cpp.cold
_GLOBAL__sub_I_prntdlgg.cpp
_GLOBAL__sub_I_prntdlgg.cpp.cold
_GLOBAL__sub_I_process.cpp
_GLOBAL__sub_I_progdlgg.cpp
_GLOBAL__sub_I_progdlgg.cpp.cold
_GLOBAL__sub_I_propdlg.cpp
_GLOBAL__sub_I_property.cpp
_GLOBAL__sub_I_propgrid.cpp
_GLOBAL__sub_I_propgrid.cpp.cold
_GLOBAL__sub_I_propgridiface.cpp
_GLOBAL__sub_I_props.cpp
_GLOBAL__sub_I_props.cpp.cold
_GLOBAL__sub_I_protocol.cpp
_GLOBAL__sub_I_quantize.cpp
_GLOBAL__sub_I_radiobox.cpp
_GLOBAL__sub_I_radiobtncmn.cpp
_GLOBAL__sub_I_radiocmn.cpp
_GLOBAL__sub_I_rearrangectrl.cpp
_GLOBAL__sub_I_rearrangectrl.cpp.cold
_GLOBAL__sub_I_region.cpp
_GLOBAL__sub_I_renderg.cpp
_GLOBAL__sub_I_richmsgdlgg.cpp
_GLOBAL__sub_I_richtextbuffer.cpp
_GLOBAL__sub_I_richtextctrl.cpp
_GLOBAL__sub_I_richtextctrl.cpp.cold
_GLOBAL__sub_I_richtextformatdlg.cpp
_GLOBAL__sub_I_richtextformatdlg.cpp.cold
_GLOBAL__sub_I_richtexthtml.cpp
_GLOBAL__sub_I_richtextimagedlg.cpp
_GLOBAL__sub_I_richtextprint.cpp
_GLOBAL__sub_I_richtextstyledlg.cpp
_GLOBAL__sub_I_richtextstyledlg.cpp.cold
_GLOBAL__sub_I_richtextstyles.cpp
_GLOBAL__sub_I_richtextstyles.cpp.cold
_GLOBAL__sub_I_richtextsymboldlg.cpp
_GLOBAL__sub_I_richtextsymboldlg.cpp.cold
_GLOBAL__sub_I_richtextxml.cpp
_GLOBAL__sub_I_sashwin.cpp
_GLOBAL__sub_I_sashwin.cpp.cold
_GLOBAL__sub_I_ScintillaWX.cpp
_GLOBAL__sub_I_sckaddr.cpp
_GLOBAL__sub_I_sckfile.cpp
_GLOBAL__sub_I_sckipc.cpp
_GLOBAL__sub_I_sckipc.cpp.cold
_GLOBAL__sub_I_scrlwing.cpp
_GLOBAL__sub_I_scrolbarcmn.cpp
_GLOBAL__sub_I_settings.cpp
_GLOBAL__sub_I_sizer.cpp
_GLOBAL__sub_I_slidercmn.cpp
_GLOBAL__sub_I_socket.cpp
_GLOBAL__sub_I_socketiohandler.cpp
_GLOBAL__sub_I_sound.cpp
_GLOBAL__sub_I_spinbtncmn.cpp
_GLOBAL__sub_I_spinctlg.cpp
_GLOBAL__sub_I_spinctrlcmn.cpp
_GLOBAL__sub_I_spinctrl.cpp
_GLOBAL__sub_I_splash.cpp
_GLOBAL__sub_I_splash.cpp.cold
_GLOBAL__sub_I_splitter.cpp
_GLOBAL__sub_I_splitter.cpp.cold
_GLOBAL__sub_I_srchcmn.cpp
_GLOBAL__sub_I_srchctlg.cpp
_GLOBAL__sub_I_srchctrl.cpp
_GLOBAL__sub_I_srchctrl.cpp.cold
_GLOBAL__sub_I_stackwalk.cpp
_GLOBAL__sub_I_statbar.cpp
_GLOBAL__sub_I_statbmpcmn.cpp
_GLOBAL__sub_I_statbmpg.cpp
_GLOBAL__sub_I_statboxcmn.cpp
_GLOBAL__sub_I_statlinecmn.cpp
_GLOBAL__sub_I_stattextcmn.cpp
_GLOBAL__sub_I_stattextg.cpp
_GLOBAL__sub_I_statusbr.cpp
_GLOBAL__sub_I_statusbr.cpp.cold
_GLOBAL__sub_I_stc.cpp
_GLOBAL__sub_I_stc.cpp.cold
_GLOBAL__sub_I_stdpbase.cpp
_GLOBAL__sub_I_stdstream.cpp
_GLOBAL__sub_I_stopwatch.cpp
_GLOBAL__sub_I_strconv.cpp
_GLOBAL__sub_I_stream.cpp
_GLOBAL__sub_I_string.cpp
_GLOBAL__sub_I_sysopt.cpp
_GLOBAL__sub_I_tabmdi.cpp
_GLOBAL__sub_I_tabmdi.cpp.cold
_GLOBAL__sub_I_tarstrm.cpp
_GLOBAL__sub_I_taskbarcmn.cpp
_GLOBAL__sub_I_taskbar.cpp
_GLOBAL__sub_I_tbarbase.cpp
_GLOBAL__sub_I_textbuf.cpp
_GLOBAL__sub_I_textcmn.cpp
_GLOBAL__sub_I_textctrl.cpp
_GLOBAL__sub_I_textctrl.cpp.cold
_GLOBAL__sub_I_textdlgg.cpp
_GLOBAL__sub_I_textentrycmn.cpp
_GLOBAL__sub_I_textentry.cpp
_GLOBAL__sub_I_textmeasurecmn.cpp
_GLOBAL__sub_I_tglbtn.cpp
_GLOBAL__sub_I_threadpsx.cpp
_GLOBAL__sub_I_timectrlg.cpp
_GLOBAL__sub_I_timercmn.cpp
_GLOBAL__sub_I_timerunx.cpp
_GLOBAL__sub_I_tipdlg.cpp
_GLOBAL__sub_I_tipwin.cpp
_GLOBAL__sub_I_tipwin.cpp.cold
_GLOBAL__sub_I_toolbar.cpp
_GLOBAL__sub_I_toolbar.cpp.cold
_GLOBAL__sub_I_toolbkg.cpp
_GLOBAL__sub_I_toolbkg.cpp.cold
_GLOBAL__sub_I_tooltip.cpp
_GLOBAL__sub_I_toplvcmn.cpp
_GLOBAL__sub_I_toplvcmn.cpp.cold
_GLOBAL__sub_I_translation.cpp
_GLOBAL__sub_I_treebase.cpp
_GLOBAL__sub_I_treebkg.cpp
_GLOBAL__sub_I_treebkg.cpp.cold
_GLOBAL__sub_I_treectlg.cpp
_GLOBAL__sub_I_treectlg.cpp.cold
_GLOBAL__sub_I_treelist.cpp
_GLOBAL__sub_I_treelist.cpp.cold
_GLOBAL__sub_I_uiactionx11.cpp
_GLOBAL__sub_I_uilocale.cpp
_GLOBAL__sub_I_uri.cpp
_GLOBAL__sub_I_url.cpp
_GLOBAL__sub_I_utilscmn.cpp
_GLOBAL__sub_I_utilsunx.cpp
_GLOBAL__sub_I_valgen.cpp
_GLOBAL__sub_I_validate.cpp
_GLOBAL__sub_I_valnum.cpp
_GLOBAL__sub_I_valnum.cpp.cold
_GLOBAL__sub_I_valtext.cpp
_GLOBAL__sub_I_variant.cpp
_GLOBAL__sub_I_vlbox.cpp
_GLOBAL__sub_I_vlbox.cpp.cold
_GLOBAL__sub_I_vscroll.cpp
_GLOBAL__sub_I_wincmn.cpp
_GLOBAL__sub_I_wincmn.cpp.cold
_GLOBAL__sub_I_window.cpp
_GLOBAL__sub_I_winpars.cpp
_GLOBAL__sub_I_wizard.cpp
_GLOBAL__sub_I_wizard.cpp.cold
_GLOBAL__sub_I_wrapsizer.cpp
_GLOBAL__sub_I_xh_activityindicator.cpp
_GLOBAL__sub_I_xh_animatctrl.cpp
_GLOBAL__sub_I_xh_aui.cpp
_GLOBAL__sub_I_xh_auitoolb.cpp
_GLOBAL__sub_I_xh_bannerwindow.cpp
_GLOBAL__sub_I_xh_bmpbt.cpp
_GLOBAL__sub_I_xh_bmpcbox.cpp
_GLOBAL__sub_I_xh_bmp.cpp
_GLOBAL__sub_I_xh_bttn.cpp
_GLOBAL__sub_I_xh_cald.cpp
_GLOBAL__sub_I_xh_chckb.cpp
_GLOBAL__sub_I_xh_chckl.cpp
_GLOBAL__sub_I_xh_choicbk.cpp
_GLOBAL__sub_I_xh_choic.cpp
_GLOBAL__sub_I_xh_clrpicker.cpp
_GLOBAL__sub_I_xh_cmdlinkbn.cpp
_GLOBAL__sub_I_xh_collpane.cpp
_GLOBAL__sub_I_xh_combo.cpp
_GLOBAL__sub_I_xh_comboctrl.cpp
_GLOBAL__sub_I_xh_dataview.cpp
_GLOBAL__sub_I_xh_datectrl.cpp
_GLOBAL__sub_I_xh_dirpicker.cpp
_GLOBAL__sub_I_xh_dlg.cpp
_GLOBAL__sub_I_xh_editlbox.cpp
_GLOBAL__sub_I_xh_filectrl.cpp
_GLOBAL__sub_I_xh_filepicker.cpp
_GLOBAL__sub_I_xh_fontpicker.cpp
_GLOBAL__sub_I_xh_frame.cpp
_GLOBAL__sub_I_xh_gauge.cpp
_GLOBAL__sub_I_xh_gdctl.cpp
_GLOBAL__sub_I_xh_grid.cpp
_GLOBAL__sub_I_xh_html.cpp
_GLOBAL__sub_I_xh_htmllbox.cpp
_GLOBAL__sub_I_xh_hyperlink.cpp
_GLOBAL__sub_I_xh_infobar.cpp
_GLOBAL__sub_I_xh_listb.cpp
_GLOBAL__sub_I_xh_listbk.cpp
_GLOBAL__sub_I_xh_listc.cpp
_GLOBAL__sub_I_xh_mdi.cpp
_GLOBAL__sub_I_xh_menu.cpp
_GLOBAL__sub_I_xh_notbk.cpp
_GLOBAL__sub_I_xh_odcombo.cpp
_GLOBAL__sub_I_xh_panel.cpp
_GLOBAL__sub_I_xh_propdlg.cpp
_GLOBAL__sub_I_xh_radbt.cpp
_GLOBAL__sub_I_xh_radbx.cpp
_GLOBAL__sub_I_xh_ribbon.cpp
_GLOBAL__sub_I_xh_richtext.cpp
_GLOBAL__sub_I_xh_scrol.cpp
_GLOBAL__sub_I_xh_scwin.cpp
_GLOBAL__sub_I_xh_simplebook.cpp
_GLOBAL__sub_I_xh_sizer.cpp
_GLOBAL__sub_I_xh_slidr.cpp
_GLOBAL__sub_I_xh_spin.cpp
_GLOBAL__sub_I_xh_split.cpp
_GLOBAL__sub_I_xh_srchctrl.cpp
_GLOBAL__sub_I_xh_statbar.cpp
_GLOBAL__sub_I_xh_stbmp.cpp
_GLOBAL__sub_I_xh_stbox.cpp
_GLOBAL__sub_I_xh_stlin.cpp
_GLOBAL__sub_I_xh_sttxt.cpp
_GLOBAL__sub_I_xh_styledtextctrl.cpp
_GLOBAL__sub_I_xh_text.cpp
_GLOBAL__sub_I_xh_tglbtn.cpp
_GLOBAL__sub_I_xh_timectrl.cpp
_GLOBAL__sub_I_xh_toolb.cpp
_GLOBAL__sub_I_xh_toolbk.cpp
_GLOBAL__sub_I_xh_treebk.cpp
_GLOBAL__sub_I_xh_tree.cpp
_GLOBAL__sub_I_xh_unkwn.cpp
_GLOBAL__sub_I_xh_wizrd.cpp
_GLOBAL__sub_I_xlocale.cpp
_GLOBAL__sub_I_xml.cpp
_GLOBAL__sub_I_xmlres.cpp
_GLOBAL__sub_I_xmlreshandler.cpp
_GLOBAL__sub_I_zipstrm.cpp
_GLOBAL__sub_I_zstream.cpp
gtk_assert_dialog_class_init
gtk_assert_dialog_continue_callback
gtk_assert_dialog_copy_callback
gtk_assert_dialog_expander_callback
gtk_assert_dialog_init
gtk_assert_dialog_save_backtrace_callback
gtk_assert_dialog_save_backtrace_callback.cold
gtk_begin_print_callback
gtk_button_press_event
gtk_button_release_event
gtk_changed
gtk_checkbox_toggled_callback
gtk_checkbox_toggled_callback.cold
gtk_checklist_toggled
gtk_checklist_toggled.cold
gtk_choice_changed_callback
gtk_clrbutton_setcolor_callback
gtk_clrbutton_setcolor_callback.cold
gtk_collapsiblepane_expanded_callback
gtk_collapsiblepane_expanded_callback.cold
gtkcombobox_changed_callback
gtkcombobox_popupshown_callback
gtkcombobox_popupshown_callback.cold
gtk_day_selected_callback
gtk_day_selected_double_click_callback
gtk_dialog_delete_callback
gtk_dirdialog_response_callback
gtk_dnd_window_configure_callback
gtk_draw_page_print_callback
gtk_end_print_callback
gtk_event_after
gtk_event_after.cold
gtkfilechooserwidget_file_activated_callback
gtkfilechooserwidget_file_activated_callback.cold
gtkfilechooserwidget_folder_changed_callback
gtkfilechooserwidget_notify_callback
gtkfilechooserwidget_selection_changed_callback
gtkfilechooserwidget_selection_changed_callback.cold
gtk_filedialog_ok_callback
gtk_filedialog_ok_callback.cold
gtk_filedialog_response_callback
gtk_filedialog_response_callback.cold
gtk_filedialog_selchanged_callback
gtk_filedialog_selchanged_callback.cold
gtk_filedialog_update_preview_callback
gtk_filedialog_update_preview_callback.cold
gtk_fontbutton_setfont_callback
gtk_fontbutton_setfont_callback.cold
gtk_format_value
gtk_frame_configure_callback
gtk_frame_delete_callback
gtk_frame_focus_in_callback
gtk_frame_focus_in_callback.cold
gtk_frame_focus_out_callback
gtk_frame_focus_out_callback.cold
gtk_frame_map_callback
gtk_frame_urgency_timer_callback
gtk_frame_window_state_callback
gtk_frame_window_state_callback.cold
gtk_listbox_key_press_callback
gtk_listbox_key_press_callback.cold
gtk_listbox_row_activated_callback
gtk_listitem_changed_callback
gtk_month_changed_callback
gtk_move_slider
gtk_popup_button_press
gtk_popup_button_press.cold
gtk_prev_month_callback
gtk_prev_year_callback
gtk_radiobox_keypress_callback
gtk_radiobox_keypress_callback.cold
gtk_radiobutton_clicked_callback
gtk_radiobutton_clicked_callback.cold
gtk_radiobutton_focus_in
gtk_radiobutton_focus_out
gtk_radiobutton_size_allocate
gtk_scrollbar_button_press_event
gtk_scrollbar_button_release_event
gtk_scrollbar_event_after
gtk_scrollbar_event_after.cold
gtk_scrollbar_value_changed
gtk_scrollbar_value_changed.cold
gtk_textctrl_populate_popup
gtk_textctrl_popup_unmap
gtk_togglebutton_clicked_callback
gtk_togglebutton_clicked_callback.cold
gtk_value_changed
gtk_value_changed.cold
gtk_window_button_press_callback
gtk_window_button_press_callback.cold
gtk_window_button_release_callback
gtk_window_button_release_callback.cold
gtk_window_enter_callback
gtk_window_enter_callback.cold
gtk_window_focus_in_callback
gtk_window_focus_out_callback
gtk_window_grab_broken
gtk_window_key_press_callback
gtk_window_key_press_callback.cold
gtk_window_key_release_callback
gtk_window_key_release_callback.cold
gtk_window_leave_callback
gtk_window_leave_callback.cold
gtk_window_motion_notify_callback
gtk_window_motion_notify_callback.cold
gtk_window_realized_callback
gtk_wx_cell_editor_bin_cell_editable_init
gtk_wx_cell_editor_bin_cell_editable_start_editing
gtk_wx_cell_editor_bin_class_init
gtk_wx_cell_editor_bin_get_property
gtk_wx_cell_editor_bin_set_property
gtk_wx_cell_renderer_activate
gtk_wx_cell_renderer_activate.cold
gtk_wx_cell_renderer_class_init
gtk_wx_cell_renderer_get_size
gtk_wx_cell_renderer_init
gtk_wx_cell_renderer_render
gtk_wx_cell_renderer_start_editing
gtk_wx_cell_renderer_start_editing.cold
gtk_wx_cell_renderer_text_class_init
gtk_wx_cell_renderer_text_init
gtk_wx_cell_renderer_text_start_editing
gtk_wx_cell_renderer_text_start_editing.cold
gtk_wx_tree_model_get_type
gtk_wxwindow_commit_cb
horizontal_pan_gesture_end_callback
horizontal_pan_gesture_end_callback.cold
htmllib_chm.o:
htmllib_helpctrl.o:
htmllib_helpdata.o:
htmllib_helpdlg.o:
htmllib_helpfrm.o:
htmllib_helpwnd.o:
htmllib_htmlcell.o:
htmllib_htmlfilt.o:
htmllib_htmllbox.o:
htmllib_htmlpars.o:
htmllib_htmltag.o:
htmllib_htmlwin.o:
htmllib_htmprint.o:
htmllib_m_dflist.o:
htmllib_m_fonts.o:
htmllib_m_hline.o:
htmllib_m_image.o:
htmllib_m_layout.o:
htmllib_m_links.o:
htmllib_m_list.o:
htmllib_m_pre.o:
htmllib_m_span.o:
htmllib_m_style.o:
htmllib_m_tables.o:
htmllib_styleparams.o:
htmllib_winpars.o:
icon_activate
icon_activate.cold
item_clicked
item_toggled
.LC0
.LC1
.LC10
.LC100
.LC101
.LC102
.LC103
.LC104
.LC105
.LC106
.LC107
.LC108
.LC109
.LC11
.LC110
.LC111
.LC112
.LC113
.LC114
.LC115
.LC116
.LC117
.LC118
.LC119
.LC12
.LC120
.LC121
.LC122
.LC123
.LC124
.LC125
.LC126
.LC127
.LC128
.LC129
.LC13
.LC130
.LC131
.LC132
.LC133
.LC134
.LC135
.LC136
.LC137
.LC138
.LC139
.LC14
.LC140
.LC141
.LC142
.LC143
.LC144
.LC145
.LC146
.LC147
.LC148
.LC149
.LC15
.LC150
.LC151
.LC152
.LC153
.LC154
.LC155
.LC156
.LC157
.LC158
.LC159
.LC16
.LC160
.LC161
.LC162
.LC163
.LC164
.LC165
.LC166
.LC167
.LC168
.LC169
.LC17
.LC170
.LC171
.LC172
.LC173
.LC174
.LC175
.LC176
.LC177
.LC178
.LC179
.LC18
.LC180
.LC181
.LC182
.LC183
.LC184
.LC185
.LC186
.LC187
.LC188
.LC189
.LC19
.LC190
.LC191
.LC192
.LC193
.LC194
.LC195
.LC196
.LC197
.LC198
.LC199
.LC2
.LC20
.LC200
.LC201
.LC202
.LC203
.LC204
.LC205
.LC206
.LC207
.LC208
.LC209
.LC21
.LC210
.LC211
.LC212
.LC213
.LC214
.LC215
.LC216
.LC217
.LC218
.LC219
.LC22
.LC220
.LC221
.LC222
.LC223
.LC224
.LC225
.LC226
.LC227
.LC228
.LC229
.LC23
.LC230
.LC231
.LC232
.LC233
.LC234
.LC235
.LC236
.LC237
.LC238
.LC239
.LC24
.LC240
.LC241
.LC242
.LC243
.LC244
.LC245
.LC246
.LC247
.LC248
.LC249
.LC25
.LC250
.LC251
.LC252
.LC253
.LC254
.LC255
.LC256
.LC257
.LC258
.LC259
.LC26
.LC260
.LC261
.LC262
.LC263
.LC264
.LC265
.LC266
.LC267
.LC268
.LC269
.LC27
.LC270
.LC271
.LC272
.LC273
.LC274
.LC275
.LC276
.LC277
.LC278
.LC279
.LC28
.LC280
.LC281
.LC282
.LC283
.LC284
.LC285
.LC286
.LC287
.LC288
.LC289
.LC29
.LC290
.LC291
.LC292
.LC293
.LC294
.LC295
.LC296
.LC297
.LC298
.LC299
.LC3
.LC30
.LC300
.LC301
.LC302
.LC303
.LC304
.LC305
.LC306
.LC307
.LC308
.LC309
.LC31
.LC310
.LC311
.LC312
.LC313
.LC314
.LC315
.LC316
.LC317
.LC318
.LC319
.LC32
.LC320
.LC321
.LC322
.LC323
.LC324
.LC325
.LC326
.LC327
.LC328
.LC329
.LC33
.LC330
.LC331
.LC332
.LC333
.LC334
.LC335
.LC336
.LC337
.LC338
.LC339
.LC34
.LC340
.LC341
.LC342
.LC343
.LC344
.LC345
.LC346
.LC347
.LC348
.LC349
.LC35
.LC350
.LC351
.LC352
.LC353
.LC354
.LC355
.LC356
.LC357
.LC358
.LC359
.LC36
.LC360
.LC361
.LC362
.LC363
.LC364
.LC365
.LC366
.LC367
.LC368
.LC369
.LC37
.LC370
.LC371
.LC372
.LC373
.LC374
.LC375
.LC376
.LC377
.LC378
.LC379
.LC38
.LC380
.LC381
.LC382
.LC383
.LC384
.LC385
.LC386
.LC387
.LC388
.LC389
.LC39
.LC390
.LC391
.LC392
.LC393
.LC394
.LC395
.LC396
.LC397
.LC398
.LC399
.LC4
.LC40
.LC400
.LC401
.LC402
.LC403
.LC404
.LC405
.LC406
.LC407
.LC408
.LC409
.LC41
.LC410
.LC411
.LC412
.LC413
.LC414
.LC415
.LC416
.LC417
.LC418
.LC419
.LC42
.LC420
.LC421
.LC422
.LC423
.LC424
.LC425
.LC426
.LC427
.LC428
.LC429
.LC43
.LC430
.LC431
.LC432
.LC433
.LC434
.LC435
.LC436
.LC437
.LC438
.LC439
.LC44
.LC440
.LC441
.LC442
.LC443
.LC444
.LC445
.LC446
.LC447
.LC448
.LC449
.LC45
.LC450
.LC451
.LC452
.LC453
.LC454
.LC455
.LC456
.LC457
.LC458
.LC459
.LC46
.LC460
.LC461
.LC462
.LC463
.LC464
.LC465
.LC466
.LC467
.LC468
.LC469
.LC47
.LC470
.LC471
.LC472
.LC473
.LC474
.LC475
.LC476
.LC477
.LC478
.LC479
.LC48
.LC480
.LC482
.LC483
.LC484
.LC49
.LC5
.LC50
.LC51
.LC52
.LC53
.LC54
.LC55
.LC56
.LC57
.LC58
.LC59
.LC6
.LC60
.LC61
.LC62
.LC63
.LC64
.LC65
.LC66
.LC67
.LC68
.LC69
.LC7
.LC70
.LC71
.LC72
.LC73
.LC74
.LC75
.LC76
.LC77
.LC78
.LC79
.LC8
.LC80
.LC81
.LC82
.LC83
.LC84
.LC85
.LC86
.LC87
.LC88
.LC89
.LC9
.LC90
.LC91
.LC92
.LC93
.LC94
.LC95
.LC96
.LC97
.LC98
.LC99
long_press_gesture_callback
long_press_gesture_callback.cold
map_event
mark_set
menu_hide
menu_hide.cold
menuitem_activate
menuitem_deselect
menuitem_deselect.cold
menuitem_select
menuitem_select.cold
menu_map
menu_map.cold
netlib_fs_inet.o:
netlib_ftp.o:
netlib_http.o:
netlib_protocol.o:
netlib_sckaddr.o:
netlib_sckfile.o:
netlib_sckipc.o:
netlib_sckstrm.o:
netlib_socketiohandler.o:
netlib_socket.o:
netlib_sockunix.o:
netlib_url.o:
netlib_webrequest_curl.o:
netlib_webrequest.o:
notify_gtk_font_name
notify_gtk_theme_name
notify_gtk_theme_name.cold
nsvg__colors
nsvgCreateRasterizer
nsvgDelete
nsvgDeleteRasterizer
nsvgDuplicatePath
nsvgParse
nsvgParseFromFile
nsvgRasterize
pan_gesture_begin_callback
pan_gesture_callback
pan_gesture_callback.cold
parent_class
parent_set
PIHnd
PIHnd.cold
pizza_add
pizza_adjust_size_request
pizza_get_preferred_height
pizza_get_preferred_width
pizza_get_property
pizza_hide
pizza_realize
pizza_remove
pizza_set_property
pizza_show
pizza_size_allocate
pred_nonpunct
pred_nonpunct_or_slash
pred_non_whitespace
pred_whitespace
property_notify_event
property_notify_event.cold
propgridlib_advprops.o:
propgridlib_editors.o:
propgridlib_manager.o:
propgridlib_property.o:
propgridlib_propgridiface.o:
propgridlib_propgrid.o:
propgridlib_propgridpagestate.o:
propgridlib_props.o:
qalib_dbgrptg.o:
qalib_debugrpt.o:
realize_hook
request_frame_extents_timeout
reset_size_request
response
response.cold
ribbonlib_art_aui.o:
ribbonlib_art_internal.o:
ribbonlib_art_msw.o:
ribbonlib_bar.o:
ribbonlib_buttonbar.o:
ribbonlib_control.o:
ribbonlib_gallery.o:
ribbonlib_page.o:
ribbonlib_panel.o:
ribbonlib_toolbar.o:
ribbonlib_xh_ribbon.o:
richtextlib_richtextbuffer.o:
richtextlib_richtextctrl.o:
richtextlib_richtextformatdlg.o:
richtextlib_richtexthtml.o:
richtextlib_richtextimagedlg.o:
richtextlib_richtextprint.o:
richtextlib_richtextstyledlg.o:
richtextlib_richtextstyles.o:
richtextlib_richtextsymboldlg.o:
richtextlib_richtextxml.o:
richtextlib_xh_richtext.o:
rotate_gesture_begin_callback
rotate_gesture_begin_callback.cold
rotate_gesture_callback
rotate_gesture_callback.cold
rotate_gesture_end_callback
rotate_gesture_end_callback.cold
scroll_adjust
scroll_event
scroll_event.cold
search_callback
search_callback.cold
selection_changed
selection_changed.cold
selection_clear_clip
selection_clear_clip.cold
selection_handler
selection_handler.cold
selection_received
selection_received.cold
SendSetCursorEvent
SendSetCursorEvent.cold
size_allocate
size_allocate.cold
sort_callback
source_check
source_dispatch
source_drag_data_get
source_drag_data_get.cold
source_drag_end
source_prepare
StartCdataHnd
StartCdataHnd.cold
StartDoctypeHnd
StartDoctypeHnd.cold
StartElementHnd
StartElementHnd.cold
state_flags_changed
statusbar_query_tooltip
statusbar_query_tooltip.cold
status_icon_popup_menu
status_icon_popup_menu.cold
stclib_PlatWX.o:
stclib_ScintillaWX.o:
stclib_stc.o:
stclib_xh_styledtextctrl.o:
switch_page
switch_page_after
switch_page.cold
tableUtf8Lengths
target_drag_data_received
target_drag_data_received.cold
target_drag_drop
target_drag_drop.cold
target_drag_leave
target_drag_motion
targets_selection_received
targets_selection_received.cold
__tcf_0
__tcf_1
__tcf_10
__tcf_11
__tcf_12
__tcf_13
__tcf_14
__tcf_2
__tcf_3
__tcf_4
__tcf_5
__tcf_6
__tcf_7
__tcf_8
__tcf_9
TextHnd
TextHnd.cold
TIFFwxErrorHandler
TIFFwxErrorHandler.cold
TIFFwxWarningHandler
TIFFwxWarningHandler.cold
timeout_callback
touch_callback
touch_callback.cold
tree_entry_destroy_cb
tree_entry_type.7
UnknownEncodingHnd
UnknownEncodingHnd.cold
unrealize
vertical_pan_gesture_end_callback
vertical_pan_gesture_end_callback.cold
wxAddRemoveCtrlNameStr
wxAnimationCtrlNameStr
wxAnyNullValueType
wxapp_idle_callback
wxArrayInt_VariantType
wxAuiNullDockInfo
wxAuiNullPaneInfo
wxBannerWindowNameStr
wxBitmapComboBoxNameStr
wxBitmapRadioButtonNameStr
wxButtonNameStr
wxCellRendererPixbufClassInit
wxCellRendererPixbufFinalize
wxCellRendererPixbufRender
wxCellRendererPixbufRender.cold
wxCheckBoxNameStr
wxChoiceNameStr
wxCollapsibleHeaderCtrlNameStr
wxCollapsiblePaneNameStr
wxColourPickerCtrlNameStr
wxColourPickerWidgetNameStr
wxComboBoxNameStr
wxCompareFamilies
wx_comparestrings
wxControlNameStr
wxConvCurrent
wxConvertFromIeeeExtended
wxConvertToIeeeExtended
wxConvFileName
wxConvISO8859_1Ptr
wxConvLibcPtr
wxConvLocalPtr
wxConvUI
wxConvUTF32BE
wxConvUTF32LE
wxConvUTF7Ptr
wxConvUTF8Ptr
wxConvWhateverWorksPtr
wxCurrentPopupMenu
wxDataViewCtrlNameStr
wxdataview_selection_func
wxDefaultDateTime
wxDefaultDateTimeFormat
wxDefaultListKey
wxDefaultPosition
wxDefaultSize
wxDefaultSpan
wxDefaultTimeSpanFormat
wxDefaultValidator
wxDefaultVideoMode
wxDialogNameStr
wxDirDialogDefaultFolderStr
wxDirDialogNameStr
wxDirPickerCtrlNameStr
wxDirPickerWidgetLabel
wxDirPickerWidgetNameStr
wxDirSelectorPromptStr
wxEditableListBoxNameStr
wx_emission_hook
wx_empty_output_buffer
wxEmptyString
wx_error_exit
wx_event_loop_timeout
wxEVT_ACTIVATE
wxEVT_ACTIVATE_APP
wxEVT_AFTER_CHAR
wxEVT_ASYNC_METHOD_CALL
wxEVT_AUI_FIND_MANAGER
wxEVT_AUINOTEBOOK_ALLOW_DND
wxEVT_AUINOTEBOOK_BEGIN_DRAG
wxEVT_AUINOTEBOOK_BG_DCLICK
wxEVT_AUINOTEBOOK_BUTTON
wxEVT_AUINOTEBOOK_DRAG_DONE
wxEVT_AUINOTEBOOK_DRAG_MOTION
wxEVT_AUINOTEBOOK_END_DRAG
wxEVT_AUINOTEBOOK_PAGE_CHANGED
wxEVT_AUINOTEBOOK_PAGE_CHANGING
wxEVT_AUINOTEBOOK_PAGE_CLOSE
wxEVT_AUINOTEBOOK_PAGE_CLOSED
wxEVT_AUINOTEBOOK_TAB_MIDDLE_DOWN
wxEVT_AUINOTEBOOK_TAB_MIDDLE_UP
wxEVT_AUINOTEBOOK_TAB_RIGHT_DOWN
wxEVT_AUINOTEBOOK_TAB_RIGHT_UP
wxEVT_AUI_PANE_ACTIVATED
wxEVT_AUI_PANE_BUTTON
wxEVT_AUI_PANE_CLOSE
wxEVT_AUI_PANE_MAXIMIZE
wxEVT_AUI_PANE_RESTORE
wxEVT_AUI_RENDER
wxEVT_AUITOOLBAR_BEGIN_DRAG
wxEVT_AUITOOLBAR_MIDDLE_CLICK
wxEVT_AUITOOLBAR_OVERFLOW_CLICK
wxEVT_AUITOOLBAR_RIGHT_CLICK
wxEVT_AUITOOLBAR_TOOL_DROPDOWN
wxEVT_AUX1_DCLICK
wxEVT_AUX1_DOWN
wxEVT_AUX1_UP
wxEVT_AUX2_DCLICK
wxEVT_AUX2_DOWN
wxEVT_AUX2_UP
wxEVT_BUTTON
wxEVT_CALCULATE_LAYOUT
wxEVT_CALENDAR_DAY_CHANGED
wxEVT_CALENDAR_DOUBLECLICKED
wxEVT_CALENDAR_MONTH_CHANGED
wxEVT_CALENDAR_PAGE_CHANGED
wxEVT_CALENDAR_SEL_CHANGED
wxEVT_CALENDAR_WEEK_CLICKED
wxEVT_CALENDAR_WEEKDAY_CLICKED
wxEVT_CALENDAR_YEAR_CHANGED
wxEVT_CHAR
wxEVT_CHAR_HOOK
wxEVT_CHECKBOX
wxEVT_CHECKLISTBOX
wxEVT_CHILD_FOCUS
wxEVT_CHOICE
wxEVT_CHOICEBOOK_PAGE_CHANGED
wxEVT_CHOICEBOOK_PAGE_CHANGING
wxEVT_CLIPBOARD_CHANGED
wxEVT_CLOSE_WINDOW
wxEVT_COLLAPSIBLEHEADER_CHANGED
wxEVT_COLLAPSIBLEPANE_CHANGED
wxEVT_COLOUR_CHANGED
wxEVT_COLOURPICKER_CHANGED
wxEVT_COLOURPICKER_CURRENT_CHANGED
wxEVT_COLOURPICKER_DIALOG_CANCELLED
wxEVT_COMBOBOX
wxEVT_COMBOBOX_CLOSEUP
wxEVT_COMBOBOX_DROPDOWN
wxEVT_COMMAND_ENTER
wxEVT_COMMAND_KILL_FOCUS
wxEVT_COMMAND_LEFT_CLICK
wxEVT_COMMAND_LEFT_DCLICK
wxEVT_COMMAND_RIGHT_CLICK
wxEVT_COMMAND_RIGHT_DCLICK
wxEVT_COMMAND_SET_FOCUS
wxEVT_CONTEXT_MENU
wxEVT_CREATE
wxEVT_DATAVIEW_CACHE_HINT
wxEVT_DATAVIEW_COLUMN_HEADER_CLICK
wxEVT_DATAVIEW_COLUMN_HEADER_RIGHT_CLICK
wxEVT_DATAVIEW_COLUMN_REORDERED
wxEVT_DATAVIEW_COLUMN_SORTED
wxEVT_DATAVIEW_ITEM_ACTIVATED
wxEVT_DATAVIEW_ITEM_BEGIN_DRAG
wxEVT_DATAVIEW_ITEM_COLLAPSED
wxEVT_DATAVIEW_ITEM_COLLAPSING
wxEVT_DATAVIEW_ITEM_CONTEXT_MENU
wxEVT_DATAVIEW_ITEM_DROP
wxEVT_DATAVIEW_ITEM_DROP_POSSIBLE
wxEVT_DATAVIEW_ITEM_EDITING_DONE
wxEVT_DATAVIEW_ITEM_EDITING_STARTED
wxEVT_DATAVIEW_ITEM_EXPANDED
wxEVT_DATAVIEW_ITEM_EXPANDING
wxEVT_DATAVIEW_ITEM_START_EDITING
wxEVT_DATAVIEW_ITEM_VALUE_CHANGED
wxEVT_DATAVIEW_SELECTION_CHANGED
wxEVT_DATE_CHANGED
wxEVT_DESTROY
wxEVT_DETAILED_HELP
wxEVT_DIALUP_CONNECTED
wxEVT_DIALUP_DISCONNECTED
wxEVT_DIRCTRL_FILEACTIVATED
wxEVT_DIRCTRL_SELECTIONCHANGED
wxEVT_DIRPICKER_CHANGED
wxEVT_DISPLAY_CHANGED
wxEVT_DPI_CHANGED
wxEVT_DROP_FILES
wxEVT_END_PROCESS
wxEVT_END_SESSION
wxEVT_ENTER_WINDOW
wxEVT_ERASE_BACKGROUND
wxEVT_FILECTRL_FILEACTIVATED
wxEVT_FILECTRL_FILTERCHANGED
wxEVT_FILECTRL_FOLDERCHANGED
wxEVT_FILECTRL_SELECTIONCHANGED
wxEVT_FILEPICKER_CHANGED
wxEVT_FIND
wxEVT_FIND_CLOSE
wxEVT_FIND_NEXT
wxEVT_FIND_REPLACE
wxEVT_FIND_REPLACE_ALL
wxEVT_FIRST
wxEVT_FONTPICKER_CHANGED
wxEVT_FSWATCHER
wxEVT_FULLSCREEN
wxEVT_GESTURE_PAN
wxEVT_GESTURE_ROTATE
wxEVT_GESTURE_ZOOM
wxEVT_GRID_CELL_BEGIN_DRAG
wxEVT_GRID_CELL_CHANGED
wxEVT_GRID_CELL_CHANGING
wxEVT_GRID_CELL_LEFT_CLICK
wxEVT_GRID_CELL_LEFT_DCLICK
wxEVT_GRID_CELL_RIGHT_CLICK
wxEVT_GRID_CELL_RIGHT_DCLICK
wxEVT_GRID_COL_AUTO_SIZE
wxEVT_GRID_COL_MOVE
wxEVT_GRID_COL_SIZE
wxEVT_GRID_COL_SORT
wxEVT_GRID_EDITOR_CREATED
wxEVT_GRID_EDITOR_HIDDEN
wxEVT_GRID_EDITOR_SHOWN
wxEVT_GRID_LABEL_LEFT_CLICK
wxEVT_GRID_LABEL_LEFT_DCLICK
wxEVT_GRID_LABEL_RIGHT_CLICK
wxEVT_GRID_LABEL_RIGHT_DCLICK
wxEVT_GRID_RANGE_SELECTED
wxEVT_GRID_RANGE_SELECTING
wxEVT_GRID_ROW_AUTO_SIZE
wxEVT_GRID_ROW_MOVE
wxEVT_GRID_ROW_SIZE
wxEVT_GRID_SELECT_CELL
wxEVT_GRID_TABBING
wxEVT_HEADER_BEGIN_REORDER
wxEVT_HEADER_BEGIN_RESIZE
wxEVT_HEADER_CLICK
wxEVT_HEADER_DCLICK
wxEVT_HEADER_DRAGGING_CANCELLED
wxEVT_HEADER_END_REORDER
wxEVT_HEADER_END_RESIZE
wxEVT_HEADER_MIDDLE_CLICK
wxEVT_HEADER_MIDDLE_DCLICK
wxEVT_HEADER_RESIZING
wxEVT_HEADER_RIGHT_CLICK
wxEVT_HEADER_RIGHT_DCLICK
wxEVT_HEADER_SEPARATOR_DCLICK
wxEVT_HELP
wxEVT_HIBERNATE
wxEVT_HTML_CELL_CLICKED
wxEVT_HTML_CELL_HOVER
wxEVT_HTML_LINK_CLICKED
wxEVT_HYPERLINK
wxEVT_ICONIZE
wxEVT_IDLE
wxEVT_INIT_DIALOG
wxEVT_JOY_BUTTON_DOWN
wxEVT_JOY_BUTTON_UP
wxEVT_JOY_MOVE
wxEVT_JOY_ZMOVE
wxEVT_KEY_DOWN
wxEVT_KEY_UP
wxEVT_KILL_FOCUS
wxEVT_LEAVE_WINDOW
wxEVT_LEFT_DCLICK
wxEVT_LEFT_DOWN
wxEVT_LEFT_UP
wxEVT_LIST_BEGIN_DRAG
wxEVT_LIST_BEGIN_LABEL_EDIT
wxEVT_LIST_BEGIN_RDRAG
wxEVT_LISTBOOK_PAGE_CHANGED
wxEVT_LISTBOOK_PAGE_CHANGING
wxEVT_LISTBOX
wxEVT_LISTBOX_DCLICK
wxEVT_LIST_CACHE_HINT
wxEVT_LIST_COL_BEGIN_DRAG
wxEVT_LIST_COL_CLICK
wxEVT_LIST_COL_DRAGGING
wxEVT_LIST_COL_END_DRAG
wxEVT_LIST_COL_RIGHT_CLICK
wxEVT_LIST_DELETE_ALL_ITEMS
wxEVT_LIST_DELETE_ITEM
wxEVT_LIST_END_LABEL_EDIT
wxEVT_LIST_INSERT_ITEM
wxEVT_LIST_ITEM_ACTIVATED
wxEVT_LIST_ITEM_CHECKED
wxEVT_LIST_ITEM_DESELECTED
wxEVT_LIST_ITEM_FOCUSED
wxEVT_LIST_ITEM_MIDDLE_CLICK
wxEVT_LIST_ITEM_RIGHT_CLICK
wxEVT_LIST_ITEM_SELECTED
wxEVT_LIST_ITEM_UNCHECKED
wxEVT_LIST_KEY_DOWN
wxEVT_LONG_PRESS
wxEVT_MAGNIFY
wxEVT_MAXIMIZE
wxEVT_MENU
wxEVT_MENU_CLOSE
wxEVT_MENU_HIGHLIGHT
wxEVT_MENU_OPEN
wxEVT_MIDDLE_DCLICK
wxEVT_MIDDLE_DOWN
wxEVT_MIDDLE_UP
wxEVT_MOTION
wxEVT_MOUSE_CAPTURE_CHANGED
wxEVT_MOUSE_CAPTURE_LOST
wxEVT_MOUSEWHEEL
wxEVT_MOVE
wxEVT_MOVE_END
wxEVT_MOVE_START
wxEVT_MOVING
wxEVT_NAVIGATION_KEY
wxEVT_NC_PAINT
wxEVT_NOTEBOOK_PAGE_CHANGED
wxEVT_NOTEBOOK_PAGE_CHANGING
wxEVT_NOTIFICATION_MESSAGE_ACTION
wxEVT_NOTIFICATION_MESSAGE_CLICK
wxEVT_NOTIFICATION_MESSAGE_DISMISSED
wxEVT_NULL
wxEVT_PAINT
wxEVT_PALETTE_CHANGED
wxEVT_PG_CHANGED
wxEVT_PG_CHANGING
wxEVT_PG_COL_BEGIN_DRAG
wxEVT_PG_COL_DRAGGING
wxEVT_PG_COL_END_DRAG
wxEVT_PG_COLS_RESIZED
wxEVT_PG_DOUBLE_CLICK
wxEVT_PG_HIGHLIGHTED
wxEVT_PG_HSCROLL
wxEVT_PG_ITEM_COLLAPSED
wxEVT_PG_ITEM_EXPANDED
wxEVT_PG_LABEL_EDIT_BEGIN
wxEVT_PG_LABEL_EDIT_ENDING
wxEVT_PG_PAGE_CHANGED
wxEVT_PG_RIGHT_CLICK
wxEVT_PG_SELECTED
wxEVT_PRESS_AND_TAP
wxEVT_QUERY_END_SESSION
wxEVT_QUERY_LAYOUT_INFO
wxEVT_QUERY_NEW_PALETTE
wxEVT_RADIOBOX
wxEVT_RADIOBUTTON
wxEVT_RIBBONBAR_HELP_CLICK
wxEVT_RIBBONBAR_PAGE_CHANGED
wxEVT_RIBBONBAR_PAGE_CHANGING
wxEVT_RIBBONBAR_TAB_LEFT_DCLICK
wxEVT_RIBBONBAR_TAB_MIDDLE_DOWN
wxEVT_RIBBONBAR_TAB_MIDDLE_UP
wxEVT_RIBBONBAR_TAB_RIGHT_DOWN
wxEVT_RIBBONBAR_TAB_RIGHT_UP
wxEVT_RIBBONBAR_TOGGLED
wxEVT_RIBBONBUTTONBAR_CLICKED
wxEVT_RIBBONBUTTONBAR_DROPDOWN_CLICKED
wxEVT_RIBBONGALLERY_CLICKED
wxEVT_RIBBONGALLERY_HOVER_CHANGED
wxEVT_RIBBONGALLERY_SELECTED
wxEVT_RIBBONPANEL_EXTBUTTON_ACTIVATED
wxEVT_RIBBONTOOLBAR_CLICKED
wxEVT_RIBBONTOOLBAR_DROPDOWN_CLICKED
wxEVT_RICHTEXT_BUFFER_RESET
wxEVT_RICHTEXT_CHARACTER
wxEVT_RICHTEXT_CONSUMING_CHARACTER
wxEVT_RICHTEXT_CONTENT_DELETED
wxEVT_RICHTEXT_CONTENT_INSERTED
wxEVT_RICHTEXT_DELETE
wxEVT_RICHTEXT_FOCUS_OBJECT_CHANGED
wxEVT_RICHTEXT_LEFT_CLICK
wxEVT_RICHTEXT_LEFT_DCLICK
wxEVT_RICHTEXT_MIDDLE_CLICK
wxEVT_RICHTEXT_PROPERTIES_CHANGED
wxEVT_RICHTEXT_RETURN
wxEVT_RICHTEXT_RIGHT_CLICK
wxEVT_RICHTEXT_SELECTION_CHANGED
wxEVT_RICHTEXT_STYLE_CHANGED
wxEVT_RICHTEXT_STYLESHEET_CHANGED
wxEVT_RICHTEXT_STYLESHEET_CHANGING
wxEVT_RICHTEXT_STYLESHEET_REPLACED
wxEVT_RICHTEXT_STYLESHEET_REPLACING
wxEVT_RIGHT_DCLICK
wxEVT_RIGHT_DOWN
wxEVT_RIGHT_UP
wxEVT_SASH_DRAGGED
wxEVT_SCROLLBAR
wxEVT_SCROLL_BOTTOM
wxEVT_SCROLL_CHANGED
wxEVT_SCROLL_LINEDOWN
wxEVT_SCROLL_LINEUP
wxEVT_SCROLL_PAGEDOWN
wxEVT_SCROLL_PAGEUP
wxEVT_SCROLL_THUMBRELEASE
wxEVT_SCROLL_THUMBTRACK
wxEVT_SCROLL_TOP
wxEVT_SCROLLWIN_BOTTOM
wxEVT_SCROLLWIN_LINEDOWN
wxEVT_SCROLLWIN_LINEUP
wxEVT_SCROLLWIN_PAGEDOWN
wxEVT_SCROLLWIN_PAGEUP
wxEVT_SCROLLWIN_THUMBRELEASE
wxEVT_SCROLLWIN_THUMBTRACK
wxEVT_SCROLLWIN_TOP
wxEVT_SEARCH
wxEVT_SEARCH_CANCEL
wxEVT_SET_CURSOR
wxEVT_SET_FOCUS
wxEVT_SHOW
wxEVT_SIZE
wxEVT_SIZING
wxEVT_SLIDER
wxEVT_SOCKET
wxEVT_SPIN
wxEVT_SPINCTRL
wxEVT_SPINCTRLDOUBLE
wxEVT_SPIN_DOWN
wxEVT_SPIN_UP
wxEVT_SPLITTER_DOUBLECLICKED
wxEVT_SPLITTER_SASH_POS_CHANGED
wxEVT_SPLITTER_SASH_POS_CHANGING
wxEVT_SPLITTER_SASH_POS_RESIZE
wxEVT_SPLITTER_UNSPLIT
wxEVT_STC_AUTOCOMP_CANCELLED
wxEVT_STC_AUTOCOMP_CHAR_DELETED
wxEVT_STC_AUTOCOMP_COMPLETED
wxEVT_STC_AUTOCOMP_SELECTION
wxEVT_STC_AUTOCOMP_SELECTION_CHANGE
wxEVT_STC_CALLTIP_CLICK
wxEVT_STC_CHANGE
wxEVT_STC_CHARADDED
wxEVT_STC_CLIPBOARD_COPY
wxEVT_STC_CLIPBOARD_PASTE
wxEVT_STC_DO_DROP
wxEVT_STC_DOUBLECLICK
wxEVT_STC_DRAG_OVER
wxEVT_STC_DWELLEND
wxEVT_STC_DWELLSTART
wxEVT_STC_HOTSPOT_CLICK
wxEVT_STC_HOTSPOT_DCLICK
wxEVT_STC_HOTSPOT_RELEASE_CLICK
wxEVT_STC_INDICATOR_CLICK
wxEVT_STC_INDICATOR_RELEASE
wxEVT_STC_KEY
wxEVT_STC_MACRORECORD
wxEVT_STC_MARGINCLICK
wxEVT_STC_MARGIN_RIGHT_CLICK
wxEVT_STC_MODIFIED
wxEVT_STC_NEEDSHOWN
wxEVT_STC_PAINTED
wxEVT_STC_ROMODIFYATTEMPT
wxEVT_STC_SAVEPOINTLEFT
wxEVT_STC_SAVEPOINTREACHED
wxEVT_STC_START_DRAG
wxEVT_STC_STYLENEEDED
wxEVT_STC_UPDATEUI
wxEVT_STC_URIDROPPED
wxEVT_STC_USERLISTSELECTION
wxEVT_STC_ZOOM
wxEVT_SYS_COLOUR_CHANGED
wxEVT_TASKBAR_BALLOON_CLICK
wxEVT_TASKBAR_BALLOON_TIMEOUT
wxEVT_TASKBAR_LEFT_DCLICK
wxEVT_TASKBAR_LEFT_DOWN
wxEVT_TASKBAR_LEFT_UP
wxEVT_TASKBAR_MOVE
wxEVT_TASKBAR_RIGHT_DCLICK
wxEVT_TASKBAR_RIGHT_DOWN
wxEVT_TASKBAR_RIGHT_UP
wxEVT_TEXT
wxEVT_TEXT_COPY
wxEVT_TEXT_CUT
wxEVT_TEXT_ENTER
wxEVT_TEXT_MAXLEN
wxEVT_TEXT_PASTE
wxEVT_TEXT_URL
wxEVT_THREAD
wxEVT_TIME_CHANGED
wxEVT_TIMER
wxEVT_TOGGLEBUTTON
wxEVT_TOOLBOOK_PAGE_CHANGED
wxEVT_TOOLBOOK_PAGE_CHANGING
wxEVT_TOOL_DROPDOWN
wxEVT_TOOL_ENTER
wxEVT_TOOL_RCLICKED
wxEVT_TREE_BEGIN_DRAG
wxEVT_TREE_BEGIN_LABEL_EDIT
wxEVT_TREE_BEGIN_RDRAG
wxEVT_TREEBOOK_NODE_COLLAPSED
wxEVT_TREEBOOK_NODE_EXPANDED
wxEVT_TREEBOOK_PAGE_CHANGED
wxEVT_TREEBOOK_PAGE_CHANGING
wxEVT_TREE_DELETE_ITEM
wxEVT_TREE_END_DRAG
wxEVT_TREE_END_LABEL_EDIT
wxEVT_TREE_GET_INFO
wxEVT_TREE_ITEM_ACTIVATED
wxEVT_TREE_ITEM_COLLAPSED
wxEVT_TREE_ITEM_COLLAPSING
wxEVT_TREE_ITEM_EXPANDED
wxEVT_TREE_ITEM_EXPANDING
wxEVT_TREE_ITEM_GETTOOLTIP
wxEVT_TREE_ITEM_MENU
wxEVT_TREE_ITEM_MIDDLE_CLICK
wxEVT_TREE_ITEM_RIGHT_CLICK
wxEVT_TREE_KEY_DOWN
wxEVT_TREELIST_COLUMN_SORTED
wxEVT_TREELIST_ITEM_ACTIVATED
wxEVT_TREELIST_ITEM_CHECKED
wxEVT_TREELIST_ITEM_CONTEXT_MENU
wxEVT_TREELIST_ITEM_EXPANDED
wxEVT_TREELIST_ITEM_EXPANDING
wxEVT_TREELIST_SELECTION_CHANGED
wxEVT_TREE_SEL_CHANGED
wxEVT_TREE_SEL_CHANGING
wxEVT_TREE_SET_INFO
wxEVT_TREE_STATE_IMAGE_CLICK
wxEVT_TWO_FINGER_TAP
wxEVT_UPDATE_UI
wxEVT_USER_FIRST
wxEVT_VLBOX
wxEVT_WINDOW_MODAL_DIALOG_CLOSED
wxEVT_WIZARD_BEFORE_PAGE_CHANGED
wxEVT_WIZARD_CANCEL
wxEVT_WIZARD_FINISHED
wxEVT_WIZARD_HELP
wxEVT_WIZARD_PAGE_CHANGED
wxEVT_WIZARD_PAGE_CHANGING
wxEVT_WIZARD_PAGE_SHOWN
wxFalse
wxFatalSignalHandler
wxFatalSignalHandler.cold
wxFileCtrlNameStr
wxFileDialogNameStr
wxFilePickerCtrlNameStr
wxFilePickerWidgetLabel
wxFilePickerWidgetNameStr
wxFileSelectorDefaultWildcardStr
wxFileSelectorPromptStr
wx_fill_input_buffer
wx_focus_event_hook
wxFontPickerCtrlNameStr
wxFontPickerWidgetNameStr
wxFormatInvalid
wxFrameNameStr
wxGaugeNameStr
wxGetPasswordFromUserPromptStr
wxGetTextFromUserPromptStr
wxGridNameStr
wxGridNoBlockCoords
wxGridNoCellCoords
wxGridNoCellRect
wxGtkAboutDialogOnClose
wxgtk_button_clicked_callback
wxgtk_button_clicked_callback.cold
wxgtk_button_enter_callback
wxgtk_button_leave_callback
wxgtk_button_press_callback
wxgtk_button_released_callback
wxgtk_button_style_set_callback
wx_gtk_copy_clipboard_callback
wx_gtk_cut_clipboard_callback
wx_gtk_entry_parent_grab_notify
wx_gtk_icon_press
wx_gtk_icon_press.cold
wxGtkImageClassInit
wxGtkImageDraw
wxGtkImageDraw.cold
wxGtkImageFinalize
wxgtk_infobar_close
wxgtk_infobar_response
wx_gtk_insert_text_callback
wx_gtk_insert_text_callback.cold
wxgtk_main_do_event
wxGtkOnRemoveTag
wx_gtk_paste_clipboard_callback
wx_gtk_spin_input
wx_gtk_spin_output
wx_gtk_spin_output.cold
wx_gtk_text_after_key_press
wx_gtk_text_changed_callback
wxGtkTextRendererEditedCallback
wxGtkTextRendererEditedCallback.cold
wxgtk_tlw_key_press_event
wxGtkToggleRendererToggledCallback
wxGtkToggleRendererToggledCallback.cold
wxGtkTreeCellDataFunc
wxGtkTreeCellDataFunc.cold
wxgtk_tree_model_drag_data_delete
wxgtk_tree_model_drag_data_get
wxgtk_tree_model_drag_data_received
wxgtk_tree_model_drag_dest_init
wxgtk_tree_model_drag_source_init
wxgtk_tree_model_get_column_type
wxgtk_tree_model_get_flags
wxgtk_tree_model_get_iter
wxgtk_tree_model_get_n_columns
wxgtk_tree_model_get_path
wxgtk_tree_model_get_sort_column_id
wxgtk_tree_model_get_value
wxgtk_tree_model_get_value.cold
wxgtk_tree_model_has_default_sort_func
wxgtk_tree_model_init
wxgtk_tree_model_iter_children
wxgtk_tree_model_iter_has_child
wxgtk_tree_model_iter_n_children
wxgtk_tree_model_iter_next
wxgtk_tree_model_iter_nth_child
wxgtk_tree_model_iter_parent
wxgtk_tree_model_row_draggable
wxgtk_tree_model_row_drop_possible
wxgtk_tree_model_set_default_sort_func
wxgtk_tree_model_set_sort_column_id
wxgtk_tree_model_set_sort_column_id.cold
wxgtk_tree_model_set_sort_func
wxgtk_tree_model_sortable_init
wxgtk_tree_model_tree_model_init
wxgtk_window_popup_menu_callback
wxgtk_window_popup_menu_callback.cold
wxHeaderCtrlNameStr
wxHtmlListBoxNameStr
wxHyperlinkCtrlNameStr
wx_ignore_message
wx_init_destination
wx_init_source
wx_insert_text_callback
wxInvalidSize
wxListBoxNameStr
wxListCtrlNameStr
wxLocaleIsUtf8
wxLOG_COMPONENT
wxMessageBoxCaptionStr
wxNativeContainerWindowFilter
wxNotebookNameStr
wxNullAcceleratorTable
wxNullAnimation
wxNullBitmap
wxNullBrush
wxNullColour
wxNullCursor
wxNullFont
wxNullGraphicsBitmap
wxNullGraphicsBrush
wxNullGraphicsFont
wxNullGraphicsMatrix
wxNullGraphicsPath
wxNullGraphicsPen
wxNullIcon
wxNullIconBundle
wxNullImage
wxNullPalette
wxNullPen
wxNullVariant
wxNullXLocale
wx_on_channel_event
wxOpenModalDialogsCount
wxPanelNameStr
wxPendingDelete
wxPGEditor_CheckBox
wxPGEditor_Choice
wxPGEditor_ChoiceAndButton
wxPGEditor_ComboBox
wxPGEditor_DatePickerCtrl
wxPGEditor_SpinCtrl
wxPGEditor_TextCtrl
wxPGEditor_TextCtrlAndButton
wxPGGlobalVars
wx_PNG_error
wx_PNG_stream_reader
wx_PNG_stream_writer
wx_PNG_warning
wx_PNG_warning.cold
wxPoint_VariantType
wxPopupMenuPositionCallback
wxPropertyGridManagerNameStr
wxPropertyGridNameStr
wxProtocolUsewxFileProto
wxProtocolUsewxFTP
wxProtocolUsewxHTTP
wxPthreadCleanup
wxPthreadStart
wxRadioBoxNameStr
wxRadioButtonNameStr
wxRearrangeDialogNameStr
wxRearrangeListNameStr
wxRichTextLineBreakChar
wxScrollBarNameStr
wxSearchCtrlNameStr
wxSimpleHtmlListBoxNameStr
wxSize_VariantType
wx_skip_input_data
wxSliderNameStr
wxSocket_Input
wxStaticBitmapNameStr
wxStaticBoxNameStr
wxStaticLineNameStr
wxStaticTextNameStr
wxStatusBarNameStr
wxStatusLineNameStr
wxSTCNameStr
wx_term_destination
wx_term_source
wxTextCtrlNameStr
wxTheAssertHandler
wxTheBrushList
wxTheColourDatabase
wxTheFileIconsTable
wxTheFontList
wxTheMimeTypesManager
wxThePenList
wxThePrintPaperDatabase
wxTIFFCloseIProc
wxTIFFCloseOProc
wxTIFFMapProc
wxTIFFNullProc
wxTIFFReadProc
wxTIFFSeekIProc
wxTIFFSeekOProc
wxTIFFSizeProc
wxTIFFUnmapProc
wxTIFFWriteProc
wxTLI_FIRST
wxTLI_LAST
wxToolBarNameStr
wxTopLevelWindows
wxTRACE_HTML_DEBUG
wxTrapInAssert
wxTreeCtrlNameStr
wx_tree_entry_class_init
wx_tree_entry_dispose
wx_tree_entry_get_collate_key
wx_tree_entry_get_label
wx_tree_entry_get_type
wx_tree_entry_get_userdata
wx_tree_entry_new
wx_tree_entry_set_destroy_func
wx_tree_entry_set_label
wx_tree_entry_set_userdata
wx_tree_entry_string_transform_func
wxTreeListCtrlNameStr
wxVListBoxNameStr
wx_window_focus_callback
wxX11ErrorsSuspender_handler
xmllib_xml.o:
xmllib_xtixml.o:
xrclib_xh_activityindicator.o:
xrclib_xh_animatctrl.o:
xrclib_xh_bannerwindow.o:
xrclib_xh_bmpbt.o:
xrclib_xh_bmpcbox.o:
xrclib_xh_bmp.o:
xrclib_xh_bookctrlbase.o:
xrclib_xh_bttn.o:
xrclib_xh_cald.o:
xrclib_xh_chckb.o:
xrclib_xh_chckl.o:
xrclib_xh_choicbk.o:
xrclib_xh_choic.o:
xrclib_xh_clrpicker.o:
xrclib_xh_cmdlinkbn.o:
xrclib_xh_collpane.o:
xrclib_xh_comboctrl.o:
xrclib_xh_combo.o:
xrclib_xh_dataview.o:
xrclib_xh_datectrl.o:
xrclib_xh_dirpicker.o:
xrclib_xh_dlg.o:
xrclib_xh_editlbox.o:
xrclib_xh_filectrl.o:
xrclib_xh_filepicker.o:
xrclib_xh_fontpicker.o:
xrclib_xh_frame.o:
xrclib_xh_gauge.o:
xrclib_xh_gdctl.o:
xrclib_xh_grid.o:
xrclib_xh_htmllbox.o:
xrclib_xh_html.o:
xrclib_xh_hyperlink.o:
xrclib_xh_infobar.o:
xrclib_xh_listbk.o:
xrclib_xh_listb.o:
xrclib_xh_listc.o:
xrclib_xh_mdi.o:
xrclib_xh_menu.o:
xrclib_xh_notbk.o:
xrclib_xh_odcombo.o:
xrclib_xh_panel.o:
xrclib_xh_propdlg.o:
xrclib_xh_radbt.o:
xrclib_xh_radbx.o:
xrclib_xh_scrol.o:
xrclib_xh_scwin.o:
xrclib_xh_simplebook.o:
xrclib_xh_sizer.o:
xrclib_xh_slidr.o:
xrclib_xh_spin.o:
xrclib_xh_split.o:
xrclib_xh_srchctrl.o:
xrclib_xh_statbar.o:
xrclib_xh_stbmp.o:
xrclib_xh_stbox.o:
xrclib_xh_stlin.o:
xrclib_xh_sttxt.o:
xrclib_xh_text.o:
xrclib_xh_tglbtn.o:
xrclib_xh_timectrl.o:
xrclib_xh_toolbk.o:
xrclib_xh_toolb.o:
xrclib_xh_treebk.o:
xrclib_xh_tree.o:
xrclib_xh_unkwn.o:
xrclib_xh_wizrd.o:
xrclib_xmlres.o:
xrclib_xmlrsall.o:
_Z10wxAboutBoxRK17wxAboutDialogInfoP8wxWindow
_Z10wxAboutBoxRK17wxAboutDialogInfoP8wxWindow.cold
_Z10wxCopyFileRK8wxStringS1_b
_Z10wxCopyFileRK8wxStringS1_b.cold
_Z10wxDecToHexh
_Z10wxDecToHexhPcS_
_Z10wxDecToHexhPw
_Z10wxDoGetCwdPwi
_Z10wxDoGetCwdPwi.cold
_Z10wxDumpDatePK10wxDateTime
_Z10wxDumpDatePK10wxDateTime.cold
_Z10wxDumpFontPK6wxFont
_Z10wxDumpFontPK6wxFont.cold
_Z10wxHexToDecRK8wxString
_Z10wxNextWDayRN10wxDateTime7WeekDayE
_Z10wxOnAssertPKciS0_S0_
_Z10wxOnAssertPKciS0_S0_.cold
_Z10wxOnAssertPKciS0_S0_PKw
_Z10wxOnAssertPKciS0_S0_PKw.cold
_Z10wxOnAssertPKciS0_S0_RK10wxCStrData
_Z10wxOnAssertPKciS0_S0_RK10wxCStrData.cold
_Z10wxOnAssertPKciS0_S0_RK8wxString
_Z10wxOnAssertPKciS0_S0_RK8wxString.cold
_Z10wxOnAssertPKciS0_S0_S0_
_Z10wxOnAssertPKciS0_S0_S0_.cold
_Z10wxOnAssertPKwiPKcS0_S0_
_Z10wxOnAssertPKwiPKcS0_S0_.cold
_Z10wxOnAssertRK8wxStringiS1_S1_
_Z10wxOnAssertRK8wxStringiS1_S1_.cold
_Z10wxOnAssertRK8wxStringiS1_S1_S1_
_Z10wxPathOnlyPw
_Z10wxPathOnlyRK8wxString
_Z10wxPrevWDayRN10wxDateTime7WeekDayE
_Z10wxShutdowni
_Z10wxShutdowni.cold
_Z10wxSnprintfIiEiPwmRK14wxFormatStringT_
_Z10wxToStringRK10wxFontBase
_Z10wxToStringRK12wxColourBase
_Z10wxTryGetTmR2tmlRKN10wxDateTime8TimeZoneE
_Z10wxUnsetEnvRK8wxString
_Z10wxUnsetEnvRK8wxString.cold
_Z10wxVsprintfPcRK8wxStringP13__va_list_tag
_Z10wxVsprintfPcRK8wxStringP13__va_list_tag.cold
_Z10wxVsprintfPwRK8wxStringP13__va_list_tag
_Z11wxCheckCastI17wxGenericListCtrlEPT_PKv
_Z11wxContextIdi
_Z11wxContextIdi.cold
_Z11wxCRT_PutsWPKw
_Z11wxDirExistsRK8wxString
_Z11wxGetEnvMapP23wxStringToStringHashMap
_Z11wxGetEnvMapP23wxStringToStringHashMap.cold
_Z11wxGetLocalev
_Z11wxGetUserIdPwi
_Z11wxGetUserIdv
_Z11wxGetUserIdv.cold
_Z11wxIsStockIDi
_Z11wxMatchWildRK8wxStringS1_b
_Z11wxNextMonthRN10wxDateTime5MonthE
_Z11wxPrevMonthRN10wxDateTime5MonthE
_Z11wxSafeYieldP8wxWindowb
_Z11wxSafeYieldP8wxWindowb.cold
_Z11wxSetCursorRK8wxCursor
_Z11wxSetlocaleiPKc
_Z11wxSetlocaleiRK8wxString
_Z11wxSplitPathR13wxArrayStringRK8wxString
_Z11wxSplitPathR13wxArrayStringRK8wxString.cold
_Z11wxVsnprintfPcmRK8wxStringP13__va_list_tag
_Z11wxVsnprintfPcmRK8wxStringP13__va_list_tag.cold
_Z11wxVsnprintfPwmRK8wxStringP13__va_list_tag
_Z12wxCmpNaturalRK8wxStringS1_
_Z12wxCRT_FputcWwP8_IO_FILE
_Z12wxDumpWindowPK12wxWindowBase
_Z12wxDumpWindowPK12wxWindowBase.cold
_Z12wxEntryStartRiPPc
_Z12wxEntryStartRiPPw
_Z12wxEntryStartRiPPw.cold
_Z12wxFileExistsRK8wxString
_Z12wxFromStringRK8wxStringP10wxFontBase
_Z12wxFromStringRK8wxStringP12wxColourBase
_Z12wxGetDataDirv
_Z12wxGetDataDirv.cold
_Z12wxGetDisplayv
_Z12wxGetHomeDirP8wxString
_Z12wxGetHomeDirP8wxString.cold
_Z12wxGetHomeDirv
_Z12wxGetHomeDirv.cold
_Z12wxGetUTCTimev
_Z12wxInitializeRiPPc
_Z12wxInitializeRiPPw
_Z12wxInitializev
_Z12wxIsReadableRK8wxString
_Z12wxIsReadableRK8wxString.cold
_Z12wxIsWritableRK8wxString
_Z12wxIsWritableRK8wxString.cold
_Z12wxMessageBoxRK8wxStringS1_lP8wxWindowii
_Z12wxMessageBoxRK8wxStringS1_lP8wxWindowii.cold
_Z12wxMicroSleepm
_Z12wxMilliSleepm
_Z12wxRegisterIdi
_Z12wxRemoveFileRK8wxString
_Z12wxRemoveFileRK8wxString.cold
_Z12wxRenameFileRK8wxStringS1_b
_Z12wxRenameFileRK8wxStringS1_b.cold
_Z12wxStartTimerv
_Z12wxTextAttrEqRK14wxRichTextAttrS1_
_Z12wxWakeUpIdlev
_Z13wxAuiChopTextR4wxDCRK8wxStringi
_Z13wxAuiChopTextR4wxDCRK8wxStringi.cold
_Z13wxCheckSetPenR4wxDCRK5wxPen
_Z13wxConcatFilesRK8wxStringS1_S1_
_Z13wxConcatFilesRK8wxStringS1_S1_.cold
_Z13wxCRT_GetenvWPKw
_Z13wxCRT_GetenvWPKw.cold
_Z13wxCRT_StrtokWPwPKwPS_
_Z13wxDirSelectorRK8wxStringS1_lRK7wxPointP8wxWindow
_Z13wxDirSelectorRK8wxStringS1_lRK7wxPointP8wxWindow.cold
_Z13wxDisplaySizePiS_
_Z13wxDoFloodFillP4wxDCiiRK8wxColour16wxFloodFillStyle
_Z13wxDoFloodFillP4wxDCiiRK8wxColour16wxFloodFillStyle.cold
_Z13wxGetFileKindi
_Z13wxGetFileKindP8_IO_FILE
_Z13wxGetHostNamePwi
_Z13wxGetHostNamev
_Z13wxGetHostNamev.cold
_Z13wxGetKeyState9wxKeyCode
_Z13wxGetKeyState9wxKeyCode.cold
_Z13wxGetTimeZonev
_Z13wxGetUserHomeRK8wxString
_Z13wxGetUserHomeRK8wxString.cold
_Z13wxGetUserNamePwi
_Z13wxGetUserNamev
_Z13wxGetUserNamev.cold
_Z13wxPGGetFailedPK12wxPGPropertyRK8wxString
_Z13wxPGGetFailedPK12wxPGPropertyRK8wxString.cold
_Z13wxSetIconsX11PvS_RK12wxIconBundle
_Z13wxSetIconsX11PvS_RK12wxIconBundle.cold
_Z13wxSysErrorMsgm
_Z14nsvg__parseXMLPcPFvPvPKcPS2_EPFvS0_S2_ES7_S0_
_Z14wxBase64DecodePKcm18wxBase64DecodeModePm
_Z14wxBase64DecodePKcm18wxBase64DecodeModePm.cold
_Z14wxBase64DecodePvmPKcm18wxBase64DecodeModePm
_Z14wxBase64EncodePcmPKvm
_Z14wxCallStrftimeRK8wxStringPK2tm
_Z14wxCallStrftimeRK8wxStringPK2tm.cold
_Z14wxColourFromCDR13ColourDesired
_Z14wxColourFromCDR13ColourDesired.cold
_Z14wxDisplayDepthv
_Z14wxEntryCleanupv
_Z14wxFileSelectorRK8wxStringS1_S1_S1_S1_iP8wxWindowii
_Z14wxFileSelectorRK8wxStringS1_S1_S1_S1_iP8wxWindowii.cold
_Z14wxFindNextFilev
_Z14wxFindNextFilev.cold
_Z14wxGetCurrentIdv
_Z14wxGetDiskSpaceRK8wxStringP16wxLongLongNativeS3_
_Z14wxGetDiskSpaceRK8wxStringP16wxLongLongNativeS3_.cold
_Z14wxGetLocalTimev
_Z14wxGetLocalTimev.cold
_Z14wxGetOsVersionPiS_S_
_Z14wxGetOsVersionPiS_S_.cold
_Z14wxGetPowerTypev
_Z14wxGetProcessIdv
_Z14wxIsExecutableRK8wxString
_Z14wxIsExecutableRK8wxString.cold
_Z14wxIsStockLabeliRK8wxString
_Z14wxIsStockLabeliRK8wxString.cold
_Z14wxNewEventTypev
_Z14wxSysErrorCodev
_Z14wxUninitializev
_Z14wxX11_GetModesPK13wxDisplayImplRK11wxVideoModeP9_XDisplay
_Z14wxX11_GetModesPK13wxDisplayImplRK11wxVideoModeP9_XDisplay.cold
_Z15wxAssertIsEqualii
_Z15wxCharCodeWXToXi
_Z15wxCharCodeXToWXm
_Z15wxCheckSetBrushR4wxDCRK7wxBrush
_Z15wxColourDisplayv
_Z15wxCRT_VsprintfWPwPKwP13__va_list_tag
_Z15wxDisplaySizeMMPiS_
_Z15wxDumpGtkWidgetP10_GtkWidget
_Z15wxDumpGtkWidgetP10_GtkWidget.cold
_Z15wxEndBusyCursorv
_Z15wxEndBusyCursorv.cold
_Z15wxExpandEnvVarsRK8wxString
_Z15wxExpandEnvVarsRK8wxString.cold
_Z15wxFindFirstFileRK8wxStringi
_Z15wxFindFirstFileRK8wxStringi.cold
_Z15wxGetDisplayPPIv
_Z15wxGetFreeMemoryv
_Z15wxGetFreeMemoryv.cold
_Z15wxGetMouseStatev
_Z15wxGetStockGtkIDi
_Z15wxGetStockLabelil
_Z15wxGetStockLabelil.cold
_Z15wxMutexGuiEnterv
_Z15wxMutexGuiLeavev
_Z15wxYieldIfNeededv
_Z16wxCheckOsVersioniii
_Z16wxCreateTempFileRK8wxStringP6wxFilePS_
_Z16wxCreateTempFileRK8wxStringP7wxFFilePS_
_Z16wxDoSprintfWcharPcPKwz
_Z16wxDoSprintfWcharPcPKwz.cold
_Z16wxDoSprintfWcharPwPKwz
_Z16wxDoSprintfWcharPwPKwz.cold
_Z16wxFileSelectorExRK8wxStringS1_S1_PiS1_iP8wxWindowii
_Z16wxFileSelectorExRK8wxStringS1_S1_PiS1_iP8wxWindowii.cold
_Z16wxFindFileInPathP8wxStringRKS_S2_
_Z16wxFindFileInPathP8wxStringRKS_S2_.cold
_Z16wxFindMenuItemIdP7wxFrameRK8wxStringS3_
_Z16wxGetAltTextAtomv
_Z16wxGetContentRect6wxSizeRK6wxRectii
_Z16wxGetDisplayInfov
_Z16wxGetDisplaySizev
_Z16wxGetElapsedTimeb
_Z16wxGetOSDirectoryv
_Z16wxGetTopLevelGDKv
_Z16wxGetTopLevelGTKv
_Z16wxGetTranslationRK8wxStringS1_S1_
_Z16wxGetUTCTimeUSecv
_Z16wxGetWorkAreaX11P6ScreenRiS1_S1_S1_
_Z16wxGet_wxConvLibcv
_Z16wxInfoMessageBoxP8wxWindow
_Z16wxInfoMessageBoxP8wxWindow.cold
_Z16wxIsAbsolutePathRK8wxString
_Z16wxIsCDATAElementPKw
_Z16wxIsCDATAElementRK8wxString
_Z16wxIsDragResultOk12wxDragResult
_Z16wxRichTextTabsEqRK10wxArrayIntS1_
_Z16wxStringTokenizeRK8wxStringS1_21wxStringTokenizerMode
_Z16wxStringTokenizeRK8wxStringS1_21wxStringTokenizerMode.cold
_Z16wxStripMenuCodesRK8wxStringi
_Z16wxStripMenuCodesRK8wxStringi.cold
_Z16wxSysErrorMsgStrm
_Z17wxBeginBusyCursorPK8wxCursor
_Z17wxDoSnprintfWcharPcmPKwz
_Z17wxDoSnprintfWcharPcmPKwz.cold
_Z17wxDoSnprintfWcharPwmPKwz
_Z17wxDoSnprintfWcharPwmPKwz.cold
_Z17wxDrawImageBitmapP8wxWindowRK12wxWithImagesiR4wxDCii
_Z17wxGenericAboutBoxRK17wxAboutDialogInfoP8wxWindow
_Z17wxGenericAboutBoxRK17wxAboutDialogInfoP8wxWindow.cold
_Z17wxGetActiveWindowv
_Z17wxGetBatteryStatev
_Z17wxGetEmailAddressPwi
_Z17wxGetEmailAddressv
_Z17wxGetEmailAddressv.cold
_Z17wxGetFontFromUserP8wxWindowRK6wxFontRK8wxString
_Z17wxGetFontFromUserP8wxWindowRK6wxFontRK8wxString.cold
_Z17wxGetFrameExtentsP10_GdkWindowPiS1_S1_S1_
_Z17wxGetFrameExtentsP10_GdkWindowPiS1_S1_S1_.cold
_Z17wxGetFullHostNamePwi
_Z17wxGetFullHostNamePwi.cold
_Z17wxGetFullHostNamev
_Z17wxGetFullHostNamev.cold
_Z17wxGetPangoContextv
_Z17wxGetSingleChoiceRK8wxStringS1_iPS0_iP8wxWindow
_Z17wxGetSingleChoiceRK8wxStringS1_iPS0_P8wxWindowiibiii
_Z17wxGetSingleChoiceRK8wxStringS1_iPS0_P8wxWindowiibiii.cold
_Z17wxGetSingleChoiceRK8wxStringS1_RK13wxArrayStringiP8wxWindow
_Z17wxGetSingleChoiceRK8wxStringS1_RK13wxArrayStringP8wxWindowiibiii
_Z17wxGetSingleChoiceRK8wxStringS1_RK13wxArrayStringP8wxWindowiibiii.cold
_Z17wxGetTextFromUserRK8wxStringS1_S1_P8wxWindowiib
_Z17wxGetTextFromUserRK8wxStringS1_S1_P8wxWindowiib.cold
_Z17wxIsPlatform64Bitv
_Z17wxSafeShowMessageRK8wxStringS1_
_Z17wxSafeShowMessageRK8wxStringS1_.cold
_Z17wxSetFocusToChildP8wxWindowPS0_
_Z17wxSetFocusToChildP8wxWindowPS0_.cold
_Z17wxSetlocaleTryAlliRK13wxLocaleIdent
_Z17wxSetlocaleTryAlliRK13wxLocaleIdent.cold
_Z17wxStrnicmp_StringIPKwEiRK8wxStringRKT_m
_Z18new_wxMBConv_iconvPKc
_Z18new_wxMBConv_iconvPKc.cold
_Z18new_wxMBConv_wxwinPKc
_Z18new_wxMBConv_wxwinPKc.cold
_Z18wxAnyConvertStringRK8wxStringP14wxAnyValueTypeR16wxAnyValueBuffer
_Z18wxAnyConvertStringRK8wxStringP14wxAnyValueTypeR16wxAnyValueBuffer.cold
_Z18wxCheckDynamicCastP8wxObjectP11wxClassInfo
_Z18wxDeleteStockListsv
_Z18wxFileNameFromPathPw
_Z18wxFileNameFromPathPw.cold
_Z18wxFileNameFromPathRK8wxString
_Z18wxFileNameFromPathRK8wxString.cold
_Z18wxFindWindowByNameRK8wxStringP8wxWindow
_Z18wxGetDisplaySizeMMv
_Z18wxGetInstallPrefixv
_Z18wxGetInstallPrefixv.cold
_Z18wxGetLanguageInfosv
_Z18wxGetMousePositionPiS_
_Z18wxGetMousePositionv
_Z18wxGetOsDescriptionv
_Z18wxGetOsDescriptionv.cold
_Z18wxGetUTCTimeMillisv
_Z18wxGetUTCTimeMillisv.cold
_Z18wxLoadFileSelectorRK8wxStringS1_S1_P8wxWindow
_Z18wxRibbonLoadPixmapPKPKc8wxColour
_Z18wxRibbonLoadPixmapPKPKc8wxColour.cold
_Z18wxSaveFileSelectorRK8wxStringS1_S1_P8wxWindow
_Z18wxSecureZeroMemoryPvm
_Z18wxTestFontEncodingRK20wxNativeEncodingInfo
_Z18wxUseFilterClassesv
_Z19BitmapFromRGBAImageiiPKh
_Z19BitmapFromRGBAImageiiPKh.cold
_Z19wxAuiBitmapFromBitsPKhiiRK8wxColour
_Z19wxAuiBitmapFromBitsPKhiiRK8wxColour.cold
_Z19wxClientDisplayRectPiS_S_S_
_Z19wxCmpNaturalGenericRK8wxStringS1_
_Z19wxCmpNaturalGenericRK8wxStringS1_.cold
_Z19wxFindWindowAtPointP8wxWindowRK7wxPoint
_Z19wxFindWindowAtPointP8wxWindowRK7wxPoint.localalias
_Z19wxFindWindowAtPointRK7wxPoint
_Z19wxFindWindowByLabelRK8wxStringP8wxWindow
_Z19wxGetColourFromUserP8wxWindowRK8wxColourRK8wxStringP12wxColourData
_Z19wxGetColourFromUserP8wxWindowRK8wxColourRK8wxStringP12wxColourData.cold
_Z19wxGetDateFormatOnlyRK8wxString
_Z19wxGetDateFormatOnlyRK8wxString.cold
_Z19wxGetNumberFromUserRK8wxStringS1_S1_lllP8wxWindowRK7wxPoint
_Z19wxGetNumberFromUserRK8wxStringS1_S1_lllP8wxWindowRK7wxPoint.cold
_Z19wxGetStdCLocaleInfo12wxLocaleInfo16wxLocaleCategory
_Z19wxGetTopLevelParentP12wxWindowBase
_Z19wxGet_wxConvLibcPtrv
_Z19wxGet_wxConvUTF7Ptrv
_Z19wxGet_wxConvUTF8Ptrv
_Z19wxMutexGuiEnterImplv
_Z19wxMutexGuiLeaveImplv
_Z19wxUseArchiveClassesv
_Z20PRectangleFromwxRect6wxRect
_Z20wxCreateTempFileNameRK8wxStringP6wxFilePb
_Z20wxCreateTempFileNameRK8wxStringP7wxFFilePb
_Z20wxGetAccelFromStringRK8wxString
_Z20wxGetAvailableDrivesR13wxArrayStringS0_R10wxArrayInt
_Z20wxGetAvailableDrivesR13wxArrayStringS0_R10wxArrayInt.cold
_Z20wxGetLocalTimeMillisv
_Z20wxGetSelectedChoicesR10wxArrayIntRK8wxStringS3_iPS2_P8wxWindowiibii
_Z20wxGetSelectedChoicesR10wxArrayIntRK8wxStringS3_iPS2_P8wxWindowiibii.cold
_Z20wxGetSelectedChoicesR10wxArrayIntRK8wxStringS3_RK13wxArrayStringP8wxWindowiibii
_Z20wxGetSelectedChoicesR10wxArrayIntRK8wxStringS3_RK13wxArrayStringP8wxWindowiibii.cold
_Z20wxGetStockHelpStringi23wxStockHelpStringClient
_Z20wxGetStockHelpStringi23wxStockHelpStringClient.cold
_Z20wxGet_wxConvLocalPtrv
_Z20wxGet_wxConvLocalPtrv.cold
_Z20wxGetZlibVersionInfov
_Z20wxGetZlibVersionInfov.cold
_Z20wxGTKRemoveMnemonicsRK8wxString
_Z20wxRectFromPRectangle10PRectangle
_Z20wxRichTextApplyStyleR14wxRichTextAttrRKS_PS_
_Z20wxRichTextModuleInitv
_Z20wxSizeRefFromVariantR9wxVariant
_Z20wxSizeRefFromVariantRK9wxVariant
_Z20wxSizeRefFromVariantRK9wxVariant.cold
_Z20wxSizeRefFromVariantRK9wxVariant.localalias
_Z20wxUpdateLocaleIsUtf8v
_Z21gtk_assert_dialog_newv
_Z21wxConvertAnyToVariantRK5wxAnyP9wxVariant
_Z21wxConvertAnyToVariantRK5wxAnyP9wxVariant.cold
_Z21wxCreateDynamicObjectRK8wxString
_Z21wxFindFocusDescendantP8wxWindow
_Z21wxFindWindowAtPointerR7wxPoint
_Z21wxGetPasswordFromUserRK8wxStringS1_S1_P8wxWindowiib
_Z21wxGetPasswordFromUserRK8wxStringS1_S1_P8wxWindowiib.cold
_Z21wxGetSingleChoiceDataRK8wxStringS1_iPS0_PPviP8wxWindow
_Z21wxGetSingleChoiceDataRK8wxStringS1_iPS0_PPvP8wxWindowiibiii
_Z21wxGetSingleChoiceDataRK8wxStringS1_iPS0_PPvP8wxWindowiibiii.cold
_Z21wxGetSingleChoiceDataRK8wxStringS1_RK13wxArrayStringPPviP8wxWindow
_Z21wxGetSingleChoiceDataRK8wxStringS1_RK13wxArrayStringPPvP8wxWindowiibiii
_Z21wxGetSingleChoiceDataRK8wxStringS1_RK13wxArrayStringPPvP8wxWindowiibiii.cold
_Z21wxGetStockAcceleratori
_Z21wxPointRefFromVariantR9wxVariant
_Z21wxPointRefFromVariantRK9wxVariant
_Z21wxPointRefFromVariantRK9wxVariant.cold
_Z21wxPointRefFromVariantRK9wxVariant.localalias
_Z21wxRichTextRemoveStyleR14wxRichTextAttrRKS_
_Z21wxScanfConvertFormatWPKw
_Z21wxScanfConvertFormatWPKw.cold
_Z21wxSetWorkingDirectoryRK8wxString
_Z21wxSetWorkingDirectoryRK8wxString.cold
_Z22wxAuiGetColourContrastRK8wxColourS1_
_Z22wxColourFromCDandAlphaR13ColourDesiredi
_Z22wxColourFromCDandAlphaR13ColourDesiredi.cold
_Z22wxFileModificationTimeRK8wxString
_Z22wxFileModificationTimeRK8wxString.cold
_Z22wxGetClientDisplayRectv
_Z22wxGetSingleChoiceIndexRK8wxStringS1_iPS0_iP8wxWindow
_Z22wxGetSingleChoiceIndexRK8wxStringS1_iPS0_P8wxWindowiibiii
_Z22wxGetSingleChoiceIndexRK8wxStringS1_iPS0_P8wxWindowiibiii.cold
_Z22wxGetSingleChoiceIndexRK8wxStringS1_RK13wxArrayStringiP8wxWindow
_Z22wxGetSingleChoiceIndexRK8wxStringS1_RK13wxArrayStringP8wxWindowiibiii
_Z22wxGetSingleChoiceIndexRK8wxStringS1_RK13wxArrayStringP8wxWindowiibiii.cold
_Z22wxInitAllImageHandlersv
_Z22wxInitAllImageHandlersv.cold
_Z22wxInitializeStockListsv
_Z22wxInitializeStockListsv.cold
_Z22wxLaunchDefaultBrowserRK8wxStringi
_Z22wxLaunchDefaultBrowserRK8wxStringi.cold
_Z22wx_pango_version_checkiii
_Z22wxPGInitResourceModulev
_Z22wxRibbonShiftLuminance17wxRibbonHSLColourf
_Z22wxTransferFileToStreamRK8wxStringRSo
_Z22wxTransferFileToStreamRK8wxStringRSo.cold
_Z22wxTransferStreamToFileRSiRK8wxString
_Z22wxTransferStreamToFileRSiRK8wxString.cold
_Z23wxConvertMnemonicsToGTKRK8wxString
_Z23wxCreateFileTipProviderRK8wxStringm
_Z23wxCreateFileTipProviderRK8wxStringm.cold
_Z23wxEnableTopLevelWindowsb
_Z23wxEndsWithPathSeparatorRK8wxString
_Z23wxGetLibraryVersionInfov
_Z23wxGetLibraryVersionInfov.cold
_Z23wxGetNativeFontEncoding14wxFontEncodingP20wxNativeEncodingInfo
_Z23wxHandleFatalExceptionsb
_Z23wxHandleFatalExceptionsb.cold
_Z23wxPGTypeOperationFailedPK12wxPGPropertyRK8wxStringS4_
_Z23wxPGTypeOperationFailedPK12wxPGPropertyRK8wxStringS4_.cold
_Z23wxSetFullScreenStateX11PvS_S_bP6wxRect21wxX11FullScreenMethod
_Z23wxXmlInitResourceModulev
_Z24wxArrayIntRefFromVariantR9wxVariant
_Z24wxArrayIntRefFromVariantRK9wxVariant
_Z24wxArrayIntRefFromVariantRK9wxVariant.cold
_Z24wxArrayIntRefFromVariantRK9wxVariant.localalias
_Z24wxAuiLightContrastColourRK8wxColour
_Z24wxDoLaunchDefaultBrowserRK21wxLaunchBrowserParams
_Z24wxDoLaunchDefaultBrowserRK21wxLaunchBrowserParams.cold
_Z24wxGetCpuArchitectureNamev
_Z24wxGetCpuArchitectureNamev.cold
_Z24wxGetFullScreenMethodX11PvS_
_Z24wxGetFullScreenMethodX11PvS_.cold
_Z24wxGet_wxConvISO8859_1Ptrv
_Z24wxGet_wxConvISO8859_1Ptrv.cold
_Z24wxIsPlatformLittleEndianv
_Z24wxRichTextDecimalToRomanl
_Z24wxRichTextDecimalToRomanl.cold
_Z25wxAuiGetRelativeLuminanceRK8wxColour
_Z25wxConvertMnemonicsFromGTKRK8wxString
_Z25wxConvertMnemonicsFromGTKRK8wxString.cold
_Z25_wx_link_dummy_func_m_prev
_Z25wxPreRegisterAnyToVariantP26wxAnyToVariantRegistration
_Z25wxRibbonInterpolateColourRK8wxColourS1_iii
_Z25wxRibbonInterpolateColourRK8wxColourS1_iii.cold
_Z25wxRichTextCombineBitlistsRiiS_i
_Z25wxRichTextFloatRectMapCmpP22wxRichTextFloatRectMapS0_
_Z25wxSetDefaultAssertHandlerv
_Z25wxSetDetectableAutoRepeatb
_Z26gtk_assert_dialog_get_typev
_Z26wxGenericFindWindowAtPointRK7wxPoint
_Z26wxGetLinuxDistributionInfov
_Z26wxGetLinuxDistributionInfov.cold
_Z26wxLaunchDefaultApplicationRK8wxStringi
_Z26wxLaunchDefaultApplicationRK8wxStringi.cold
_Z26_wx_link_dummy_func_m_listv
_Z26_wx_link_dummy_func_m_spanv
_Z26wxParseCommonDialogsFilterRK8wxStringR13wxArrayStringS3_
_Z26wxParseCommonDialogsFilterRK8wxStringR13wxArrayStringS3_.cold
_Z27_wx_link_dummy_func_m_fontsv
_Z27_wx_link_dummy_func_m_hlinev
_Z27_wx_link_dummy_func_m_imagev
_Z27_wx_link_dummy_func_m_linksv
_Z27_wx_link_dummy_func_m_stylev
_Z27wxPGGetDefaultImageWildcardv
_Z27wxPGGetDefaultImageWildcardv.cold
_Z27wxRichTextBitlistsEqPartialiii
_Z28wxGenerateFileActivatedEventP14wxFileCtrlBaseP8wxWindowRK8wxString
_Z28wxGenerateFileActivatedEventP14wxFileCtrlBaseP8wxWindowRK8wxString.cold
_Z28wxGenerateFilterChangedEventP14wxFileCtrlBaseP8wxWindow
_Z28wxGenerateFilterChangedEventP14wxFileCtrlBaseP8wxWindow.cold
_Z28wxGenerateFolderChangedEventP14wxFileCtrlBaseP8wxWindow
_Z28wxGenerateFolderChangedEventP14wxFileCtrlBaseP8wxWindow.cold
_Z28wxGet_wxConvWhateverWorksPtrv
_Z28_wx_link_dummy_func_m_dflistv
_Z28_wx_link_dummy_func_m_layoutv
_Z28_wx_link_dummy_func_m_tablesv
_Z29gtk_assert_dialog_get_messageP16_GtkAssertDialog
_Z29gtk_assert_dialog_set_messageP16_GtkAssertDialogPKc
_Z29wxConvertMnemonicsToGTKMarkupRK8wxString
_Z29_wx_link_dummy_func_gtk_printv
_Z29wxRichTextSplitParaCharStylesRK14wxRichTextAttrRS_S2_
_Z30wxGetNativeCpuArchitectureNamev
_Z30wxVariantDataFromConstCharPAnyRK5wxAny
_Z30wxVariantDataFromConstCharPAnyRK5wxAny.cold
_Z31gtk_assert_dialog_get_backtraceP16_GtkAssertDialog
_Z31wxGenerateSelectionChangedEventP14wxFileCtrlBaseP8wxWindow
_Z31wxGenerateSelectionChangedEventP14wxFileCtrlBaseP8wxWindow.cold
_Z31wxRibbonCanLabelBreakAtPositionRK8wxStringm
_Z33wxDefaultArtProvider_CreateBitmapRK8wxString
_Z33wxPropertyGridInitGlobalsIfNeededv
_Z33wxRibbonDrawParallelGradientLinesR4wxDCiPK7wxPointiiiiiRK8wxColourS6_
_Z33wxRibbonDrawParallelGradientLinesR4wxDCiPK7wxPointiiiiiRK8wxColourS6_.cold
_Z33wxTextAttrCollectCommonAttributesR10wxTextAttrRKS_S0_S0_
_Z33wxTextAttrCollectCommonAttributesR10wxTextAttrRKS_S0_S0_.cold
_Z33wxVariantDataFromConstWchar_tPAnyRK5wxAny
_Z33wxVariantDataFromConstWchar_tPAnyRK5wxAny.cold
_Z35_wx_link_dummy_func_socketiohandlerv
_Z36gtk_assert_dialog_append_stack_frameP16_GtkAssertDialogPKcS2_j
_Z40gtk_assert_dialog_set_backtrace_callbackP16_GtkAssertDialogPFvPvES1_
_Z4endlR18wxTextOutputStream
_Z5wxCTZj
_Z5wxGCDjj
_Z5wxNowv
_Z6stc2wxPKc
_Z6stc2wxPKc.cold
_Z6stc2wxPKcm
_Z6stc2wxPKcm.cold
_Z6wx2stcRK8wxString
_Z6wx2stcRK8wxString.cold
_Z6wxAtoiRK8wxString
_Z6wxBellv
_Z6wxEndLR14wxOutputStream
_Z6wxEndLR14wxOutputStream.cold
_Z6wxExitv
_Z6wxJoinRK13wxArrayStringww
_Z6wxJoinRK13wxArrayStringww.cold
_Z6wxKilll8wxSignalP11wxKillErrori
_Z6wxKilll8wxSignalP11wxKillErrori.cold
_Z6wxPutsRK8wxString
_Z6wxPutsRK8wxString.cold
_Z7wxAbortv
_Z7wxEntryRiPPc
_Z7wxEntryRiPPw
_Z7wxEntryRiPPw.cold
_Z7wxFgetsPwiP8_IO_FILE
_Z7wxFgetsPwiP8_IO_FILE.cold
_Z7wxFopenRK8wxStringS1_
_Z7wxFputcRK9wxUniCharP8_IO_FILE
_Z7wxFputsRK8wxStringP8_IO_FILE
_Z7wxMB2WCPwPKcm
_Z7wxMkdirRK8wxStringi
_Z7wxMkdirRK8wxStringi.cold
_Z7wxNewIdv
_Z7wxQsortPvmmPFiPKvS1_S1_ES1_
_Z7wxRmdirRK8wxStringi
_Z7wxRmdirRK8wxStringi.cold
_Z7wxRoundd
_Z7wxShellRK8wxString
_Z7wxShellRK8wxString.cold
_Z7wxShellRK8wxStringR13wxArrayString
_Z7wxShellRK8wxStringR13wxArrayString.cold
_Z7wxSleepi
_Z7wxSplitRK8wxStringww
_Z7wxSplitRK8wxStringww.cold
_Z7wxWC2MBPcPKwm
_Z7wxYieldv
_Z8DoReadLLI16wxLongLongNativeEvPT_mP13wxInputStreamb
_Z8DoReadLLI17wxULongLongNativeEvPT_mP13wxInputStreamb
_Z8wxGetCwdv
_Z8wxGetCwdv.cold
_Z8wxGetEnvRK8wxStringPS_
_Z8wxGetEnvRK8wxStringPS_.cold
_Z8wxInitTmR2tm
_Z8wxIsBusyv
_Z8wxIsWildRK8wxString
_Z8wxPerrorRK8wxString
_Z8wxPerrorRK8wxString.cold
_Z8wxSetEnvRK8wxStringS1_
_Z8wxSetEnvRK8wxStringS1_.cold
_Z8wxSscanfIPfEiRK10wxCStrDataPKwT_.isra.0
_Z8wxSscanfIPfEiRK10wxCStrDataPKwT_.isra.0.cold
_Z8wxSscanfIPjEiPKwS2_T_
_Z8wxStrdupPKt
_Z8wxStrlenPKt
_Z9DoWriteLLI16wxLongLongNativeEvPKT_mP14wxOutputStreamb
_Z9DoWriteLLI17wxULongLongNativeEvPKT_mP14wxOutputStreamb
_Z9wxExecutePKPKciP9wxProcessPK12wxExecuteEnv
_Z9wxExecutePKPKciP9wxProcessPK12wxExecuteEnv.cold
_Z9wxExecutePKPKwiP9wxProcessPK12wxExecuteEnv
_Z9wxExecutePKPKwiP9wxProcessPK12wxExecuteEnv.cold
_Z9wxExecuteRK8wxStringiP9wxProcessPK12wxExecuteEnv
_Z9wxExecuteRK8wxStringiP9wxProcessPK12wxExecuteEnv.cold
_Z9wxExecuteRK8wxStringR13wxArrayStringiPK12wxExecuteEnv
_Z9wxExecuteRK8wxStringR13wxArrayStringS3_iPK12wxExecuteEnv
_Z9wxShowTipP8wxWindowP13wxTipProviderb
_Z9wxShowTipP8wxWindowP13wxTipProviderb.cold
_Z9wxUIntCmpjj
_Z9wxVsscanfPKcS0_P13__va_list_tag
_Z9wxVsscanfPKwS0_P13__va_list_tag
_Z9wxVsscanfRK10wxCStrDataPKcP13__va_list_tag
_Z9wxVsscanfRK10wxCStrDataPKcP13__va_list_tag.cold
_Z9wxVsscanfRK10wxCStrDataPKwP13__va_list_tag
_Z9wxVsscanfRK10wxCStrDataPKwP13__va_list_tag.cold
_Z9wxVsscanfRK12wxCharBufferPKcP13__va_list_tag
_Z9wxVsscanfRK13wxWCharBufferPKwP13__va_list_tag
_Z9wxVsscanfRK8wxStringPKcP13__va_list_tag
_Z9wxVsscanfRK8wxStringPKcP13__va_list_tag.cold
_Z9wxVsscanfRK8wxStringPKwP13__va_list_tag
_ZeqRK10wxArrayIntS1_
_ZeqRK21wxColourPropertyValueS1_
_ZeqRK8wxStringS1_.part.0
_ZGVN18wxAnyValueTypeImplI10wxArrayIntE11sm_instanceE
_ZGVN18wxAnyValueTypeImplI13wxArrayStringE11sm_instanceE
_ZGVN18wxAnyValueTypeImplI14wxBitmapBundleE11sm_instanceE
_ZGVN18wxAnyValueTypeImplI18wxDataViewIconTextE11sm_instanceE
_ZGVN18wxAnyValueTypeImplI21wxColourPropertyValueE11sm_instanceE
_ZGVN18wxAnyValueTypeImplI23wxDataViewCheckIconTextE11sm_instanceE
_ZGVN18wxAnyValueTypeImplI6wxFontE11sm_instanceE
_ZGVN18wxAnyValueTypeImplI6wxIconE11sm_instanceE
_ZGVN18wxAnyValueTypeImplI6wxSizeE11sm_instanceE
_ZGVN18wxAnyValueTypeImplI7wxImageE11sm_instanceE
_ZGVN18wxAnyValueTypeImplI7wxPointE11sm_instanceE
_ZGVN18wxAnyValueTypeImplI8wxBitmapE11sm_instanceE
_ZGVN18wxAnyValueTypeImplI8wxColourE11sm_instanceE
_ZGVN18wxAnyValueTypeImplI9wxAnyListE11sm_instanceE
_ZGVN18wxAnyValueTypeImplI9wxUniCharE11sm_instanceE
_ZGVN18wxAnyValueTypeImplI9wxVariantE11sm_instanceE
_ZGVN18wxAnyValueTypeImplIP8wxObjectE11sm_instanceE
_ZGVN18wxAnyValueTypeImplIPvE11sm_instanceE
_ZGVZ13wxCRT_GetenvWPKwE5value
_ZGVZ15wxDumpGtkWidgetP10_GtkWidgetE1s
_ZGVZ17wxGetFrameExtentsP10_GdkWindowPiS1_S1_S1_E8property
_ZGVZ19wxGetColourFromUserP8wxWindowRK8wxColourRK8wxStringP12wxColourDataE15s_strColourData
_ZGVZ19wxGet_wxConvLibcPtrvE13wxConvLibcObj
_ZGVZ19wxGet_wxConvUTF7PtrvE13wxConvUTF7Obj
_ZGVZ19wxGet_wxConvUTF8PtrvE13wxConvUTF8Obj
_ZGVZ20wxGet_wxConvLocalPtrvE14wxConvLocalObj
_ZGVZ21property_notify_eventE8property
_ZGVZ24wxGet_wxConvISO8859_1PtrvE18wxConvISO8859_1Obj
_ZGVZ24wxRichTextDecimalToRomanlE12romanNumbers
_ZGVZ24wxRichTextDecimalToRomanlE14decimalNumbers
_ZGVZ28wxGet_wxConvWhateverWorksPtrvE22wxConvWhateverWorksObj
_ZGVZ6wxEndLR14wxOutputStreamE3eol
_ZGVZL12wxGetTarUservE2cs
_ZGVZL12wxGetTarUservE2tu
_ZGVZL22GetAnyValueTypeGlobalsvE23s_wxAnyValueTypeGlobals
_ZGVZN11wxAppTraits14GetFDIOManagerEvE9s_manager
_ZGVZN11wxAppTraits26GetEventLoopSourcesManagerEvE25s_eventLoopSourcesManager
_ZGVZN11wxLogDialog21CreateDetailsControlsEP8wxWindowE5icons
_ZGVZN12_GLOBAL__N_110TraceMasksEvE12s_traceMasks
_ZGVZN12_GLOBAL__N_111GetLevelsCSEvE10s_LevelsCS
_ZGVZN12_GLOBAL__N_113ParseFormatAtERN8wxString14const_iteratorERKS1_RKS0_S6_E5dtDef
_ZGVZN12_GLOBAL__N_114GetTraceMaskCSEvE13s_TraceMaskCS
_ZGVZN12_GLOBAL__N_117GetAllThreadInfosEvE16s_allThreadInfos
_ZGVZN12_GLOBAL__N_117GetThisThreadInfoEvE16s_thisThreadInfo
_ZGVZN12_GLOBAL__N_118GetBackgroundLogCSEvE17s_BackgroundLogCS
_ZGVZN12_GLOBAL__N_118GetComponentLevelsEvE17s_ComponentLevels
_ZGVZN12_GLOBAL__N_119GetAllThreadInfosCSEvE18s_csAllThreadInfos
_ZGVZN12wxButtonBase14GetDefaultSizeEP8wxWindowE4size
_ZGVZN12wxDialogBase13OnCloseWindowER12wxCloseEventE7closing
_ZGVZN13ManagerSetterC4EvE9s_manager
_ZGVZN13wxRendererPtr3GetEvE10s_renderer
_ZGVZN14wxFileProperty17GetClassValidatorEvE1v
_ZGVZN14wxGUIAppTraits14GetFDIOManagerEvE9s_manager
_ZGVZN14wxGUIAppTraits26GetEventLoopSourcesManagerEvE25s_eventLoopSourcesManager
_ZGVZN16wxAppConsoleBase14GetValidTraitsEvE15s_traitsConsole
_ZGVZN16wxRendererNative10GetDefaultEvE13s_rendererGTK
_ZGVZN19wxFileSystemHandler16GetRightLocationERK8wxStringE10colonLower
_ZGVZN19wxFileSystemHandler16GetRightLocationERK8wxStringE10colonUpper
_ZGVZN19wxFileSystemHandler16GetRightLocationERK8wxStringE8protocol
_ZGVZN19wxFileSystemHandler18GetMimeTypeFromExtERK8wxStringE9fallbacks
_ZGVZN19wxFindReplaceDialog6CreateEP8wxWindowP17wxFindReplaceDataRK8wxStringiE16searchDirections
_ZGVZN19wxTopLevelWindowGTK18GetCachedDecorSizeEvE4size
_ZGVZN20wxGenericAboutDialog18AddCollapsiblePaneERK8wxStringS2_E8maxWidth
_ZGVZN20wxMouseEventsManager6OnMoveER12wxMouseEventE8dragMinX
_ZGVZN20wxMouseEventsManager6OnMoveER12wxMouseEventE8dragMinY
_ZGVZN20wxPersistenceManager3GetEvE9s_manager
_ZGVZN22wxGridCellBoolRenderer14GetMaxBestSizeER6wxGridR14wxGridCellAttrR4wxDCE15s_sizeCheckMark
_ZGVZN5wxApp10InitializeERiPPwE8fileconv
_ZGVZN5wxApp22GTKSuppressDiagnosticsEiE11s_logFilter
_ZGVZN7wxRegEx9QuoteMetaERK8wxStringE14s_strMetaChars
_ZGVZN8wxWindow15GTKUpdateCursorEbbPK8wxCursorE6sig_id
_ZGVZN9wxPrivate18GetUntypedNullDataEvE17s_untypedNullData
_ZGVZNK12wxPGProperty7GetCellEjE11invalidCell
_ZGVZNK12wxWindowBase14GetDlgUnitBaseEvE13s_defFontSize
_ZGVZNK14wxGUIAppTraits21GetDesktopEnvironmentEvE4s_SM
_ZGVZNK14wxTreeListCtrl11GetItemTextE14wxTreeListItemjE7s_empty
_ZGVZNK15wxComboCtrlBase21DoGetSizeFromTextSizeEiiE11s_last_font
_ZGVZNK15wxStandardPaths10GetDataDirEvE11envOverride
_ZGVZNK19wxGridRowOperations4DualEvE9s_colOper
_ZGVZNK20wxRichTextProperties11GetPropertyERK8wxStringE11nullVariant
_ZGVZNK22wxGridColumnOperations4DualEvE9s_rowOper
_ZL10close_bits
_ZL10delete_xpm
_ZL10dir_up_xpm
_ZL10floppy_xpm
_ZL10folder_xpm
_ZL10gs_cLocale
_ZL10gs_dirPath
_ZL10gs_factory
_ZL10gs_keySelf
_ZL10MatchPixelP7wxImageiiiiRK8wxColour
_ZL10nsvg__atofPKc
_ZL10PaletteAddP19wxLongToLongHashMapRK18png_color_8_struct
_ZL10ReadStringR13wxInputStreamtR8wxMBConv
_ZL10ReadStringR13wxInputStreamtR8wxMBConv.cold
_ZL10ReadStringR8wxStringP13wxInputStreamR8wxMBConv
_ZL10ReadStringR8wxStringP13wxInputStreamR8wxMBConv.cold
_ZL10right_bits
_ZL10utf7encode
_ZL10_WIN_LAYER
_ZL10wxKeyNames
_ZL11AllAsStringRK13wxArrayString
_ZL11AllAsStringRK13wxArrayString.cold
_ZL11CrackUint64PKc
_ZL11csquery_xpm
_ZL11deffile_xpm
_ZL11DoRotateHueP7wxImagePhd
_ZL11DrawButtonsR4wxDCRK6wxSizeRK6wxRectRK8wxBitmapRK8wxColouri.constprop.0
_ZL11DrawButtonsR4wxDCRK6wxSizeRK6wxRectRK8wxBitmapRK8wxColouri.constprop.0.cold
_ZL11exefile_xpm
_ZL11forward_xpm
_ZL11GetMaxLayerRK18wxAuiDockInfoArrayi
_ZL11gs_initData
_ZL11gs_internal
_ZL11gs_mutexGui
_ZL11gs_platInfo
_ZL11HexPropertyP9wxXmlNodePKwm
_ZL11HexPropertyP9wxXmlNodePKwm.cold
_ZL11htmbook_xpm
_ZL11htmpage_xpm
_ZL11missimg_xpm
_ZL11new_dir_xpm
_ZL11NumPropertyP9wxXmlNodePKwm
_ZL11NumPropertyP9wxXmlNodePKwm.cold
_ZL11OpenLogFileR6wxFileP8wxStringP8wxWindow.constprop.0
_ZL11OpenLogFileR6wxFileP8wxStringP8wxWindow.constprop.0.cold
_ZL11PaletteFindRK19wxLongToLongHashMapRK18png_color_8_struct
_ZL11repview_xpm
_ZL11tabLangData
_ZL11TextElementP9wxXmlNodePKwRK8wxString
_ZL11TextElementP9wxXmlNodePKwRK8wxString.cold
_ZL11tipicon_xpm
_ZL11warning_xpm
_ZL11wxCurrentId
_ZL11wxID_ELB_UP
_ZL11wxStartTime
_ZL12addbookm_xpm
_ZL12delbookm_xpm
_ZL12DeleteThreadP8wxThread
_ZL12DeleteThreadP8wxThread.cold
_ZL12DoInsertPaneR18wxAuiPaneInfoArrayiiii
_ZL12fileopen_xpm
_ZL12filesave_xpm
_ZL12findrepl_xpm
_ZL12GetEpollMaskii
_ZL12GetEpollMaskii.cold
_ZL12gs_blinkTime
_ZL12gs_busyCount
_ZL12gs_clipboard
_ZL12gs_encodings
_ZL12gs_lastAngle
_ZL12gs_lastFocus
_ZL12gs_lastScale
_ZL12gs_nameCache
_ZL12gs_paperList
_ZL12harddisk_xpm
_ZL12helpicon_xpm
_ZL12htmfoldr_xpm
_ZL12htmoptns_xpm
_ZL12htmsidep_xpm
_ZL12KWIN_RUNNING
_ZL12listview_xpm
_ZL12_NET_WM_ICON
_ZL12nsvg__lineToP10NSVGparserff
_ZL12nsvg__vecangffff
_ZL12PaneSortFuncPP13wxAuiPaneInfoS1_
_ZL12parent_class
_ZL12question_xpm
_ZL12SetEventTextR17wxStyledTextEventPKcm
_ZL12SetEventTextR17wxStyledTextEventPKcm.cold
_ZL12Skip_CommentR13wxInputStream
_ZL12Skip_CommentR13wxInputStream.cold
_ZL12toparent_xpm
_ZL12wxGetTarUserv
_ZL12wxGetTarUserv.cold
_ZL12wxID_ELB_NEW
_ZL12XRCID_AssignRK8wxStringi
_ZL12XRCID_AssignRK8wxStringi.cold
_ZL12XRCID_LookupPKci
_ZL13CompareGroupsP17wxFileConfigGroupS0_
_ZL13DoRegionUnionR12wxRegionBaseRK7wxImagehhhi
_ZL13g_activeFrame
_ZL13GetOptionNameN8wxString14const_iteratorES0_PKw
_ZL13GetOptionNameN8wxString14const_iteratorES0_PKw.cold
_ZL13GetSubSurfaceP14_cairo_surfaceRK6wxRect
_ZL13gs_allThreads
_ZL13gs_dispatcher
_ZL13gs_fontSystem
_ZL13gs_isNewEvent
_ZL13gs_lastOffset
_ZL13gs_soundMutex
_ZL13gs_tlw_parent
_ZL13g_targetsAtom
_ZL13_NET_WM_STATE
_ZL13nsvg__addEdgeP14NSVGrasterizerffff.part.0
_ZL13nsvg__addPathP10NSVGparserc
_ZL13nsvg__cmpEdgePKvS0_
_ZL13nsvg__contentPvPKc
_ZL13removable_xpm
_ZL13SetTraceMasksv
_ZL13SetTraceMasksv.cold
_ZL13SumArraySizesRK10wxArrayInti
_ZL13tabScriptData
_ZL13theRGBRecords
_ZL13UpdateCursorsP8wxWindowb
_ZL13wxGetTopLevelPP10_GtkWidgetPP10_GdkWindow
_ZL13wxID_ELB_DOWN
_ZL13wxID_ELB_EDIT
_ZL13wxPortIdNames
_ZL13wxTabSortFuncPiS_
_ZL13XRCID_Records
_ZL14CompareEntriesP17wxFileConfigEntryS0_
_ZL14DrawResizeHintR4wxDCRK6wxRect
_ZL14DrawResizeHintR4wxDCRK6wxRect.cold
_ZL14encodings_list
_ZL14filesaveas_xpm
_ZL14fullscreen_xpm
_ZL14gallery_up_xpm
_ZL14GetOrientationl
_ZL14gs_aboutDialog
_ZL14gs_focusChange
_ZL14gs_languagesDB
_ZL14gs_optionNames
_ZL14gs_scrollWidth
_ZL14gs_svg_catmode
_ZL14gs_svg_defpage
_ZL14HasClientDecorP10_GtkWidget
_ZL14MergeNodesOverR9wxXmlNodeS0_RK8wxString
_ZL14MergeNodesOverR9wxXmlNodeS0_RK8wxString.cold
_ZL14nsvg__addPointP10NSVGparserff
_ZL14nsvg__addShapeP10NSVGparser
_ZL14nsvg__roundCapP14NSVGrasterizerP9NSVGpointS2_S2_fffii.isra.0
_ZL14SwitchSelStateR4wxDCR19wxHtmlRenderingInfob
_ZL14SwitchSelStateR4wxDCR19wxHtmlRenderingInfob.cold
_ZL14wxBitnessNames
_ZL14wxColourAsLongRK8wxColour
_ZL15assertionPopUps
_ZL15CacheReadStringP13wxInputStream
_ZL15CacheReadStringP13wxInputStream.cold
_ZL15CanReadICOOrCURP13wxInputStreamt
_ZL15ContainerWidgetv
_ZL15DoInsertDockRowR18wxAuiPaneInfoArrayiii
_ZL15DoStringPrintfVR8wxStringRKS_P13__va_list_tag
_ZL15DoStringPrintfVR8wxStringRKS_P13__va_list_tag.cold
_ZL15folder_open_xpm
_ZL15g_captureWindow
_ZL15GetTruncatedJDNtN10wxDateTime5MonthEi
_ZL15gs_currentFocus
_ZL15gs_flagsForDrag
_ZL15gs_gestureStart
_ZL15gs_optionValues
_ZL15gs_pendingFocus
_ZL15gs_storedCursor
_ZL15g_timestampAtom
_ZL15MakeCorrectPathRK8wxString
_ZL15MakeCorrectPathRK8wxString.cold
_ZL15nsvg__initPaintP15NSVGcachedPaintP9NSVGpaintf.part.0.isra.0
_ZL15nsvg__parseAttrP10NSVGparserPKcS2_
_ZL15nsvg__parsePolyP10NSVGparserPPKci
_ZL15ScrollBarWidgetv
_ZL15SetColourHelperRbR8wxColourRKS0_
_ZL15SetGlobalCursorRK8wxCursor
_ZL15s_staticCleanup
_ZL15wxID_ELB_DELETE
_ZL15wxlogo_svg_data
_ZL16CacheWriteStringP14wxOutputStreamRK8wxString
_ZL16CacheWriteStringP14wxOutputStreamRK8wxString.cold
_ZL16DoCommonPostInitv
_ZL16DoCommonPostInitv.cold
_ZL16EscapeDelimitersRK8wxString
_ZL16EscapeDelimitersRK8wxString.cold
_ZL16gallery_down_xpm
_ZL16gallery_left_xpm
_ZL16GetXDGConfigHomev
_ZL16GetXDGConfigHomev.cold
_ZL16gs_cumulatedDays
_ZL16gs_encodingDescs
_ZL16gs_encodingNames
_ZL16IsEmptyContainerP19wxHtmlContainerCell
_ZL16nsvg__endElementPvPKc
_ZL16nsvg__parseColorPKc
_ZL16nsvg__parseStyleP10NSVGparserPKc
_ZL16nsvg__parseUnitsPKc
_ZL16s_fontWidthCache
_ZL16ShowAssertDialogRK8wxStringiS1_S1_S1_P11wxAppTraits
_ZL16ShowAssertDialogRK8wxStringiS1_S1_S1_P11wxAppTraits.cold
_ZL16stateTypeToFlags
_ZL16wxAssignTempImplP10wxFileNameRK8wxStringP6wxFileP7wxFFile
_ZL16wxAssignTempImplP10wxFileNameRK8wxStringP6wxFileP7wxFFile.cold
_ZL16wxColourFromSpecRK8wxString
_ZL16wxColourFromSpecRK8wxString.cold
_ZL16wxCreateTempImplRK8wxStringP6wxFileP7wxFFilePb
_ZL16wxCreateTempImplRK8wxStringP6wxFileP7wxFFilePb.cold
_ZL16wxCreateTempImplRK8wxStringP6wxFileP7wxFFilePS_
_ZL16wxCreateTempImplRK8wxStringP6wxFileP7wxFFilePS_.cold
_ZL16wxGetGTKDrawableRK4wxDC
_ZL16wxPGAdjustColourRK8wxColouriiib
_ZL16wxPGAdjustColourRK8wxColouriiib.cold
_ZL16wxWMspecSetStateP9_XDisplaymmim
_ZL17AddSpinCtrlStylesR20wxXmlResourceHandler
_ZL17AddSpinCtrlStylesR20wxXmlResourceHandler.cold
_ZL17CleanXRCID_RecordP12XRCID_record
_ZL17ColourToHexStringRK8wxColour
_ZL17ColourToHexStringRK8wxColour.cold
_ZL17CopyDocksAndPanesR18wxAuiDockInfoArrayR18wxAuiPaneInfoArrayRKS_RKS1_
_ZL17dataFormatInvalid
_ZL17FilterInEntryNameRK8wxString
_ZL17FilterInEntryNameRK8wxString.cold
_ZL17FormatTiffMessagePKcS0_P13__va_list_tag
_ZL17FormatTiffMessagePKcS0_P13__va_list_tag.cold
_ZL17FreeConvertedArgsv.part.0
_ZL17gallery_right_xpm
_ZL17gs_condAllDeleted
_ZL17gs_eventLoopCount
_ZL17gs_svg_noncatmode
_ZL17nsvg__curveBoundsPfS_
_ZL17nsvg__parseNumberPKcPci.constprop.0
_ZL17SetFontsToHtmlWinP12wxHtmlWindowRK8wxStringS3_i
_ZL17s_treeBeingSorted
_ZL17wx_add_idle_hooksv
_ZL17wxEndiannessNames
_ZL17wxGetBestTreeSizePK14wxTreeCtrlBase12wxTreeItemIdR6wxSize
_ZL17wxGetGtkPaperSize11wxPaperSizeRK6wxSize
_ZL17wxGetGtkPaperSize11wxPaperSizeRK6wxSize.cold
_ZL17wxID_ELB_LISTCTRL
_ZL17wxPGDrawFocusRectP8wxWindowR4wxDCiiii.constprop.0
_ZL17wxPGDrawFocusRectP8wxWindowR4wxDCiiii.constprop.0.cold
_ZL18CleanXRCID_Recordsv
_ZL18CompareAccelStringRK8wxStringPKc
_ZL18CompareAccelStringRK8wxStringPKc.cold
_ZL18DoChangeBrightnessP7wxImagePhd
_ZL18DoChangeSaturationP7wxImagePhd
_ZL18DoRemoveFromArraysmR10wxArrayIntS0_
_ZL18DrawSimpleCheckBoxP8wxWindowR4wxDCRK6wxRecti
_ZL18FilterOutEntryNameRK8wxString
_ZL18FilterOutEntryNameRK8wxString.cold
_ZL18GetAddressFromNameRK8wxStringS1_
_ZL18GetAddressFromNameRK8wxStringS1_.cold
_ZL18gs_decorCacheValid
_ZL18gs_mutexAllThreads
_ZL18gs_storedException
_ZL18gs_wx_spline_stack
_ZL18IsMenuEventAllowedP6wxMenu.part.0
_ZL18IsNumberedAccelKeyRK8wxStringPKc9wxKeyCodejj
_ZL18IsNumberedAccelKeyRK8wxStringPKc9wxKeyCodejj.cold
_ZL18MatchBoundaryPixelP7wxImageiiiiRK8wxColourS3_
_ZL18nsvg__addPathPointP14NSVGrasterizerffi
_ZL18nsvg__expandStrokeP14NSVGrasterizerP9NSVGpointiiiif
_ZL18nsvg__fillScanlinePhiiiiPiS0_.constprop.0
_ZL18nsvg__parseAttribsP10NSVGparserPPKc
_ZL18nsvg__parseElementPcPFvPvPKcPS2_EPFvS0_S2_ES0_
_ZL18nsvg__startElementPvPKcPS1_
_ZL18nsvg__xformInversePfS_
_ZL18ProcessScrollEventP8wxSlideri
_ZL18ProcessScrollEventP8wxSlideri.cold
_ZL18wxDrawSplashBitmapR4wxDCRK8wxBitmapii.constprop.0
_ZL18wxDrawSplashBitmapR4wxDCRK8wxBitmapii.constprop.0.cold
_ZL18wxFindWindowCmpIdsPK8wxWindowRK8wxStringl
_ZL18wxFindWindowHelperPK8wxWindowRK8wxStringlPFbS1_S4_lE
_ZL18wxGetCommandOutputRK8wxStringR8wxMBConv
_ZL18wxGetCommandOutputRK8wxStringR8wxMBConv.cold
_ZL18wxGIFHandler_WriteP14wxOutputStreamPKvm
_ZL18wxMakeShellCommandRK8wxString
_ZL18wxMakeShellCommandRK8wxString.cold
_ZL18wxSetlocaleTryUTF8iRK13wxLocaleIdent
_ZL18wxSetlocaleTryUTF8iRK13wxLocaleIdent.cold
_ZL18wxWinHintsSetLayerP9_XDisplaymmi
_ZL18wxWinHintsSetLayerP9_XDisplaymmi.cold
_ZL19DoGetRowOrColBlocks12wxGridBlocksRK16wxGridOperations
_ZL19DoGetRowOrColBlocks12wxGridBlocksRK16wxGridOperations.cold
_ZL19EquivalentEncodings
_ZL19gs_deferredFocusOut
_ZL19gs_lastGesturePoint
_ZL19gs_mimeTypesManager
_ZL19gs_propFlagToString
_ZL19gs_scmap_alias2name
_ZL19gs_scmap_name2alias
_ZL19gs_systemColorCache
_ZL19GTKProcessMnemonicsRK8wxString13MnemonicsFlag
_ZL19GTKProcessMnemonicsRK8wxString13MnemonicsFlag.cold
_ZL19g_wxTarClassFactory
_ZL19g_wxZipClassFactory
_ZL19IsPointInsideWidgetRK7wxPointP10_GtkWidgetiii
_ZL19_NET_WM_WINDOW_TYPE
_ZL19nsvg__parseGradientP10NSVGparserPPKcc
_ZL19nsvg__prepareStrokeP14NSVGrasterizerfi.isra.0
_ZL19nsvg__xformMultiplyPfS_
_ZL19panel_extension_xpm
_ZL19panel_toggle_up_xpm
_ZL19PCREOptionsToStringi
_ZL19PCREOptionsToStringi.cold
_ZL19RemovePaneFromDocksR18wxAuiDockInfoArrayR13wxAuiPaneInfoP13wxAuiDockInfo
_ZL19StripProtocolAnchorRK8wxString
_ZL19StripProtocolAnchorRK8wxString.cold
_ZL19wx_quadratic_splinedddddddd
_ZL19wx_spline_add_pointdd
_ZL20AppendToPathIfExistsR8wxStringRKS_
_ZL20AppendToPathIfExistsR8wxStringRKS_.cold
_ZL20ConvertArgsToUnicodeiPPc
_ZL20ConvertArgsToUnicodeiPPc.cold
_ZL20DoAdjustForGrowablesiRK10wxArrayIntRS_PS0_
_ZL20encoding_table__KOI8
_ZL20gs_defaultConfigPath
_ZL20gs_mutexDeleteThread
_ZL20g_UnicodeSubsetTable
_ZL20g_wxGzipClassFactory
_ZL20g_wxZlibClassFactory
_ZL20nsvg__createGradientP10NSVGparserPKcPKfPc
_ZL20nsvg__getLocalBoundsPfP9NSVGshapeS_.isra.0
_ZL20nsvg__parseNameValueP10NSVGparserPKcS2_.isra.0
_ZL20nsvg__parseTransformPfPKc
_ZL20wxFindWindowCmpNamesPK8wxWindowRK8wxStringl
_ZL20wxFindWindowCmpNamesPK8wxWindowRK8wxStringl.cold
_ZL20wx_spline_point_list
_ZL21DrawGradientRectangleR4wxDCRK6wxRectRK8wxColourS6_i
_ZL21DrawGradientRectangleR4wxDCRK6wxRectRK8wxColourS6_i.cold
_ZL21encoding_table__CP866
_ZL21FindMenuItemRecursivePK6wxMenuRK8wxStringS4_
_ZL21FindMenuItemRecursivePK6wxMenuRK8wxStringS4_.cold
_ZL21gallery_extension_xpm
_ZL21gs_fp_es_style_labels
_ZL21gs_fp_es_style_values
_ZL21gs_popupMenuSelection
_ZL21gs_setSizeRequestList
_ZL21gs_sizeRevalidateList
_ZL21nsvg__appendPathPointP14NSVGrasterizer9NSVGpoint
_ZL21nsvg__convertToPixelsP10NSVGparser14NSVGcoordinateff
_ZL21nsvg__flattenCubicBezP14NSVGrasterizerffffffffii
_ZL21nsvg__getNextPathItemPKcPc
_ZL21nsvg__parseCoordinateP10NSVGparserPKcff
_ZL21panel_toggle_down_xpm
_ZL21PreprocessForIdRangesP9wxXmlNode
_ZL21PreprocessForIdRangesP9wxXmlNode.cold
_ZL21ribbon_toggle_pin_xpm
_ZL21wxDateTimeCompareFuncPP10wxDateTimeS1_
_ZL21wxDefaultFileSelectorbRK8wxStringS1_S1_P8wxWindow
_ZL21wxDefaultFileSelectorbRK8wxStringS1_S1_P8wxWindow.cold
_ZL21wxFileDataNameComparelll
_ZL21wxFileDataNameComparelll.cold
_ZL21wxFileDataSizeComparelll
_ZL21wxFileDataSizeComparelll.cold
_ZL21wxFileDataTimeComparelll
_ZL21wxFileDataTimeComparelll.cold
_ZL21wxFileDataTypeComparelll
_ZL21wxFileDataTypeComparelll.cold
_ZL21wxFindWindowCmpLabelsPK8wxWindowRK8wxStringl
_ZL21wxFindWindowCmpLabelsPK8wxWindowRK8wxStringl.cold
_ZL21wxGetHostNameInternalPwi
_ZL21wxGetHostNameInternalPwi.cold
_ZL21wxGtkImageParentClass
_ZL21wxPG_SortFunc_ByLabelPP12wxPGPropertyS1_
_ZL22AdjustEventButtonStateR12wxMouseEvent
_ZL22encoding_table__CP1250
_ZL22encoding_table__CP1251
_ZL22encoding_table__CP1252
_ZL22encoding_table__CP1253
_ZL22encoding_table__CP1254
_ZL22encoding_table__CP1255
_ZL22encoding_table__CP1256
_ZL22encoding_table__CP1257
_ZL22encoding_table__KOI8_U
_ZL22GetAnyValueTypeGlobalsv
_ZL22GetAnyValueTypeGlobalsv.cold
_ZL22gs_fp_es_family_labels
_ZL22gs_fp_es_family_values
_ZL22gs_fp_es_weight_labels
_ZL22gs_fp_es_weight_values
_ZL22gs_lastLeftClickHeader
_ZL22gs_wxStockGDI_instance
_ZL22ribbon_help_button_xpm
_ZL22text_cell_parent_class
_ZL22tree_ctrl_compare_funcPP17wxGenericTreeItemS1_
_ZL22tree_ctrl_compare_funcPP17wxGenericTreeItemS1_.cold
_ZL22wxDefaultAssertHandlerRK8wxStringiS1_S1_S1_
_ZL22wxDefaultAssertHandlerRK8wxStringiS1_S1_S1_.cold
_ZL22wxDoExecuteWithCaptureRK8wxStringR13wxArrayStringPS2_iPK12wxExecuteEnv
_ZL22wxDoExecuteWithCaptureRK8wxStringR13wxArrayStringPS2_iPK12wxExecuteEnv.cold
_ZL22wxEmitPressAndTapEventP14_GdkEventTouchP8wxWindow
_ZL22wxEmitPressAndTapEventP14_GdkEventTouchP8wxWindow.cold
_ZL22wxGtkTreeModelChildCmpPPvS0_
_ZL23FindWindowForMouseEventP8wxWindowRiS1_
_ZL23g_captureWindowHasMouse
_ZL23get_stackframe_callbackPv
_ZL23get_stackframe_callbackPv.cold
_ZL23gs_nThreadsBeingDeleted
_ZL23nsvg__parseGradientStopP10NSVGparserPPKc
_ZL23ProcessPlatformPropertyP9wxXmlNode
_ZL23ProcessPlatformPropertyP9wxXmlNode.cold
_ZL23UpdateSubMenuItemLabelsP10wxMenuItem
_ZL23wxFindWindowRecursivelyPK8wxWindowRK8wxStringlPFbS1_S4_lE
_ZL23wxGetIndexFromEnumValuei
_ZL23wxGIFHandler_GetPaletteRK7wxImageP5wxRGBPiS4_.part.0
_ZL23wxRichTextGetRangeWidthRK19wxRichTextParagraphRK15wxRichTextRangeRK10wxArrayInt
_ZL24gs_cairoGraphicsRenderer
_ZL24_NET_WM_STATE_FULLSCREEN
_ZL24nsvg__parseTransformArgsPKcPfiPi.constprop.0
_ZL24wxGetDefaultHTMLFontSizev
_ZL24wxGetValueFromLSBReleaseRK8wxStringS1_PS_.constprop.0
_ZL24wxGetValueFromLSBReleaseRK8wxStringS1_PS_.constprop.0.cold
_ZL24wxOperatingSystemIdNames
_ZL24wxPG_SortFunc_ByFunctionPP12wxPGPropertyS1_
_ZL24wxTranslateKeySymToWXKeymb
_ZL25DoHandleClipboardCallbackP10_GtkWidgetP8wxWindowiPKc
_ZL25DoHandleClipboardCallbackP10_GtkWidgetP8wxWindowiPKc.cold
_ZL25encoding_table__ISO8859_1
_ZL25encoding_table__ISO8859_2
_ZL25encoding_table__ISO8859_3
_ZL25encoding_table__ISO8859_4
_ZL25encoding_table__ISO8859_5
_ZL25encoding_table__ISO8859_6
_ZL25encoding_table__ISO8859_7
_ZL25encoding_table__ISO8859_8
_ZL25encoding_table__ISO8859_9
_ZL25encoding_unicode_fallback
_ZL25FindMenuItemByIdRecursivePK6wxMenui
_ZL25GetFSWEventChangeTypeNamei
_ZL25gs_cp_es_syscolour_labels
_ZL25gs_cp_es_syscolour_values
_ZL25gs_languagesDBInitialized
_ZL25ScheduleThreadForDeletionv
_ZL25ScheduleThreadForDeletionv.cold
_ZL25wxFillOtherKeyEventFieldsR10wxKeyEventP8wxWindowP12_GdkEventKey
_ZL25wxGIFHandler_WritePaletteP14wxOutputStreamPK5wxRGBmi
_ZL25wxGtkTreeModelChildPtrCmpPPPvS1_
_ZL25wxPaneCreateStippleBitmapv
_ZL25wxPaneCreateStippleBitmapv.cold
_ZL26encoding_table__ISO8859_10
_ZL26encoding_table__ISO8859_13
_ZL26encoding_table__ISO8859_14
_ZL26encoding_table__ISO8859_15
_ZL26gs_cp_es_normcolour_labels
_ZL26gs_cp_es_normcolour_values
_ZL26gs_cp_es_syscursors_labels
_ZL26gs_cp_es_syscursors_values
_ZL26image_placeholder24x24_xpm
_ZL26_NET_WM_STATE_STAYS_ON_TOP
_ZL26_NET_WM_WINDOW_TYPE_NORMAL
_ZL26nsvg__rasterizeSortedEdgesP14NSVGrasterizerfffP15NSVGcachedPaintc
_ZL26wxGtkTextApplyTagsFromAttrP10_GtkWidgetP14_GtkTextBufferRK10wxTextAttrP12_GtkTextIterS7_
_ZL26wxGtkTextApplyTagsFromAttrP10_GtkWidgetP14_GtkTextBufferRK10wxTextAttrP12_GtkTextIterS7_.cold
_ZL26wxHtmlHelpIndexCompareFuncPP18wxHtmlHelpDataItemS1_
_ZL26wxPGTextCtrlEditor_OnFocusP12wxPGPropertyP10wxTextCtrl
_ZL26wxPGTextCtrlEditor_OnFocusP12wxPGPropertyP10wxTextCtrl.cold
_ZL26wxRichTextCtrlIsWhitespaceRK8wxString
_ZL26wxTranslateGTKKeyEventToWxR10wxKeyEventP8wxWindowP12_GdkEventKey
_ZL26wxTranslateGTKKeyEventToWxR10wxKeyEventP8wxWindowP12_GdkEventKey.cold
_ZL27gs_cp_es_normcolour_colours
_ZL27wxGIFHandler_BufferedOutputP14wxOutputStreamPhi
_ZL28DoLaunchDefaultBrowserHelperRK8wxStringi
_ZL28DoLaunchDefaultBrowserHelperRK8wxStringi.cold
_ZL28gs_requestFrameExtentsStatus
_ZL28wxEVT_CB_LEFT_CLICK_ACTIVATE
_ZL29gtk_wx_cell_renderer_get_typev
_ZL29wxEVT_AUINOTEBOOK_CANCEL_DRAG
_ZL30wxDirCtrlStringCompareFunctionRK8wxStringS1_
_ZL30wxgtk_renderer_editing_startedP16_GtkCellRendererP16_GtkCellEditablePcP18wxDataViewRenderer
_ZL30wxgtk_renderer_editing_startedP16_GtkCellRendererP16_GtkCellEditablePcP18wxDataViewRenderer.cold
_ZL30wxPostScriptHeaderReencodeISO1
_ZL30wxPostScriptHeaderReencodeISO2
_ZL31gtk_assert_dialog_add_button_toP7_GtkBoxPKcS2_
_ZL32gs_wxColourProperty_choicesCache
_ZL32gs_wxCursorProperty_choicesCache
_ZL32_KDE_NET_WM_WINDOW_TYPE_OVERRIDE
_ZL32wxdataview_row_expanded_callbackP12_GtkTreeViewP12_GtkTreeIterP12_GtkTreePathP14wxDataViewCtrl
_ZL32wxdataview_row_expanded_callbackP12_GtkTreeViewP12_GtkTreeIterP12_GtkTreePathP14wxDataViewCtrl.cold
_ZL32wxgtk_cell_editable_editing_doneP16_GtkCellEditableP18wxDataViewRenderer
_ZL33wxdataview_row_activated_callbackP12_GtkTreeViewP12_GtkTreePathP18_GtkTreeViewColumnP14wxDataViewCtrl
_ZL33wxdataview_row_activated_callbackP12_GtkTreeViewP12_GtkTreePathP18_GtkTreeViewColumnP14wxDataViewCtrl.cold
_ZL33wxdataview_row_collapsed_callbackP12_GtkTreeViewP12_GtkTreeIterP12_GtkTreePathP14wxDataViewCtrl
_ZL33wxdataview_row_collapsed_callbackP12_GtkTreeViewP12_GtkTreeIterP12_GtkTreePathP14wxDataViewCtrl.cold
_ZL34gtk_dataview_button_press_callbackP10_GtkWidgetP15_GdkEventButtonP14wxDataViewCtrl
_ZL34gtk_dataview_button_press_callbackP10_GtkWidgetP15_GdkEventButtonP14wxDataViewCtrl.cold
_ZL34gtk_wx_cell_renderer_text_get_typev
_ZL35gtk_dataview_motion_notify_callbackP10_GtkWidgetP15_GdkEventMotionP14wxDataViewCtrl
_ZL35gtk_dataview_motion_notify_callbackP10_GtkWidgetP15_GdkEventMotionP14wxDataViewCtrl.cold
_ZL35gtk_pseudo_window_realized_callbackP10_GtkWidgetPv
_ZL35gtk_pseudo_window_realized_callbackP10_GtkWidgetPv.cold
_ZL35wxdataview_test_expand_row_callbackP12_GtkTreeViewP12_GtkTreeIterP12_GtkTreePathP14wxDataViewCtrl
_ZL35wxdataview_test_expand_row_callbackP12_GtkTreeViewP12_GtkTreeIterP12_GtkTreePathP14wxDataViewCtrl.cold
_ZL36gtk_assert_dialog_append_text_columnP10_GtkWidgetPKci
_ZL36wxPGChoiceEditor_SetCustomPaintWidthP14wxPropertyGridP12wxPGComboBoxi
_ZL36wxPGChoiceEditor_SetCustomPaintWidthP14wxPropertyGridP12wxPGComboBoxi.cold
_ZL37gs_ConstCharPAnyToVariantRegistration
_ZL37wxDataViewCtrlInternal_FindParentNodeP15wxDataViewModelP18wxGtkTreeModelNodeRK14wxDataViewItem
_ZL37wxDataViewCtrlInternal_FindParentNodeP15wxDataViewModelP18wxGtkTreeModelNodeRK14wxDataViewItem.cold
_ZL37wxdataview_selection_changed_callbackP17_GtkTreeSelectionP14wxDataViewCtrl
_ZL37wxdataview_selection_changed_callbackP17_GtkTreeSelectionP14wxDataViewCtrl.cold
_ZL37wxdataview_test_collapse_row_callbackP12_GtkTreeViewP12_GtkTreeIterP12_GtkTreePathP14wxDataViewCtrl
_ZL37wxdataview_test_collapse_row_callbackP12_GtkTreeViewP12_GtkTreeIterP12_GtkTreePathP14wxDataViewCtrl.cold
_ZL38gs_wxSystemColourProperty_choicesCache
_ZL40gs_ConstWchar_tPAnyToVariantRegistration
_ZL41gtk_dataview_header_button_press_callbackP10_GtkWidgetP15_GdkEventButtonP16wxDataViewColumn
_ZL41gtk_dataview_header_button_press_callbackP10_GtkWidgetP15_GdkEventButtonP16wxDataViewColumn.cold
_ZL44gs_wxFontVariantDataAnyToVariantRegistration
_ZL44gs_wxIconVariantDataAnyToVariantRegistration
_ZL44gs_wxSizeVariantDataAnyToVariantRegistration
_ZL44gs_wxVariantDataBoolAnyToVariantRegistration
_ZL44gs_wxVariantDataCharAnyToVariantRegistration
_ZL44gs_wxVariantDataListAnyToVariantRegistration
_ZL45gs_wxImageVariantDataAnyToVariantRegistration
_ZL45gs_wxPointVariantDataAnyToVariantRegistration
_ZL46gs_wxBitmapVariantDataAnyToVariantRegistration
_ZL46gs_wxColourVariantDataAnyToVariantRegistration
_ZL46gs_wxVariantDataStringAnyToVariantRegistration
_ZL46gs_wxVariantDoubleDataAnyToVariantRegistration
_ZL47gs_wxVariantDataVoidPtrAnyToVariantRegistration
_ZL48gs_wxArrayIntVariantDataAnyToVariantRegistration
_ZL48gs_wxVariantDataDateTimeAnyToVariantRegistration
_ZL48gs_wxVariantDataLongLongAnyToVariantRegistration
_ZL49gs_wxVariantDataULongLongAnyToVariantRegistration
_ZL4CopyRP11wxZipMemoryS0_
_ZL51gs_wxVariantDataArrayStringAnyToVariantRegistration
_ZL51gs_wxVariantDataWxObjectPtrAnyToVariantRegistration
_ZL52gs_wxBitmapBundleVariantDataAnyToVariantRegistration
_ZL56gs_wxDataViewIconTextVariantDataAnyToVariantRegistration
_ZL59gs_wxColourPropertyValueVariantDataAnyToVariantRegistration
_ZL5g_buf
_ZL61gs_wxDataViewCheckIconTextVariantDataAnyToVariantRegistration
_ZL6gs_dir
_ZL6UniqueRP11wxZipMemorym
_ZL6up_xpm
_ZL7cut_xpm
_ZL7my_sortPiS_
_ZL7new_xpm
_ZL7ReadAllP13wxInputStreamR13wxArrayString
_ZL7ReadAllP13wxInputStreamR13wxArrayString.cold
_ZL8back_xpm
_ZL8copy_xpm
_ZL8down_xpm
_ZL8edit_xpm
_ZL8find_xpm
_ZL8hexArray
_ZL8home_xpm
_ZL8info_xpm
_ZL8last_xpm
_ZL8page_xpm
_ZL8plus_xpm
_ZL8quit_xpm
_ZL8redo_xpm
_ZL8tick_xpm
_ZL8undo_xpm
_ZL8utf8_max
_ZL9cdrom_xpm
_ZL9check_xpm
_ZL9close_xpm
_ZL9cross_xpm
_ZL9DecodeRLEPhmsR13wxInputStream
_ZL9error_xpm
_ZL9FindDocksR18wxAuiDockInfoArrayiiiR21wxAuiDockInfoPtrArray
_ZL9first_xpm
_ZL9g_pLocale
_ZL9left_bits
_ZL9list_bits
_ZL9minus_xpm
_ZL9paste_xpm
_ZL9print_xpm
_ZL9TimeStampRK8wxStringl
_ZL9utf7enb64
_ZL9utf7unb64
_ZlsR10wxArrayIntRK9wxVariant
_ZlsR10wxArrayIntRK9wxVariant.cold
_ZlsR14wxBitmapBundleRK9wxVariant
_ZlsR14wxBitmapBundleRK9wxVariant.cold
_ZlsR18wxDataViewIconTextRK9wxVariant
_ZlsR18wxDataViewIconTextRK9wxVariant.cold
_ZlsR18wxTextOutputStreamRK16wxLongLongNative
_ZlsR18wxTextOutputStreamRK16wxLongLongNative.cold
_ZlsR18wxTextOutputStreamRK17wxULongLongNative
_ZlsR18wxTextOutputStreamRK17wxULongLongNative.cold
_ZlsR18wxTextOutputStreamx
_ZlsR18wxTextOutputStreamx.cold
_ZlsR18wxTextOutputStreamy
_ZlsR18wxTextOutputStreamy.cold
_ZlsR21wxColourPropertyValueRK9wxVariant
_ZlsR21wxColourPropertyValueRK9wxVariant.cold
_ZlsR23wxDataViewCheckIconTextRK9wxVariant
_ZlsR23wxDataViewCheckIconTextRK9wxVariant.cold
_ZlsR6wxFontRK9wxVariant
_ZlsR6wxFontRK9wxVariant.cold
_ZlsR6wxIconRK9wxVariant
_ZlsR6wxIconRK9wxVariant.cold
_ZlsR6wxSizeRK9wxVariant
_ZlsR6wxSizeRK9wxVariant.cold
_ZlsR7wxImageRK9wxVariant
_ZlsR7wxImageRK9wxVariant.cold
_ZlsR7wxPointRK9wxVariant
_ZlsR7wxPointRK9wxVariant.cold
_ZlsR8wxBitmapRK9wxVariant
_ZlsR8wxBitmapRK9wxVariant.cold
_ZlsR8wxColourRK9wxVariant
_ZlsR8wxColourRK9wxVariant.cold
_ZlsR8wxStringRK16wxLongLongNative
_ZlsR8wxStringRK16wxLongLongNative.cold
_ZlsR8wxStringRK17wxULongLongNative
_ZlsR8wxStringRK17wxULongLongNative.cold
_ZlsR9wxVariantRK10wxArrayInt
_ZlsR9wxVariantRK14wxBitmapBundle
_ZlsR9wxVariantRK14wxBitmapBundle.cold
_ZlsR9wxVariantRK18wxDataViewIconText
_ZlsR9wxVariantRK18wxDataViewIconText.cold
_ZlsR9wxVariantRK21wxColourPropertyValue
_ZlsR9wxVariantRK23wxDataViewCheckIconText
_ZlsR9wxVariantRK23wxDataViewCheckIconText.cold
_ZlsR9wxVariantRK6wxFont
_ZlsR9wxVariantRK6wxIcon
_ZlsR9wxVariantRK6wxSize
_ZlsR9wxVariantRK7wxImage
_ZlsR9wxVariantRK7wxPoint
_ZlsR9wxVariantRK8wxBitmap
_ZlsR9wxVariantRK8wxColour
_ZlsRSoRK10wxCStrData
_ZlsRSoRK10wxCStrData.cold
_ZlsRSoRK16wxLongLongNative
_ZlsRSoRK16wxLongLongNative.cold
_ZlsRSoRK17wxULongLongNative
_ZlsRSoRK17wxULongLongNative.cold
_ZlsRSoRK22wxScopedCharTypeBufferIcE
_ZlsRSoRK22wxScopedCharTypeBufferIwE
_ZlsRSoRK22wxScopedCharTypeBufferIwE.cold
_ZlsRSoRK8wxString
_ZlsRSoRK8wxString.cold
_ZlsRSt13basic_ostreamIwSt11char_traitsIwEERK10wxCStrData
_ZlsRSt13basic_ostreamIwSt11char_traitsIwEERK22wxScopedCharTypeBufferIwE
_ZlsRSt13basic_ostreamIwSt11char_traitsIwEERK8wxString
_ZmliRK10wxDateSpan
_ZmliRK10wxTimeSpan
_ZmlRK6wxRectS1_
_ZN10wxArrayIntD1Ev
_ZN10wxArrayIntD2Ev
_ZN10wxArrayIntD5Ev
_ZN10wxBoxSizer12ms_classInfoE
_ZN10wxBoxSizer18RepositionChildrenERK6wxSize
_ZN10wxBoxSizer18RepositionChildrenERK6wxSize.cold
_ZN10wxBoxSizer20InformFirstDirectionEiii
_ZN10wxBoxSizer7CalcMinEv
_ZN10wxBoxSizer8DoInsertEmP11wxSizerItem
_ZN10wxBoxSizer8DoInsertEmP11wxSizerItem.cold
_ZN10wxBoxSizer9AddSpacerEi
_ZN10wxBoxSizer9AddSpacerEi.cold
_ZN10wxBoxSizerC1Ei
_ZN10wxBoxSizerC2Ei
_ZN10wxBoxSizerC5Ei
_ZN10wxBoxSizerD0Ev
_ZN10wxBoxSizerD1Ev
_ZN10wxBoxSizerD2Ev
_ZN10wxBoxSizerD5Ev
_ZN10wxBusyInfo10UpdateTextERK8wxString
_ZN10wxBusyInfo11UpdateLabelERK8wxString
_ZN10wxBusyInfo11UpdateLabelERK8wxString.cold
_ZN10wxBusyInfo4InitERK15wxBusyInfoFlags
_ZN10wxBusyInfo4InitERK15wxBusyInfoFlags.cold
_ZN10wxBusyInfoD0Ev
_ZN10wxBusyInfoD1Ev
_ZN10wxBusyInfoD2Ev
_ZN10wxCheckBox12ms_classInfoE
_ZN10wxCheckBox14wxCreateObjectEv
_ZN10wxCheckBox14wxCreateObjectEv.cold
_ZN10wxCheckBox15GTKEnableEventsEv
_ZN10wxCheckBox16DoSet3StateValueE15wxCheckBoxState
_ZN10wxCheckBox16GTKDisableEventsEv
_ZN10wxCheckBox18DoApplyWidgetStyleEP11_GtkRcStyle
_ZN10wxCheckBox25GetClassDefaultAttributesE15wxWindowVariant
_ZN10wxCheckBox6CreateEP8wxWindowiRK8wxStringRK7wxPointRK6wxSizelRK11wxValidatorS4_
_ZN10wxCheckBox8DoEnableEb
_ZN10wxCheckBox8SetLabelERK8wxString
_ZN10wxCheckBox8SetValueEb
_ZN10wxCheckBox8SetValueEb.cold
_ZN10wxCheckBoxC1Ev
_ZN10wxCheckBoxC2Ev
_ZN10wxCheckBoxD0Ev
_ZN10wxCheckBoxD1Ev
_ZN10wxCheckBoxD2Ev
_ZN10wxClientDC12ms_classInfoE
_ZN10wxClientDCC1EP8wxWindow
_ZN10wxClientDCC2EP8wxWindow
_ZN10wxClientDCC2EP8wxWindow.cold
_ZN10wxClientDCD0Ev
_ZN10wxClientDCD1Ev
_ZN10wxClientDCD2Ev
_ZN10wxClientDCD5Ev
_ZN10wxComboBox11OnSelectAllER14wxCommandEvent
_ZN10wxComboBox11OnUpdateCutER15wxUpdateUIEvent
_ZN10wxComboBox12ms_classInfoE
_ZN10wxComboBox12OnUpdateCopyER15wxUpdateUIEvent
_ZN10wxComboBox12OnUpdateRedoER15wxUpdateUIEvent
_ZN10wxComboBox12OnUpdateUndoER15wxUpdateUIEvent
_ZN10wxComboBox12SetSelectionEi
_ZN10wxComboBox12SetSelectionEll
_ZN10wxComboBox13OnUpdatePasteER15wxUpdateUIEvent
_ZN10wxComboBox13sm_eventTableE
_ZN10wxComboBox14OnUpdateDeleteER15wxUpdateUIEvent
_ZN10wxComboBox14wxCreateObjectEv
_ZN10wxComboBox14wxCreateObjectEv.cold
_ZN10wxComboBox15GTKEnableEventsEv
_ZN10wxComboBox16GetConnectWidgetEv
_ZN10wxComboBox16GTKDisableEventsEv
_ZN10wxComboBox17GetEditableWindowEv
_ZN10wxComboBox17OnUpdateSelectAllER15wxUpdateUIEvent
_ZN10wxComboBox17sm_eventHashTableE
_ZN10wxComboBox20sm_eventTableEntriesE
_ZN10wxComboBox23GTKCreateComboBoxWidgetEv
_ZN10wxComboBox25GetClassDefaultAttributesE15wxWindowVariant
_ZN10wxComboBox4InitEv
_ZN10wxComboBox5ClearEv
_ZN10wxComboBox5OnCutER14wxCommandEvent
_ZN10wxComboBox5PopupEv
_ZN10wxComboBox6CreateEP8wxWindowiRK8wxStringRK7wxPointRK6wxSizeiPS3_lRK11wxValidatorS4_
_ZN10wxComboBox6CreateEP8wxWindowiRK8wxStringRK7wxPointRK6wxSizeiPS3_lRK11wxValidatorS4_.cold
_ZN10wxComboBox6CreateEP8wxWindowiRK8wxStringRK7wxPointRK6wxSizeRK13wxArrayStringlRK11wxValidatorS4_
_ZN10wxComboBox6CreateEP8wxWindowiRK8wxStringRK7wxPointRK6wxSizeRK13wxArrayStringlRK11wxValidatorS4_.cold
_ZN10wxComboBox6OnCharER10wxKeyEvent
_ZN10wxComboBox6OnCharER10wxKeyEvent.cold
_ZN10wxComboBox6OnCopyER14wxCommandEvent
_ZN10wxComboBox6OnRedoER14wxCommandEvent
_ZN10wxComboBox6OnUndoER14wxCommandEvent
_ZN10wxComboBox7DismissEv
_ZN10wxComboBox7OnPasteER14wxCommandEvent
_ZN10wxComboBox8OnDeleteER14wxCommandEvent
_ZN10wxComboBox8SetValueERK8wxString
_ZN10wxComboBox9SetStringEjRK8wxString
_ZN10wxComboBoxC1EP8wxWindowiRK8wxStringRK7wxPointRK6wxSizeRK13wxArrayStringlRK11wxValidatorS4_
_ZN10wxComboBoxC2EP8wxWindowiRK8wxStringRK7wxPointRK6wxSizeRK13wxArrayStringlRK11wxValidatorS4_
_ZN10wxComboBoxC5EP8wxWindowiRK8wxStringRK7wxPointRK6wxSizeRK13wxArrayStringlRK11wxValidatorS4_
_ZN10wxComboBoxD0Ev
_ZN10wxComboBoxD1Ev
_ZN10wxComboBoxD2Ev
_ZN10wxConvAuto11GetBOMCharsE5wxBOMPm
_ZN10wxConvAuto11InitFromBOME5wxBOM
_ZN10wxConvAuto13InitFromInputEPKcm
_ZN10wxConvAuto19SetFallbackEncodingE14wxFontEncoding
_ZN10wxConvAuto20ms_defaultMBEncodingE
_ZN10wxConvAuto9DetectBOMEPKcm
_ZN10wxConvAutoD0Ev
_ZN10wxConvAutoD1Ev
_ZN10wxConvAutoD2Ev
_ZN10wxConvAutoD5Ev
_ZN10wxCStrDataD1Ev
_ZN10wxCStrDataD2Ev
_ZN10wxCStrDataD5Ev
_ZN10wxDateTime10GetCenturyEi
_ZN10wxDateTime10GetCountryEv
_ZN10wxDateTime10GetCountryEv.cold
_ZN10wxDateTime10IsLeapYearEiNS_8CalendarE
_ZN10wxDateTime10ms_countryE
_ZN10wxDateTime10SetCountryENS_7CountryE
_ZN10wxDateTime10SetFromDOSEm
_ZN10wxDateTime11GetBeginDSTEiNS_7CountryE
_ZN10wxDateTime11ParseFormatEPKcRK8wxStringRKS_
_ZN10wxDateTime11ParseFormatEPKcRK8wxStringRKS_.cold
_ZN10wxDateTime11ParseFormatEPKwRK8wxStringRKS_
_ZN10wxDateTime11ParseFormatEPKwRK8wxStringRKS_.cold
_ZN10wxDateTime11ParseFormatERK8wxStringS2_RKS_PNS0_14const_iteratorE
_ZN10wxDateTime11ParseFormatERK8wxStringS2_RKS_PNS0_14const_iteratorE.cold
_ZN10wxDateTime12GetMonthNameENS_5MonthENS_9NameFlagsE
_ZN10wxDateTime12GetMonthNameENS_5MonthENS_9NameFlagsE.cold
_ZN10wxDateTime12MakeTimezoneERKNS_8TimeZoneEb
_ZN10wxDateTime12SetToWeekDayENS_7WeekDayEiNS_5MonthEi
_ZN10wxDateTime12SetToYearDayEt
_ZN10wxDateTime13ParseDateTimeEPKc
_ZN10wxDateTime13ParseDateTimeEPKc.cold
_ZN10wxDateTime13ParseDateTimeEPKw
_ZN10wxDateTime13ParseDateTimeEPKw.cold
_ZN10wxDateTime13ParseDateTimeERK8wxStringPNS0_14const_iteratorE
_ZN10wxDateTime13ParseDateTimeERK8wxStringPNS0_14const_iteratorE.cold
_ZN10wxDateTime13TIME_T_FACTORE
_ZN10wxDateTime14GetAmPmStringsEP8wxStringS1_
_ZN10wxDateTime14GetAmPmStringsEP8wxStringS1_.cold
_ZN10wxDateTime14GetCurrentYearENS_8CalendarE
_ZN10wxDateTime14GetWeekDayNameENS_7WeekDayENS_9NameFlagsE
_ZN10wxDateTime14GetWeekDayNameENS_7WeekDayENS_9NameFlagsE.cold
_ZN10wxDateTime14SetMillisecondEt
_ZN10wxDateTime15ConvertYearToBCEi
_ZN10wxDateTime15GetCurrentMonthENS_8CalendarE
_ZN10wxDateTime15GetFirstWeekDayEPNS_7WeekDayE
_ZN10wxDateTime15GetNumberOfDaysEiNS_8CalendarE
_ZN10wxDateTime15GetNumberOfDaysENS_5MonthEiNS_8CalendarE
_ZN10wxDateTime15IsDSTApplicableEiNS_7CountryE
_ZN10wxDateTime15ParseRfc822DateEPKc
_ZN10wxDateTime15ParseRfc822DateEPKc.cold
_ZN10wxDateTime15ParseRfc822DateEPKw
_ZN10wxDateTime15ParseRfc822DateEPKw.cold
_ZN10wxDateTime15ParseRfc822DateERK8wxStringPNS0_14const_iteratorE
_ZN10wxDateTime15ParseRfc822DateERK8wxStringPNS0_14const_iteratorE.cold
_ZN10wxDateTime15SetToWeekOfYearEitNS_7WeekDayE
_ZN10wxDateTime16MakeFromTimezoneERKNS_8TimeZoneEb
_ZN10wxDateTime16SetToNextWeekDayENS_7WeekDayE
_ZN10wxDateTime16SetToPrevWeekDayENS_7WeekDayE
_ZN10wxDateTime17SetToLastMonthDayENS_5MonthEi
_ZN10wxDateTime19GetEnglishMonthNameENS_5MonthENS_9NameFlagsE
_ZN10wxDateTime19ParseRFC822TimeZoneEPN8wxString14const_iteratorERKS1_
_ZN10wxDateTime19ParseRFC822TimeZoneEPN8wxString14const_iteratorERKS1_.cold
_ZN10wxDateTime21GetEnglishWeekDayNameENS_7WeekDayENS_9NameFlagsE
_ZN10wxDateTime21IsWestEuropeanCountryENS_7CountryE
_ZN10wxDateTime22SetToWeekDayInSameWeekENS_7WeekDayENS_9WeekFlagsE
_ZN10wxDateTime2Tm14ComputeWeekDayEv
_ZN10wxDateTime2Tm7AddDaysEi
_ZN10wxDateTime2Tm9AddMonthsEi
_ZN10wxDateTime2TmC1ERK2tmRKNS_8TimeZoneE
_ZN10wxDateTime2TmC1Ev
_ZN10wxDateTime2TmC2ERK2tmRKNS_8TimeZoneE
_ZN10wxDateTime2TmC2Ev
_ZN10wxDateTime3AddERK10wxDateSpan
_ZN10wxDateTime3SetEd
_ZN10wxDateTime3SetERK2tm
_ZN10wxDateTime3SetEtNS_5MonthEitttt
_ZN10wxDateTime3SetEtttt
_ZN10wxDateTime4UNowEv
_ZN10wxDateTime6SetDayEt
_ZN10wxDateTime7SetHourEt
_ZN10wxDateTime7SetYearEi
_ZN10wxDateTime8GetTmNowEP2tm
_ZN10wxDateTime8SetMonthENS_5MonthE
_ZN10wxDateTime8TimeZoneC1ENS_2TZE
_ZN10wxDateTime8TimeZoneC2ENS_2TZE
_ZN10wxDateTime9GetEndDSTEiNS_7CountryE
_ZN10wxDateTime9ParseDateEPKc
_ZN10wxDateTime9ParseDateEPKc.cold
_ZN10wxDateTime9ParseDateEPKw
_ZN10wxDateTime9ParseDateEPKw.cold
_ZN10wxDateTime9ParseDateERK8wxStringPNS0_14const_iteratorE
_ZN10wxDateTime9ParseDateERK8wxStringPNS0_14const_iteratorE.cold
_ZN10wxDateTime9ParseTimeEPKc
_ZN10wxDateTime9ParseTimeEPKc.cold
_ZN10wxDateTime9ParseTimeEPKw
_ZN10wxDateTime9ParseTimeEPKw.cold
_ZN10wxDateTime9ParseTimeERK8wxStringPNS0_14const_iteratorE
_ZN10wxDateTime9ParseTimeERK8wxStringPNS0_14const_iteratorE.cold
_ZN10wxDateTime9ResetTimeEv
_ZN10wxDateTime9SetMinuteEt
_ZN10wxDateTime9SetSecondEt
_ZN10wxDocument10LoadObjectERSi
_ZN10wxDocument10RemoveViewEP6wxView
_ZN10wxDocument10RemoveViewEP6wxView.localalias
_ZN10wxDocument10SaveObjectERSo
_ZN10wxDocument10SaveObjectERSo.localalias
_ZN10wxDocument11SetFilenameERK8wxStringb
_ZN10wxDocument12ms_classInfoE
_ZN10wxDocument13NotifyClosingEv
_ZN10wxDocument13NotifyClosingEv.localalias
_ZN10wxDocument13OnNewDocumentEv
_ZN10wxDocument13OnNewDocumentEv.cold
_ZN10wxDocument14DeleteAllViewsEv
_ZN10wxDocument14DeleteContentsEv
_ZN10wxDocument14DeleteContentsEv.localalias
_ZN10wxDocument14DoOpenDocumentERK8wxString
_ZN10wxDocument14DoOpenDocumentERK8wxString.cold
_ZN10wxDocument14DoSaveDocumentERK8wxString
_ZN10wxDocument14DoSaveDocumentERK8wxString.cold
_ZN10wxDocument14OnOpenDocumentERK8wxString
_ZN10wxDocument14OnSaveDocumentERK8wxString
_ZN10wxDocument14OnSaveModifiedEv
_ZN10wxDocument14OnSaveModifiedEv.cold
_ZN10wxDocument14UpdateAllViewsEP6wxViewP8wxObject
_ZN10wxDocument14UpdateAllViewsEP6wxViewP8wxObject.localalias
_ZN10wxDocument15OnCloseDocumentEv
_ZN10wxDocument16OnChangeFilenameEb
_ZN10wxDocument16OnChangeFilenameEb.localalias
_ZN10wxDocument17OnChangedViewListEv
_ZN10wxDocument19SetCommandProcessorEP18wxCommandProcessor
_ZN10wxDocument19SetDocumentTemplateEP13wxDocTemplate
_ZN10wxDocument24OnCreateCommandProcessorEv
_ZN10wxDocument24OnCreateCommandProcessorEv.cold
_ZN10wxDocument24OnCreateCommandProcessorEv.localalias
_ZN10wxDocument4DrawER4wxDC
_ZN10wxDocument4SaveEv
_ZN10wxDocument5CloseEv
_ZN10wxDocument6ModifyEb
_ZN10wxDocument6ModifyEb.localalias
_ZN10wxDocument6RevertEv
_ZN10wxDocument6RevertEv.cold
_ZN10wxDocument6SaveAsEv
_ZN10wxDocument6SaveAsEv.cold
_ZN10wxDocument7AddViewEP6wxView
_ZN10wxDocument7AddViewEP6wxView.localalias
_ZN10wxDocument8ActivateEv
_ZN10wxDocument8OnCreateERK8wxStringl
_ZN10wxDocumentC1EPS_
_ZN10wxDocumentC2EPS_
_ZN10wxDocumentC2EPS_.cold
_ZN10wxDocumentD0Ev
_ZN10wxDocumentD0Ev.localalias
_ZN10wxDocumentD1Ev
_ZN10wxDocumentD2Ev
_ZN10wxEventPtr5resetEP7wxEvent
_ZN10wxEventPtrD1Ev
_ZN10wxEventPtrD2Ev
_ZN10wxFileData10SetNewNameERK8wxStringS2_
_ZN10wxFileData4CopyERKS_
_ZN10wxFileData4CopyERKS_.cold
_ZN10wxFileData4InitEv
_ZN10wxFileData8MakeItemER10wxListItem
_ZN10wxFileData8MakeItemER10wxListItem.cold
_ZN10wxFileData8ReadDataEv
_ZN10wxFileData8ReadDataEv.cold
_ZN10wxFileDataC1ERK8wxStringS2_NS_8fileTypeEi
_ZN10wxFileDataC2ERK8wxStringS2_NS_8fileTypeEi
_ZN10wxFileDataC2ERK8wxStringS2_NS_8fileTypeEi.cold
_ZN10wxFileName10FileExistsERK8wxString
_ZN10wxFileName10GetHomeDirEv
_ZN10wxFileName10GetTempDirEv
_ZN10wxFileName10GetTempDirEv.cold
_ZN10wxFileName10PrependDirERK8wxString
_ZN10wxFileName11ResolveLinkEv
_ZN10wxFileName11ResolveLinkEv.cold
_ZN10wxFileName11SetFullNameERK8wxString
_ZN10wxFileName11SplitVolumeERK8wxStringPS0_S3_12wxPathFormat
_ZN10wxFileName11SplitVolumeERK8wxStringPS0_S3_12wxPathFormat.cold
_ZN10wxFileName13AssignHomeDirEv
_ZN10wxFileName13AssignHomeDirEv.cold
_ZN10wxFileName13FileNameToURLERKS_
_ZN10wxFileName13FileNameToURLERKS_.cold
_ZN10wxFileName13URLToFileNameERK8wxString
_ZN10wxFileName13URLToFileNameERK8wxString.cold
_ZN10wxFileName14MakeRelativeToERK8wxString12wxPathFormat
_ZN10wxFileName14MakeRelativeToERK8wxString12wxPathFormat.cold
_ZN10wxFileName14ReplaceHomeDirE12wxPathFormat
_ZN10wxFileName14ReplaceHomeDirE12wxPathFormat.cold
_ZN10wxFileName14SetPermissionsEi
_ZN10wxFileName14SetPermissionsEi.cold
_ZN10wxFileName14StripExtensionERK8wxString
_ZN10wxFileName14StripExtensionERK8wxString.cold
_ZN10wxFileName15IsCaseSensitiveE12wxPathFormat
_ZN10wxFileName15IsPathSeparatorEw12wxPathFormat
_ZN10wxFileName15IsPathSeparatorEw12wxPathFormat.cold
_ZN10wxFileName17GetForbiddenCharsE12wxPathFormat
_ZN10wxFileName17GetForbiddenCharsE12wxPathFormat.cold
_ZN10wxFileName17GetPathSeparatorsE12wxPathFormat
_ZN10wxFileName17GetPathSeparatorsE12wxPathFormat.cold
_ZN10wxFileName18AssignTempFileNameERK8wxString
_ZN10wxFileName18AssignTempFileNameERK8wxStringP6wxFile
_ZN10wxFileName18AssignTempFileNameERK8wxStringP7wxFFile
_ZN10wxFileName18CreateTempFileNameERK8wxString
_ZN10wxFileName18CreateTempFileNameERK8wxStringP6wxFile
_ZN10wxFileName18CreateTempFileNameERK8wxStringP7wxFFile
_ZN10wxFileName18GetPathTerminatorsE12wxPathFormat
_ZN10wxFileName18GetPathTerminatorsE12wxPathFormat.cold
_ZN10wxFileName18GetVolumeSeparatorE12wxPathFormat
_ZN10wxFileName18GetVolumeSeparatorE12wxPathFormat.cold
_ZN10wxFileName18ReplaceEnvVariableERK8wxStringS2_12wxPathFormat
_ZN10wxFileName18ReplaceEnvVariableERK8wxStringS2_12wxPathFormat.cold
_ZN10wxFileName19IsValidDirComponentERK8wxString
_ZN10wxFileName19IsValidDirComponentERK8wxString.cold
_ZN10wxFileName20GetHumanReadableSizeERK17wxULongLongNativeRK8wxStringi16wxSizeConvention
_ZN10wxFileName20GetHumanReadableSizeERK17wxULongLongNativeRK8wxStringi16wxSizeConvention.cold
_ZN10wxFileName25IsMSWUniqueVolumeNamePathERK8wxString12wxPathFormat
_ZN10wxFileName5ClearEv
_ZN10wxFileName5MkdirERK8wxStringii
_ZN10wxFileName5MkdirERK8wxStringii.cold
_ZN10wxFileName5RmdirERK8wxStringi
_ZN10wxFileName5RmdirERK8wxStringi.cold
_ZN10wxFileName5RmdirERK8wxStringi.localalias
_ZN10wxFileName6AssignERK8wxString12wxPathFormat
_ZN10wxFileName6AssignERK8wxString12wxPathFormat.cold
_ZN10wxFileName6AssignERK8wxStringS2_12wxPathFormat
_ZN10wxFileName6AssignERK8wxStringS2_12wxPathFormat.cold
_ZN10wxFileName6AssignERK8wxStringS2_S2_12wxPathFormat
_ZN10wxFileName6AssignERK8wxStringS2_S2_12wxPathFormat.cold
_ZN10wxFileName6AssignERK8wxStringS2_S2_S2_b12wxPathFormat
_ZN10wxFileName6AssignERKS_
_ZN10wxFileName6AssignERKS_.cold
_ZN10wxFileName6ExistsERK8wxStringi
_ZN10wxFileName6GetCwdERK8wxString
_ZN10wxFileName6GetCwdERK8wxString.cold
_ZN10wxFileName6SetCwdERK8wxString
_ZN10wxFileName7DirNameERK8wxString12wxPathFormat
_ZN10wxFileName7DirNameERK8wxString12wxPathFormat.cold
_ZN10wxFileName7GetSizeERK8wxString
_ZN10wxFileName7GetSizeERK8wxString.cold
_ZN10wxFileName7SetPathERK8wxString12wxPathFormat
_ZN10wxFileName8FileNameERK8wxString12wxPathFormat
_ZN10wxFileName8FileNameERK8wxString12wxPathFormat.cold
_ZN10wxFileName9AppendDirERK8wxString
_ZN10wxFileName9AssignCwdERK8wxString
_ZN10wxFileName9AssignCwdERK8wxString.cold
_ZN10wxFileName9AssignDirERK8wxString12wxPathFormat
_ZN10wxFileName9AssignDirERK8wxString12wxPathFormat.cold
_ZN10wxFileName9DirExistsERK8wxString
_ZN10wxFileName9DoSetPathERK8wxString12wxPathFormati
_ZN10wxFileName9DoSetPathERK8wxString12wxPathFormati.cold
_ZN10wxFileName9GetFormatE12wxPathFormat
_ZN10wxFileName9InsertDirEmRK8wxString
_ZN10wxFileName9NormalizeEiRK8wxString12wxPathFormat
_ZN10wxFileName9NormalizeEiRK8wxString12wxPathFormat.cold
_ZN10wxFileName9RemoveDirEm
_ZN10wxFileName9SplitPathERK8wxStringPS0_S3_S3_12wxPathFormat
_ZN10wxFileName9SplitPathERK8wxStringPS0_S3_S3_12wxPathFormat.cold
_ZN10wxFileName9SplitPathERK8wxStringPS0_S3_S3_S3_Pb12wxPathFormat
_ZN10wxFileName9SplitPathERK8wxStringPS0_S3_S3_S3_Pb12wxPathFormat.cold
_ZN10wxFileNameD1Ev
_ZN10wxFileNameD2Ev
_ZN10wxFileNameD5Ev
_ZN10wxFileType10SetCommandERK8wxStringS2_b
_ZN10wxFileType11UnassociateEv
_ZN10wxFileType13ExpandCommandERK8wxStringRKNS_17MessageParametersE
_ZN10wxFileType13ExpandCommandERK8wxStringRKNS_17MessageParametersE.cold
_ZN10wxFileType13GetExtensionsER13wxArrayString
_ZN10wxFileType14SetDefaultIconERK8wxStringi
_ZN10wxFileType14SetDefaultIconERK8wxStringi.cold
_ZN10wxFileType17MessageParametersD0Ev
_ZN10wxFileType17MessageParametersD1Ev
_ZN10wxFileType17MessageParametersD2Ev
_ZN10wxFileType17MessageParametersD5Ev
_ZN10wxFileTypeC1ERK14wxFileTypeInfo
_ZN10wxFileTypeC1Ev
_ZN10wxFileTypeC2ERK14wxFileTypeInfo
_ZN10wxFileTypeC2Ev
_ZN10wxFileTypeD1Ev
_ZN10wxFileTypeD2Ev
_ZN10wxFontBase11SetFaceNameERK8wxString
_ZN10wxFontBase12SetPixelSizeERK6wxSize
_ZN10wxFontBase12SetPixelSizeERK6wxSize.cold
_ZN10wxFontBase12SetPointSizeEi
_ZN10wxFontBase12SetPointSizeEi.localalias
_ZN10wxFontBase14AddPrivateFontERK8wxString
_ZN10wxFontBase14AddPrivateFontERK8wxString.cold
_ZN10wxFontBase15SetSymbolicSizeE18wxFontSymbolicSize
_ZN10wxFontBase16SetStrikethroughEb
_ZN10wxFontBase17SetNativeFontInfoERK8wxString
_ZN10wxFontBase17SetNativeFontInfoERK8wxString.cold
_ZN10wxFontBase18GetNumericWeightOfE12wxFontWeight
_ZN10wxFontBase18ms_encodingDefaultE
_ZN10wxFontBase18SetDefaultEncodingE14wxFontEncoding
_ZN10wxFontBase19DoSetNativeFontInfoERK16wxNativeFontInfo
_ZN10wxFontBase20AdjustToSymbolicSizeE18wxFontSymbolicSizei
_ZN10wxFontBase20InfoFromLegacyParamsEi12wxFontFamily11wxFontStyle12wxFontWeightbRK8wxString14wxFontEncoding
_ZN10wxFontBase20InfoFromLegacyParamsEi12wxFontFamily11wxFontStyle12wxFontWeightbRK8wxString14wxFontEncoding.cold
_ZN10wxFontBase20InfoFromLegacyParamsERK6wxSize12wxFontFamily11wxFontStyle12wxFontWeightbRK8wxString14wxFontEncoding
_ZN10wxFontBase20InfoFromLegacyParamsERK6wxSize12wxFontFamily11wxFontStyle12wxFontWeightbRK8wxString14wxFontEncoding.cold
_ZN10wxFontBase25SetNativeFontInfoUserDescERK8wxString
_ZN10wxFontBase25SetNativeFontInfoUserDescERK8wxString.cold
_ZN10wxFontBase34ConvertFromLegacyWeightIfNecessaryEi
_ZN10wxFontBase3NewEi12wxFontFamily11wxFontStyle12wxFontWeightbRK8wxString14wxFontEncoding
_ZN10wxFontBase3NewEi12wxFontFamily11wxFontStyle12wxFontWeightbRK8wxString14wxFontEncoding.cold
_ZN10wxFontBase3NewEi12wxFontFamilyiRK8wxString14wxFontEncoding
_ZN10wxFontBase3NewERK16wxNativeFontInfo
_ZN10wxFontBase3NewERK16wxNativeFontInfo.cold
_ZN10wxFontBase3NewERK6wxSize12wxFontFamily11wxFontStyle12wxFontWeightbRK8wxString14wxFontEncoding
_ZN10wxFontBase3NewERK6wxSize12wxFontFamily11wxFontStyle12wxFontWeightbRK8wxString14wxFontEncoding.cold
_ZN10wxFontBase3NewERK6wxSize12wxFontFamilyiRK8wxString14wxFontEncoding
_ZN10wxFontBase3NewERK8wxString
_ZN10wxFontBase3NewERK8wxString.cold
_ZN10wxFontBase9SetWeightE12wxFontWeight
_ZN10wxFontBase9SetWeightE12wxFontWeight.localalias
_ZN10wxFontBaseD0Ev
_ZN10wxFontBaseD1Ev
_ZN10wxFontBaseD2Ev
_ZN10wxFontData12ms_classInfoE
_ZN10wxFontData14wxCreateObjectEv
_ZN10wxFontData14wxCreateObjectEv.cold
_ZN10wxFontDataaSERKS_
_ZN10wxFontDataC1ERKS_
_ZN10wxFontDataC1Ev
_ZN10wxFontDataC2ERKS_
_ZN10wxFontDataC2ERKS_.cold
_ZN10wxFontDataC2Ev
_ZN10wxFontDataD0Ev
_ZN10wxFontDataD1Ev
_ZN10wxFontDataD2Ev
_ZN10wxFontList16FindOrCreateFontEi12wxFontFamily11wxFontStyle12wxFontWeightbRK8wxString14wxFontEncoding
_ZN10wxFontList16FindOrCreateFontEi12wxFontFamily11wxFontStyle12wxFontWeightbRK8wxString14wxFontEncoding.cold
_ZN10wxGCDCImpl10CommonInitEv
_ZN10wxGCDCImpl10DoDrawIconERK6wxIconii
_ZN10wxGCDCImpl10DoDrawLineEiiii
_ZN10wxGCDCImpl10DoDrawTextERK8wxStringii
_ZN10wxGCDCImpl10DoDrawTextERK8wxStringii.cold
_ZN10wxGCDCImpl10SetPaletteERK9wxPalette
_ZN10wxGCDCImpl11DoCrossHairEii
_ZN10wxGCDCImpl11DoDrawLinesEiPK7wxPointii
_ZN10wxGCDCImpl11DoDrawLinesEiPK7wxPointii.cold
_ZN10wxGCDCImpl11DoDrawPointEii
_ZN10wxGCDCImpl11DoDrawPointEii.cold
_ZN10wxGCDCImpl11DoFloodFillEiiRK8wxColour16wxFloodFillStyle
_ZN10wxGCDCImpl12DoDrawBitmapERK8wxBitmapiib
_ZN10wxGCDCImpl12DoDrawBitmapERK8wxBitmapiib.cold
_ZN10wxGCDCImpl12DoDrawSplineEPK11wxPointList
_ZN10wxGCDCImpl12DoDrawSplineEPK11wxPointList.cold
_ZN10wxGCDCImpl12ms_classInfoE
_ZN10wxGCDCImpl13DoDrawEllipseEiiii
_ZN10wxGCDCImpl13DoDrawPolygonEiPK7wxPointii17wxPolygonFillMode
_ZN10wxGCDCImpl13DoDrawPolygonEiPK7wxPointii17wxPolygonFillMode.cold
_ZN10wxGCDCImpl13DoInitContextEP17wxGraphicsContext
_ZN10wxGCDCImpl13DoInitContextEP17wxGraphicsContext.cold
_ZN10wxGCDCImpl13DoStretchBlitEiiiiP4wxDCiiii21wxRasterOperationModebii
_ZN10wxGCDCImpl13DoStretchBlitEiiiiP4wxDCiiii21wxRasterOperationModebii.cold
_ZN10wxGCDCImpl13SetBackgroundERK7wxBrush
_ZN10wxGCDCImpl13UpdateClipBoxEv
_ZN10wxGCDCImpl15DoDrawCheckMarkEiiii
_ZN10wxGCDCImpl15DoDrawRectangleEiiii
_ZN10wxGCDCImpl17DoDrawEllipticArcEiiiidd
_ZN10wxGCDCImpl17DoDrawEllipticArcEiiiidd.cold
_ZN10wxGCDCImpl17DoDrawPolyPolygonEiPKiPK7wxPointii17wxPolygonFillMode
_ZN10wxGCDCImpl17DoDrawPolyPolygonEiPKiPK7wxPointii17wxPolygonFillMode.cold
_ZN10wxGCDCImpl17DoDrawRotatedTextERK8wxStringiid
_ZN10wxGCDCImpl17DoDrawRotatedTextERK8wxStringiid.cold
_ZN10wxGCDCImpl17SetBackgroundModeEi
_ZN10wxGCDCImpl17SetTextBackgroundERK8wxColour
_ZN10wxGCDCImpl17SetTextForegroundERK8wxColour
_ZN10wxGCDCImpl18SetGraphicsContextEP17wxGraphicsContext
_ZN10wxGCDCImpl18SetLogicalFunctionE21wxRasterOperationMode
_ZN10wxGCDCImpl18SetTransformMatrixERK16wxAffineMatrix2D
_ZN10wxGCDCImpl19DoSetClippingRegionEiiii
_ZN10wxGCDCImpl20DoGradientFillLinearERK6wxRectRK8wxColourS5_11wxDirection
_ZN10wxGCDCImpl20DoGradientFillLinearERK6wxRectRK8wxColourS5_11wxDirection.cold
_ZN10wxGCDCImpl20ResetTransformMatrixEv
_ZN10wxGCDCImpl21CalcBoundingBoxForBoxERK14wxRect2DDouble
_ZN10wxGCDCImpl21ComputeScaleAndOriginEv
_ZN10wxGCDCImpl21ComputeScaleAndOriginEv.cold
_ZN10wxGCDCImpl21DestroyClippingRegionEv
_ZN10wxGCDCImpl22DoDrawRoundedRectangleEiiiid
_ZN10wxGCDCImpl24DoGradientFillConcentricERK6wxRectRK8wxColourS5_RK7wxPoint
_ZN10wxGCDCImpl24DoGradientFillConcentricERK6wxRectRK8wxColourS5_RK7wxPoint.cold
_ZN10wxGCDCImpl25DoSetDeviceClippingRegionERK8wxRegion
_ZN10wxGCDCImpl25DoSetDeviceClippingRegionERK8wxRegion.cold
_ZN10wxGCDCImpl4InitEP17wxGraphicsContext
_ZN10wxGCDCImpl5ClearEv
_ZN10wxGCDCImpl5ClearEv.cold
_ZN10wxGCDCImpl5FlushEv
_ZN10wxGCDCImpl6DoBlitEiiiiP4wxDCii21wxRasterOperationModebii
_ZN10wxGCDCImpl6EndDocEv
_ZN10wxGCDCImpl6SetPenERK5wxPen
_ZN10wxGCDCImpl6SetPenERK5wxPen.localalias
_ZN10wxGCDCImpl7EndPageEv
_ZN10wxGCDCImpl7SetFontERK6wxFont
_ZN10wxGCDCImpl8SetBrushERK7wxBrush
_ZN10wxGCDCImpl8SetBrushERK7wxBrush.localalias
_ZN10wxGCDCImpl8StartDocERK8wxString
_ZN10wxGCDCImpl9DoDrawArcEiiiiii
_ZN10wxGCDCImpl9DoDrawArcEiiiiii.cold
_ZN10wxGCDCImpl9StartPageEv
_ZN10wxGCDCImplC1EP4wxDC
_ZN10wxGCDCImplC1EP4wxDCi
_ZN10wxGCDCImplC1EP4wxDCP17wxGraphicsContext
_ZN10wxGCDCImplC1EP4wxDCRK10wxMemoryDC
_ZN10wxGCDCImplC1EP4wxDCRK10wxWindowDC
_ZN10wxGCDCImplC1EP4wxDCRK11wxPrinterDC
_ZN10wxGCDCImplC2EP4wxDC
_ZN10wxGCDCImplC2EP4wxDC.cold
_ZN10wxGCDCImplC2EP4wxDCi
_ZN10wxGCDCImplC2EP4wxDCi.cold
_ZN10wxGCDCImplC2EP4wxDCP17wxGraphicsContext
_ZN10wxGCDCImplC2EP4wxDCP17wxGraphicsContext.cold
_ZN10wxGCDCImplC2EP4wxDCRK10wxMemoryDC
_ZN10wxGCDCImplC2EP4wxDCRK10wxMemoryDC.cold
_ZN10wxGCDCImplC2EP4wxDCRK10wxWindowDC
_ZN10wxGCDCImplC2EP4wxDCRK10wxWindowDC.cold
_ZN10wxGCDCImplC2EP4wxDCRK11wxPrinterDC
_ZN10wxGCDCImplC2EP4wxDCRK11wxPrinterDC.cold
_ZN10wxGCDCImplD0Ev
_ZN10wxGCDCImplD0Ev.localalias
_ZN10wxGCDCImplD1Ev
_ZN10wxGCDCImplD2Ev
_ZN10wxGIFTimer6NotifyEv
_ZN10wxGIFTimerD0Ev
_ZN10wxGIFTimerD1Ev
_ZN10wxGIFTimerD2Ev
_ZN10wxGIFTimerD5Ev
_ZN10wxGtkImage14BitmapProvider3SetERK14wxBitmapBundle
_ZN10wxGtkImage3NewEP8wxWindow
_ZN10wxGtkImage3NewEP8wxWindow.cold
_ZN10wxGtkImage3NewEPNS_14BitmapProviderE
_ZN10wxGtkImage3SetERK14wxBitmapBundle
_ZN10wxGtkImage3SetERK14wxBitmapBundle.cold
_ZN10wxGtkImage4TypeEv
_ZN10wxHtmlCell12ms_classInfoE
_ZN10wxHtmlCell13DrawInvisibleER4wxDCiiR19wxHtmlRenderingInfo
_ZN10wxHtmlCell13SetScriptModeE16wxHtmlScriptModel
_ZN10wxHtmlCell17ProcessMouseClickEP21wxHtmlWindowInterfaceRK7wxPointRK12wxMouseEvent
_ZN10wxHtmlCell17ProcessMouseClickEP21wxHtmlWindowInterfaceRK7wxPointRK12wxMouseEvent.cold
_ZN10wxHtmlCell4DrawER4wxDCiiiiR19wxHtmlRenderingInfo
_ZN10wxHtmlCell6LayoutEi
_ZN10wxHtmlCell6SetPosEii
_ZN10wxHtmlCell7SetLinkERK14wxHtmlLinkInfo
_ZN10wxHtmlCell7SetLinkERK14wxHtmlLinkInfo.cold
_ZN10wxHtmlCellC1Ev
_ZN10wxHtmlCellC2Ev
_ZN10wxHtmlCellD0Ev
_ZN10wxHtmlCellD1Ev
_ZN10wxHtmlCellD2Ev
_ZN10wxJoystick10SetCaptureEP8wxWindowi
_ZN10wxJoystick12ms_classInfoE
_ZN10wxJoystick14ReleaseCaptureEv
_ZN10wxJoystick14wxCreateObjectEv
_ZN10wxJoystick14wxCreateObjectEv.cold
_ZN10wxJoystick18GetNumberJoysticksEv
_ZN10wxJoystick18GetNumberJoysticksEv.cold
_ZN10wxJoystick20SetMovementThresholdEi
_ZN10wxJoystickC1Ei
_ZN10wxJoystickC2Ei
_ZN10wxJoystickC2Ei.cold
_ZN10wxJoystickD0Ev
_ZN10wxJoystickD1Ev
_ZN10wxJoystickD2Ev
_ZN10wxKeyEvent12ms_classInfoE
_ZN10wxKeyEvent14wxCreateObjectEv
_ZN10wxKeyEvent14wxCreateObjectEv.cold
_ZN10wxKeyEventaSERKS_
_ZN10wxKeyEventC1Ei
_ZN10wxKeyEventC1EiRKS_
_ZN10wxKeyEventC1ERKS_
_ZN10wxKeyEventC2Ei
_ZN10wxKeyEventC2EiRKS_
_ZN10wxKeyEventC2ERKS_
_ZN10wxKeyEventD0Ev
_ZN10wxKeyEventD1Ev
_ZN10wxKeyEventD2Ev
_ZN10wxKeyEventD5Ev
_ZN10wxListBase10DeleteNodeEP10wxNodeBase
_ZN10wxListBase10DetachNodeEP10wxNodeBase
_ZN10wxListBase11DeleteNodesEP10wxNodeBaseS1_
_ZN10wxListBase12AppendCommonEP10wxNodeBase
_ZN10wxListBase12DeleteObjectEPv
_ZN10wxListBase12DoDeleteNodeEP10wxNodeBase
_ZN10wxListBase4InitE9wxKeyType
_ZN10wxListBase4SortEPFiPKvS1_E
_ZN10wxListBase4SortEPFiPKvS1_E.cold
_ZN10wxListBase5ClearEv
_ZN10wxListBase6AppendElPv
_ZN10wxListBase6AppendElPv.cold
_ZN10wxListBase6AppendEPv
_ZN10wxListBase6AppendERK8wxStringPv
_ZN10wxListBase6AppendERK8wxStringPv.cold
_ZN10wxListBase6DoCopyERKS_
_ZN10wxListBase6DoCopyERKS_.cold
_ZN10wxListBase6InsertEP10wxNodeBasePv
_ZN10wxListBase7ForEachEPFiPvE
_ZN10wxListBase7ReverseEv
_ZN10wxListBase8LastThatEPFiPvE
_ZN10wxListBase9FirstThatEPFiPvE
_ZN10wxListBaseD0Ev
_ZN10wxListBaseD1Ev
_ZN10wxListBaseD2Ev
_ZN10wxListbook10InsertPageEmP8wxWindowRK8wxStringbi
_ZN10wxListbook10UpdateSizeEv
_ZN10wxListbook10UpdateSizeEv.cold
_ZN10wxListbook11SetPageTextEmRK8wxString
_ZN10wxListbook12DoRemovePageEm
_ZN10wxListbook12DoRemovePageEm.localalias
_ZN10wxListbook12ms_classInfoE
_ZN10wxListbook12SetPageImageEmi
_ZN10wxListbook12SetSelectionEm
_ZN10wxListbook13sm_eventTableE
_ZN10wxListbook14DeleteAllPagesEv
_ZN10wxListbook14OnListSelectedER11wxListEvent
_ZN10wxListbook14wxCreateObjectEv
_ZN10wxListbook14wxCreateObjectEv.cold
_ZN10wxListbook15ChangeSelectionEm
_ZN10wxListbook15OnImagesChangedEv
_ZN10wxListbook15OnImagesChangedEv.cold
_ZN10wxListbook16MakeChangedEventER15wxBookCtrlEvent
_ZN10wxListbook17sm_eventHashTableE
_ZN10wxListbook18UpdateSelectedPageEm
_ZN10wxListbook20sm_eventTableEntriesE
_ZN10wxListbook6CreateEP8wxWindowiRK7wxPointRK6wxSizelRK8wxString
_ZN10wxListbook6CreateEP8wxWindowiRK7wxPointRK6wxSizelRK8wxString.cold
_ZN10wxListbook6OnSizeER11wxSizeEvent
_ZN10wxListbookD0Ev
_ZN10wxListbookD1Ev
_ZN10wxListbookD2Ev
_ZN10wxListbookD5Ev
_ZN10wxListCtrl12ms_classInfoE
_ZN10wxListCtrl14wxCreateObjectEv
_ZN10wxListCtrl14wxCreateObjectEv.cold
_ZN10wxListCtrlD0Ev
_ZN10wxListCtrlD1Ev
_ZN10wxListCtrlD2Ev
_ZN10wxListCtrlD5Ev
_ZN10wxListItem12ms_classInfoE
_ZN10wxListItem14wxCreateObjectEv
_ZN10wxListItemD0Ev
_ZN10wxListItemD1Ev
_ZN10wxListItemD2Ev
_ZN10wxListItemD5Ev
_ZN10wxListView12ms_classInfoE
_ZN10wxListView14wxCreateObjectEv
_ZN10wxListView14wxCreateObjectEv.cold
_ZN10wxListViewD0Ev
_ZN10wxListViewD1Ev
_ZN10wxListViewD2Ev
_ZN10wxListViewD5Ev
_ZN10wxLogChain11DoLogRecordEmRK8wxStringRK15wxLogRecordInfo
_ZN10wxLogChain5FlushEv
_ZN10wxLogChain6SetLogEP5wxLog
_ZN10wxLogChainC1EP5wxLog
_ZN10wxLogChainC2EP5wxLog
_ZN10wxLogChainC2EP5wxLog.cold
_ZN10wxLogChainD0Ev
_ZN10wxLogChainD1Ev
_ZN10wxLogChainD2Ev
_ZN10wxLogFrame13OnCloseWindowER12wxCloseEvent
_ZN10wxLogFrame13sm_eventTableE
_ZN10wxLogFrame17sm_eventHashTableE
_ZN10wxLogFrame20sm_eventTableEntriesE
_ZN10wxLogFrame6OnSaveER14wxCommandEvent
_ZN10wxLogFrame6OnSaveER14wxCommandEvent.cold
_ZN10wxLogFrame7DoCloseEv
_ZN10wxLogFrame7OnClearER14wxCommandEvent
_ZN10wxLogFrame7OnCloseER14wxCommandEvent
_ZN10wxLogFrameC1EP8wxWindowP11wxLogWindowRK8wxString
_ZN10wxLogFrameC2EP8wxWindowP11wxLogWindowRK8wxString
_ZN10wxLogFrameC2EP8wxWindowP11wxLogWindowRK8wxString.cold
_ZN10wxLogFrameD0Ev
_ZN10wxLogFrameD0Ev.localalias
_ZN10wxLogFrameD1Ev
_ZN10wxLogFrameD2Ev
_ZN10wxMaskBase6CreateERK8wxBitmap
_ZN10wxMaskBase6CreateERK8wxBitmapi
_ZN10wxMaskBase6CreateERK8wxBitmapi.cold
_ZN10wxMaskBase6CreateERK8wxBitmapRK8wxColour
_ZN10wxMemoryDC12ms_classInfoE
_ZN10wxMemoryDC12SelectObjectER8wxBitmap
_ZN10wxMemoryDC14wxCreateObjectEv
_ZN10wxMemoryDC14wxCreateObjectEv.cold
_ZN10wxMemoryDC17GetSelectedBitmapEv
_ZN10wxMemoryDC20SelectObjectAsSourceERK8wxBitmap
_ZN10wxMemoryDCC1EP4wxDC
_ZN10wxMemoryDCC1ER8wxBitmap
_ZN10wxMemoryDCC1Ev
_ZN10wxMemoryDCC2EP4wxDC
_ZN10wxMemoryDCC2EP4wxDC.cold
_ZN10wxMemoryDCC2ER8wxBitmap
_ZN10wxMemoryDCC2Ev
_ZN10wxMemoryDCC2Ev.cold
_ZN10wxMemoryDCD0Ev
_ZN10wxMemoryDCD1Ev
_ZN10wxMemoryDCD2Ev
_ZN10wxMemoryDCD5Ev
_ZN10wxMenuBase10AddSubMenuEP6wxMenu
_ZN10wxMenuBase13SetHelpStringEiRK8wxString
_ZN10wxMenuBase14DoProcessEventEPS_R7wxEventP8wxWindow
_ZN10wxMenuBase15AppendSeparatorEv
_ZN10wxMenuBase15AppendSeparatorEv.isra.0
_ZN10wxMenuBase15AppendSeparatorEv.isra.0.cold
_ZN10wxMenuBase16ProcessMenuEventEP6wxMenuR11wxMenuEventP8wxWindow
_ZN10wxMenuBase17SetInvokingWindowEP8wxWindow
_ZN10wxMenuBase4InitEl
_ZN10wxMenuBase5BreakEv
_ZN10wxMenuBase5CheckEib
_ZN10wxMenuBase6AttachEP13wxMenuBarBase
_ZN10wxMenuBase6DeleteEP10wxMenuItem
_ZN10wxMenuBase6DetachEv
_ZN10wxMenuBase6EnableEib
_ZN10wxMenuBase6InsertEmP10wxMenuItem
_ZN10wxMenuBase6RemoveEP10wxMenuItem
_ZN10wxMenuBase7DestroyEP10wxMenuItem
_ZN10wxMenuBase8DoAppendEP10wxMenuItem
_ZN10wxMenuBase8DoDeleteEP10wxMenuItem
_ZN10wxMenuBase8DoInsertEmP10wxMenuItem
_ZN10wxMenuBase8DoRemoveEP10wxMenuItem
_ZN10wxMenuBase8SetLabelEiRK8wxString
_ZN10wxMenuBase8SetTitleERK8wxString
_ZN10wxMenuBase8UpdateUIEP12wxEvtHandler
_ZN10wxMenuBase8UpdateUIEP12wxEvtHandler.cold
_ZN10wxMenuBase8UpdateUIEP12wxEvtHandler.localalias
_ZN10wxMenuBase9DoDestroyEP10wxMenuItem
_ZN10wxMenuBase9ms_lockedE
_ZN10wxMenuBase9SendEventEii
_ZN10wxMenuBase9SendEventEii.cold
_ZN10wxMenuBaseD0Ev
_ZN10wxMenuBaseD1Ev
_ZN10wxMenuBaseD2Ev
_ZN10wxMenuItem11SetGtkLabelEv
_ZN10wxMenuItem11SetGtkLabelEv.cold
_ZN10wxMenuItem11SetMenuItemEP10_GtkWidget
_ZN10wxMenuItem12ms_classInfoE
_ZN10wxMenuItem12SetItemLabelERK8wxString
_ZN10wxMenuItem12SetupBitmapsEP8wxWindow
_ZN10wxMenuItem13AddExtraAccelERK18wxAcceleratorEntry
_ZN10wxMenuItem14wxCreateObjectEv
_ZN10wxMenuItem14wxCreateObjectEv.cold
_ZN10wxMenuItem16ClearExtraAccelsEv
_ZN10wxMenuItem17GTKSetExtraAccelsEv
_ZN10wxMenuItem5CheckEb
_ZN10wxMenuItem6EnableEb
_ZN10wxMenuItemC1EP6wxMenuiRK8wxStringS4_10wxItemKindS1_
_ZN10wxMenuItemC2EP6wxMenuiRK8wxStringS4_10wxItemKindS1_
_ZN10wxMenuItemD0Ev
_ZN10wxMenuItemD1Ev
_ZN10wxMenuItemD2Ev
_ZN10wxMenuList10CreateNodeEP10wxNodeBaseS1_PvRK9wxListKey
_ZN10wxMenuListD0Ev
_ZN10wxMenuListD1Ev
_ZN10wxMenuListD2Ev
_ZN10wxMenuListD5Ev
_ZN10wxMirrorDCD0Ev
_ZN10wxMirrorDCD1Ev
_ZN10wxMirrorDCD2Ev
_ZN10wxMirrorDCD5Ev
_ZN10wxNodeBase10DeleteDataEv
_ZN10wxNodeBaseC1EP10wxListBasePS_S2_PvRK9wxListKey
_ZN10wxNodeBaseC2EP10wxListBasePS_S2_PvRK9wxListKey
_ZN10wxNodeBaseC2EP10wxListBasePS_S2_PvRK9wxListKey.cold
_ZN10wxNodeBaseD0Ev
_ZN10wxNodeBaseD1Ev
_ZN10wxNodeBaseD2Ev
_ZN10wxNotebook10InsertPageEmP8wxWindowRK8wxStringbi
_ZN10wxNotebook10InsertPageEmP8wxWindowRK8wxStringbi.cold
_ZN10wxNotebook10SetPaddingERK6wxSize
_ZN10wxNotebook10SetTabSizeERK6wxSize
_ZN10wxNotebook11AddChildGTKEP8wxWindow
_ZN10wxNotebook11SetPageTextEmRK8wxString
_ZN10wxNotebook11SetPageTextEmRK8wxString.cold
_ZN10wxNotebook12DoRemovePageEm
_ZN10wxNotebook12DoRemovePageEm.cold
_ZN10wxNotebook12ms_classInfoE
_ZN10wxNotebook12SetPageImageEmi
_ZN10wxNotebook12SetPageImageEmi.cold
_ZN10wxNotebook12SetSelectionEm
_ZN10wxNotebook13sm_eventTableE
_ZN10wxNotebook14DeleteAllPagesEv
_ZN10wxNotebook14DoSetSelectionEmi
_ZN10wxNotebook14wxCreateObjectEv
_ZN10wxNotebook14wxCreateObjectEv.cold
_ZN10wxNotebook15ChangeSelectionEm
_ZN10wxNotebook15OnNavigationKeyER20wxNavigationKeyEvent
_ZN10wxNotebook16GTKOnPageChangedEv
_ZN10wxNotebook17sm_eventHashTableE
_ZN10wxNotebook18DoApplyWidgetStyleEP11_GtkRcStyle
_ZN10wxNotebook18SetConstraintSizesEb
_ZN10wxNotebook20sm_eventTableEntriesE
_ZN10wxNotebook25GetClassDefaultAttributesE15wxWindowVariant
_ZN10wxNotebook4InitEv
_ZN10wxNotebook6CreateEP8wxWindowiRK7wxPointRK6wxSizelRK8wxString
_ZN10wxNotebook7DoPhaseEi
_ZN10wxNotebookC1EP8wxWindowiRK7wxPointRK6wxSizelRK8wxString
_ZN10wxNotebookC1Ev
_ZN10wxNotebookC2EP8wxWindowiRK7wxPointRK6wxSizelRK8wxString
_ZN10wxNotebookC2EP8wxWindowiRK7wxPointRK6wxSizelRK8wxString.cold
_ZN10wxNotebookC2Ev
_ZN10wxNotebookC2Ev.cold
_ZN10wxNotebookD0Ev
_ZN10wxNotebookD1Ev
_ZN10wxNotebookD2Ev
_ZN10wxPathList10AddEnvListERK8wxString
_ZN10wxPathList10AddEnvListERK8wxString.cold
_ZN10wxPathList20EnsureFileAccessibleERK8wxString
_ZN10wxPathList20EnsureFileAccessibleERK8wxString.cold
_ZN10wxPathList3AddERK13wxArrayString
_ZN10wxPathList3AddERK8wxString
_ZN10wxPathList3AddERK8wxString.cold
_ZN10wxPGEditor12ms_classInfoE
_ZN10wxPGEditorD0Ev
_ZN10wxPGEditorD1Ev
_ZN10wxPGEditorD2Ev
_ZN10wxPlatform11AddPlatformEi
_ZN10wxPlatform14ClearPlatformsEv
_ZN10wxPlatform18sm_customPlatformsE
_ZN10wxPlatform2IfEid
_ZN10wxPlatform2IfEil
_ZN10wxPlatform2IfEiRK8wxString
_ZN10wxPlatform2IfEiRK8wxString.cold
_ZN10wxPlatform2IsEi
_ZN10wxPlatform4CopyERKS_
_ZN10wxPlatform4ElseEd
_ZN10wxPlatform4ElseEl
_ZN10wxPlatform4ElseERK8wxString
_ZN10wxPlatform5IfNotEid
_ZN10wxPlatform5IfNotEil
_ZN10wxPlatform5IfNotEiRK8wxString
_ZN10wxPlatform5IfNotEiRK8wxString.cold
_ZN10wxPlatform6ElseIfEid
_ZN10wxPlatform6ElseIfEil
_ZN10wxPlatform6ElseIfEiRK8wxString
_ZN10wxPlatform9ElseIfNotEid
_ZN10wxPlatform9ElseIfNotEil
_ZN10wxPlatform9ElseIfNotEiRK8wxString
_ZN10wxPrintout10SetPreviewEP14wxPrintPreview
_ZN10wxPrintout11GetPageInfoEPiS0_S0_S0_
_ZN10wxPrintout11GetPageInfoEPiS0_S0_S0_.localalias
_ZN10wxPrintout12ms_classInfoE
_ZN10wxPrintout13OnEndDocumentEv
_ZN10wxPrintout13OnEndDocumentEv.localalias
_ZN10wxPrintout13OnEndPrintingEv
_ZN10wxPrintout15OnBeginDocumentEii
_ZN10wxPrintout15OnBeginDocumentEii.localalias
_ZN10wxPrintout15OnBeginPrintingEv
_ZN10wxPrintout15OnBeginPrintingEv.localalias
_ZN10wxPrintout16SetLogicalOriginEii
_ZN10wxPrintout17FitThisSizeToPageERK6wxSize
_ZN10wxPrintout17OnPreparePrintingEv
_ZN10wxPrintout18FitThisSizeToPaperERK6wxSize
_ZN10wxPrintout19MapScreenSizeToPageEv
_ZN10wxPrintout19OffsetLogicalOriginEii
_ZN10wxPrintout20MapScreenSizeToPaperEv
_ZN10wxPrintout21MapScreenSizeToDeviceEv
_ZN10wxPrintout24FitThisSizeToPageMarginsERK6wxSizeRK21wxPageSetupDialogData
_ZN10wxPrintout26MapScreenSizeToPageMarginsERK21wxPageSetupDialogData
_ZN10wxPrintout5SetUpER4wxDC
_ZN10wxPrintout7HasPageEi
_ZN10wxPrintout7HasPageEi.localalias
_ZN10wxPrintoutC1ERK8wxString
_ZN10wxPrintoutC2ERK8wxString
_ZN10wxPrintoutC2ERK8wxString.cold
_ZN10wxPrintoutD0Ev
_ZN10wxPrintoutD1Ev
_ZN10wxPrintoutD2Ev
_ZN10wxProtocol10LogRequestERK8wxString
_ZN10wxProtocol10LogRequestERK8wxString.cold
_ZN10wxProtocol10SetTimeoutEl
_ZN10wxProtocol11LogResponseERK8wxString
_ZN10wxProtocol11LogResponseERK8wxString.cold
_ZN10wxProtocol12ms_classInfoE
_ZN10wxProtocol17SetDefaultTimeoutEj
_ZN10wxProtocol17SetDefaultTimeoutEj.localalias
_ZN10wxProtocol6SetLogEP13wxProtocolLog
_ZN10wxProtocol7ConnectERK13wxSockAddressb
_ZN10wxProtocol7ConnectERK8wxString
_ZN10wxProtocol8ReadLineEP12wxSocketBaseR8wxString
_ZN10wxProtocol8ReadLineEP12wxSocketBaseR8wxString.cold
_ZN10wxProtocol8ReadLineER8wxString
_ZN10wxProtocol9ReconnectEv
_ZN10wxProtocol9ReconnectEv.cold
_ZN10wxProtocolC1Ev
_ZN10wxProtocolC2Ev
_ZN10wxProtocolC2Ev.cold
_ZN10wxProtocolD0Ev
_ZN10wxProtocolD1Ev
_ZN10wxProtocolD2Ev
_ZN10wxQuantize10DoQuantizeEjjPPhS1_S0_i
_ZN10wxQuantize12ms_classInfoE
_ZN10wxQuantize14wxCreateObjectEv
_ZN10wxQuantize8QuantizeERK7wxImageRS0_iPPhi
_ZN10wxQuantize8QuantizeERK7wxImageRS0_PP9wxPaletteiPPhi
_ZN10wxQuantize8QuantizeERK7wxImageRS0_PP9wxPaletteiPPhi.cold
_ZN10wxQuantizeD0Ev
_ZN10wxQuantizeD1Ev
_ZN10wxQuantizeD2Ev
_ZN10wxQuantizeD5Ev
_ZN10wxRadioBox12ms_classInfoE
_ZN10wxRadioBox12SetSelectionEi
_ZN10wxRadioBox14wxCreateObjectEv
_ZN10wxRadioBox14wxCreateObjectEv.cold
_ZN10wxRadioBox15GTKApplyToolTipEPKc
_ZN10wxRadioBox15GtkEnableEventsEv
_ZN10wxRadioBox16DoSetItemToolTipEjP9wxToolTip
_ZN10wxRadioBox16DoSetItemToolTipEjP9wxToolTip.cold
_ZN10wxRadioBox16GtkDisableEventsEv
_ZN10wxRadioBox18DoApplyWidgetStyleEP11_GtkRcStyle
_ZN10wxRadioBox22GTKWidgetDoSetMnemonicEP10_GtkWidget
_ZN10wxRadioBox25GetClassDefaultAttributesE15wxWindowVariant
_ZN10wxRadioBox4ShowEb
_ZN10wxRadioBox4ShowEjb
_ZN10wxRadioBox6CreateEP8wxWindowiRK8wxStringRK7wxPointRK6wxSizeiPS3_ilRK11wxValidatorS4_
_ZN10wxRadioBox6CreateEP8wxWindowiRK8wxStringRK7wxPointRK6wxSizeiPS3_ilRK11wxValidatorS4_.cold
_ZN10wxRadioBox6CreateEP8wxWindowiRK8wxStringRK7wxPointRK6wxSizeRK13wxArrayStringilRK11wxValidatorS4_
_ZN10wxRadioBox6CreateEP8wxWindowiRK8wxStringRK7wxPointRK6wxSizeRK13wxArrayStringilRK11wxValidatorS4_.cold
_ZN10wxRadioBox6EnableEb
_ZN10wxRadioBox6EnableEjb
_ZN10wxRadioBox8DoEnableEb
_ZN10wxRadioBox8SetLabelERK8wxString
_ZN10wxRadioBox9SetStringEjRK8wxString
_ZN10wxRadioBox9SetStringEjRK8wxString.cold
_ZN10wxRadioBoxD0Ev
_ZN10wxRadioBoxD1Ev
_ZN10wxRadioBoxD2Ev
_ZN10wxScreenDC12ms_classInfoE
_ZN10wxScreenDC14wxCreateObjectEv
_ZN10wxScreenDC14wxCreateObjectEv.cold
_ZN10wxScreenDCC1Ev
_ZN10wxScreenDCC2Ev
_ZN10wxScreenDCC2Ev.cold
_ZN10wxScreenDCD0Ev
_ZN10wxScreenDCD1Ev
_ZN10wxScreenDCD2Ev
_ZN10wxScreenDCD5Ev
_ZN10wxScrolledI7wxPanelE16DoSetVirtualSizeEii
_ZN10wxScrolledI7wxPanelE6LayoutEv
_ZN10wxScrolledI7wxPanelE9PrepareDCER4wxDC
_ZN10wxScrolledI7wxPanelED0Ev
_ZN10wxScrolledI7wxPanelED1Ev
_ZN10wxScrolledI7wxPanelED2Ev
_ZN10wxScrolledI7wxPanelED5Ev
_ZN10wxScrolledI8wxWindowE16DoSetVirtualSizeEii
_ZN10wxScrolledI8wxWindowE6LayoutEv
_ZN10wxScrolledI8wxWindowE9PrepareDCER4wxDC
_ZN10wxScrolledI8wxWindowED0Ev
_ZN10wxScrolledI8wxWindowED1Ev
_ZN10wxScrolledI8wxWindowED2Ev
_ZN10wxScrolledI8wxWindowED5Ev
_ZN10wxScrolledI9wxControlE16DoSetVirtualSizeEii
_ZN10wxScrolledI9wxControlE6LayoutEv
_ZN10wxScrolledI9wxControlE9PrepareDCER4wxDC
_ZN10wxScrolledI9wxControlED0Ev
_ZN10wxScrolledI9wxControlED1Ev
_ZN10wxScrolledI9wxControlED2Ev
_ZN10wxScrolledI9wxControlED5Ev
_ZN10wxSpinCtrl12ms_classInfoE
_ZN10wxSpinCtrl14wxCreateObjectEv
_ZN10wxSpinCtrl14wxCreateObjectEv.cold
_ZN10wxSpinCtrl15GTKValueChangedEv
_ZN10wxSpinCtrl15GTKValueChangedEv.cold
_ZN10wxSpinCtrl16GtkSetEntryWidthEv
_ZN10wxSpinCtrl7SetBaseEi
_ZN10wxSpinCtrl8SetValueERK8wxString
_ZN10wxSpinCtrlD0Ev
_ZN10wxSpinCtrlD1Ev
_ZN10wxSpinCtrlD2Ev
_ZN10wxSpinCtrlD5Ev
_ZN10wxSTCTimer6NotifyEv
_ZN10wxSTCTimerD0Ev
_ZN10wxSTCTimerD1Ev
_ZN10wxSTCTimerD2Ev
_ZN10wxSTCTimerD5Ev
_ZN10wxStockGDI11ms_instanceE
_ZN10wxStockGDI14ms_stockObjectE
_ZN10wxStockGDI6GetPenENS_4ItemE
_ZN10wxStockGDI6GetPenENS_4ItemE.cold
_ZN10wxStockGDI7GetFontENS_4ItemE
_ZN10wxStockGDI7GetFontENS_4ItemE.cold
_ZN10wxStockGDI8GetBrushENS_4ItemE
_ZN10wxStockGDI8GetBrushENS_4ItemE.cold
_ZN10wxStockGDI9DeleteAllEv
_ZN10wxStockGDI9GetColourENS_4ItemE
_ZN10wxStockGDI9GetColourENS_4ItemE.cold
_ZN10wxStockGDI9GetCursorENS_4ItemE
_ZN10wxStockGDI9GetCursorENS_4ItemE.cold
_ZN10wxStockGDIC1Ev
_ZN10wxStockGDIC2Ev
_ZN10wxStockGDID0Ev
_ZN10wxStockGDID1Ev
_ZN10wxStockGDID2Ev
_ZN10wxTabFrame4ShowEb
_ZN10wxTabFrame6UpdateEv
_ZN10wxTabFrame8DoSizingEv
_ZN10wxTabFrame9DoSetSizeEiiiii
_ZN10wxTabFrameD0Ev
_ZN10wxTabFrameD1Ev
_ZN10wxTabFrameD2Ev
_ZN10wxTabFrameD5Ev
_ZN10wxTarEntry11SetDateTimeERK10wxDateTime
_ZN10wxTarEntry12ms_classInfoE
_ZN10wxTarEntry13SetIsReadOnlyEb
_ZN10wxTarEntry14wxCreateObjectEv
_ZN10wxTarEntry14wxCreateObjectEv.cold
_ZN10wxTarEntry15GetInternalNameERK8wxString12wxPathFormatPb
_ZN10wxTarEntry15GetInternalNameERK8wxString12wxPathFormatPb.cold
_ZN10wxTarEntry7SetModeEi
_ZN10wxTarEntry7SetNameERK8wxString12wxPathFormat
_ZN10wxTarEntry7SetNameERK8wxString12wxPathFormat.cold
_ZN10wxTarEntry7SetSizeEl
_ZN10wxTarEntry8SetIsDirEb
_ZN10wxTarEntry8SetIsDirEb.localalias
_ZN10wxTarEntry9SetOffsetEl
_ZN10wxTarEntryaSERKS_
_ZN10wxTarEntryC1ERK8wxStringRK10wxDateTimel
_ZN10wxTarEntryC1ERKS_
_ZN10wxTarEntryC2ERK8wxStringRK10wxDateTimel
_ZN10wxTarEntryC2ERK8wxStringRK10wxDateTimel.cold
_ZN10wxTarEntryC2ERKS_
_ZN10wxTarEntryC2ERKS_.cold
_ZN10wxTarEntryD0Ev
_ZN10wxTarEntryD0Ev.localalias
_ZN10wxTarEntryD1Ev
_ZN10wxTarEntryD2Ev
_ZN10wxTempFile4OpenERK8wxString
_ZN10wxTempFile4OpenERK8wxString.cold
_ZN10wxTempFile6CommitEv
_ZN10wxTempFile6CommitEv.cold
_ZN10wxTempFile7DiscardEv
_ZN10wxTempFile7DiscardEv.cold
_ZN10wxTempFileC1ERK8wxString
_ZN10wxTempFileC2ERK8wxString
_ZN10wxTempFileC2ERK8wxString.cold
_ZN10wxTempFileD1Ev
_ZN10wxTempFileD2Ev
_ZN10wxTextAttr11RemoveStyleERS_RKS_
_ZN10wxTextAttr15CombineBitlistsERiiS0_i
_ZN10wxTextAttr17BitlistsEqPartialEiii
_ZN10wxTextAttr17GetFontAttributesERK6wxFonti
_ZN10wxTextAttr17GetFontAttributesERK6wxFonti.cold
_ZN10wxTextAttr19SplitParaCharStylesERKS_RS_S2_
_ZN10wxTextAttr19SplitParaCharStylesERKS_RS_S2_.cold
_ZN10wxTextAttr4CopyERKS_
_ZN10wxTextAttr4InitEv
_ZN10wxTextAttr5ApplyERKS_PS0_
_ZN10wxTextAttr6TabsEqERK10wxArrayIntS2_
_ZN10wxTextAttr7CombineERKS_S1_PK14wxTextCtrlBase
_ZN10wxTextAttr7CombineERKS_S1_PK14wxTextCtrlBase.cold
_ZN10wxTextAttr7SetTabsERK10wxArrayInt
_ZN10wxTextAttraSERKS_
_ZN10wxTextAttrC1ERK8wxColourS2_RK6wxFont19wxTextAttrAlignment
_ZN10wxTextAttrC1ERKS_
_ZN10wxTextAttrC1Ev
_ZN10wxTextAttrC2ERK8wxColourS2_RK6wxFont19wxTextAttrAlignment
_ZN10wxTextAttrC2ERK8wxColourS2_RK6wxFont19wxTextAttrAlignment.cold
_ZN10wxTextAttrC2ERKS_
_ZN10wxTextAttrC2Ev
_ZN10wxTextAttrC5ERKS_
_ZN10wxTextAttrC5Ev
_ZN10wxTextAttrD1Ev
_ZN10wxTextAttrD2Ev
_ZN10wxTextAttrD5Ev
_ZN10wxTextCtrl11OnDropFilesER16wxDropFilesEvent
_ZN10wxTextCtrl11OnUpdateCutER15wxUpdateUIEvent
_ZN10wxTextCtrl11SetEditableEb
_ZN10wxTextCtrl12DiscardEditsEv
_ZN10wxTextCtrl12ms_classInfoE
_ZN10wxTextCtrl12OnUpdateCopyER15wxUpdateUIEvent
_ZN10wxTextCtrl12OnUpdateRedoER15wxUpdateUIEvent
_ZN10wxTextCtrl12OnUpdateUndoER15wxUpdateUIEvent
_ZN10wxTextCtrl12SetSelectionEll
_ZN10wxTextCtrl12ShowPositionEl
_ZN10wxTextCtrl13OnUpdatePasteER15wxUpdateUIEvent
_ZN10wxTextCtrl13sm_eventTableE
_ZN10wxTextCtrl14GTKAfterLayoutEv
_ZN10wxTextCtrl14GTKSetEditableEv
_ZN10wxTextCtrl14GTKSetWrapModeEv
_ZN10wxTextCtrl14wxCreateObjectEv
_ZN10wxTextCtrl14wxCreateObjectEv.cold
_ZN10wxTextCtrl15OnUrlMouseEventER12wxMouseEvent
_ZN10wxTextCtrl15OnUrlMouseEventER12wxMouseEvent.cold
_ZN10wxTextCtrl16GetConnectWidgetEv
_ZN10wxTextCtrl16GTKOnTextChangedEv
_ZN10wxTextCtrl16GTKSetVisibilityEv
_ZN10wxTextCtrl16IgnoreTextUpdateEv
_ZN10wxTextCtrl17MarkDirtyOnChangeEv
_ZN10wxTextCtrl17SetInsertionPointEl
_ZN10wxTextCtrl17sm_eventHashTableE
_ZN10wxTextCtrl18ChangeFontGloballyEv
_ZN10wxTextCtrl18ChangeFontGloballyEv.cold
_ZN10wxTextCtrl18DoApplyWidgetStyleEP11_GtkRcStyle
_ZN10wxTextCtrl18SetWindowStyleFlagEl
_ZN10wxTextCtrl19GTKSetJustificationEv
_ZN10wxTextCtrl19SetBackgroundColourERK8wxColour
_ZN10wxTextCtrl19SetForegroundColourERK8wxColour
_ZN10wxTextCtrl20sm_eventTableEntriesE
_ZN10wxTextCtrl22GTKSetActivatesDefaultEv
_ZN10wxTextCtrl25GetClassDefaultAttributesE15wxWindowVariant
_ZN10wxTextCtrl3CutEv
_ZN10wxTextCtrl4CopyEv
_ZN10wxTextCtrl4InitEv
_ZN10wxTextCtrl5OnCutER14wxCommandEvent
_ZN10wxTextCtrl5PasteEv
_ZN10wxTextCtrl6CreateEP8wxWindowiRK8wxStringRK7wxPointRK6wxSizelRK11wxValidatorS4_
_ZN10wxTextCtrl6DoThawEv
_ZN10wxTextCtrl6OnCharER10wxKeyEvent
_ZN10wxTextCtrl6OnCharER10wxKeyEvent.cold
_ZN10wxTextCtrl6OnCopyER14wxCommandEvent
_ZN10wxTextCtrl6OnRedoER14wxCommandEvent
_ZN10wxTextCtrl6OnUndoER14wxCommandEvent
_ZN10wxTextCtrl6RemoveEll
_ZN10wxTextCtrl7OnPasteER14wxCommandEvent
_ZN10wxTextCtrl7SetFontERK6wxFont
_ZN10wxTextCtrl8DoEnableEb
_ZN10wxTextCtrl8DoFreezeEv
_ZN10wxTextCtrl8GetStyleElR10wxTextAttr
_ZN10wxTextCtrl8GetStyleElR10wxTextAttr.cold
_ZN10wxTextCtrl8SetStyleEllRK10wxTextAttr
_ZN10wxTextCtrl9MarkDirtyEv
_ZN10wxTextCtrl9MarkDirtyEv.localalias
_ZN10wxTextCtrl9WriteTextERK8wxString
_ZN10wxTextCtrl9WriteTextERK8wxString.cold
_ZN10wxTextCtrlC1EP8wxWindowiRK8wxStringRK7wxPointRK6wxSizelRK11wxValidatorS4_
_ZN10wxTextCtrlC2EP8wxWindowiRK8wxStringRK7wxPointRK6wxSizelRK11wxValidatorS4_
_ZN10wxTextCtrlC2EP8wxWindowiRK8wxStringRK7wxPointRK6wxSizelRK11wxValidatorS4_.cold
_ZN10wxTextCtrlD0Ev
_ZN10wxTextCtrlD1Ev
_ZN10wxTextCtrlD2Ev
_ZN10wxTextFile6OnOpenERK8wxStringN12wxTextBuffer20wxTextBufferOpenModeE
_ZN10wxTextFile6OnReadERK8wxMBConv
_ZN10wxTextFile6OnReadERK8wxMBConv.cold
_ZN10wxTextFile7OnCloseEv
_ZN10wxTextFile7OnWriteE14wxTextFileTypeRK8wxMBConv
_ZN10wxTextFile7OnWriteE14wxTextFileTypeRK8wxMBConv.cold
_ZN10wxTextFileC1ERK8wxString
_ZN10wxTextFileC2ERK8wxString
_ZN10wxTextFileD0Ev
_ZN10wxTextFileD1Ev
_ZN10wxTextFileD2Ev
_ZN10wxTextFileD5Ev
_ZN10wxTlsValueIP20wxThreadSpecificInfoED1Ev
_ZN10wxTlsValueIP20wxThreadSpecificInfoED2Ev
_ZN10wxTlsValueIP20wxThreadSpecificInfoED5Ev
_ZN10wxToolbook10EnablePageEmb
_ZN10wxToolbook10EnablePageEP8wxWindowb
_ZN10wxToolbook10InsertPageEmP8wxWindowRK8wxStringbi
_ZN10wxToolbook10InsertPageEmP8wxWindowRK8wxStringbi.cold
_ZN10wxToolbook11SetPageTextEmRK8wxString
_ZN10wxToolbook12DoRemovePageEm
_ZN10wxToolbook12ms_classInfoE
_ZN10wxToolbook12SetPageImageEmi
_ZN10wxToolbook12SetPageImageEmi.cold
_ZN10wxToolbook12SetSelectionEm
_ZN10wxToolbook13sm_eventTableE
_ZN10wxToolbook14DeleteAllPagesEv
_ZN10wxToolbook14OnToolSelectedER14wxCommandEvent
_ZN10wxToolbook14wxCreateObjectEv
_ZN10wxToolbook14wxCreateObjectEv.cold
_ZN10wxToolbook15ChangeSelectionEm
_ZN10wxToolbook16MakeChangedEventER15wxBookCtrlEvent
_ZN10wxToolbook17sm_eventHashTableE
_ZN10wxToolbook18UpdateSelectedPageEm
_ZN10wxToolbook20sm_eventTableEntriesE
_ZN10wxToolbook4InitEv
_ZN10wxToolbook6CreateEP8wxWindowiRK7wxPointRK6wxSizelRK8wxString
_ZN10wxToolbook6CreateEP8wxWindowiRK7wxPointRK6wxSizelRK8wxString.cold
_ZN10wxToolbook6OnIdleER11wxIdleEvent
_ZN10wxToolbook6OnSizeER11wxSizeEvent
_ZN10wxToolbook7RealizeEv
_ZN10wxToolbookD0Ev
_ZN10wxToolbookD1Ev
_ZN10wxToolbookD2Ev
_ZN10wxToolbookD5Ev
_ZN10wxTreebook10AddSubPageEP8wxWindowRK8wxStringbi
_ZN10wxTreebook10DeletePageEm
_ZN10wxTreebook10ExpandNodeEmb
_ZN10wxTreebook10InsertPageEmP8wxWindowRK8wxStringbi
_ZN10wxTreebook10InsertPageEmP8wxWindowRK8wxStringbi.localalias
_ZN10wxTreebook11SetPageTextEmRK8wxString
_ZN10wxTreebook12DoAddSubPageEP8wxWindowRK8wxStringbi
_ZN10wxTreebook12DoInsertPageEmP8wxWindowRK8wxStringbi
_ZN10wxTreebook12DoRemovePageEm
_ZN10wxTreebook12ms_classInfoE
_ZN10wxTreebook12SetPageImageEmi
_ZN10wxTreebook12SetSelectionEm
_ZN10wxTreebook13InsertSubPageEmP8wxWindowRK8wxStringbi
_ZN10wxTreebook13sm_eventTableE
_ZN10wxTreebook14DeleteAllPagesEv
_ZN10wxTreebook14wxCreateObjectEv
_ZN10wxTreebook14wxCreateObjectEv.cold
_ZN10wxTreebook15ChangeSelectionEm
_ZN10wxTreebook15DoInsertSubPageEmP8wxWindowRK8wxStringbi
_ZN10wxTreebook15OnImagesChangedEv
_ZN10wxTreebook16MakeChangedEventER15wxBookCtrlEvent
_ZN10wxTreebook17DoInternalAddPageEmP8wxWindow12wxTreeItemId
_ZN10wxTreebook17DoUpdateSelectionEbi
_ZN10wxTreebook17sm_eventHashTableE
_ZN10wxTreebook17TryGetNonNullPageEm
_ZN10wxTreebook18UpdateSelectedPageEm
_ZN10wxTreebook20sm_eventTableEntriesE
_ZN10wxTreebook21OnTreeSelectionChangeER11wxTreeEvent
_ZN10wxTreebook25DoInternalRemovePageRangeEmm
_ZN10wxTreebook27OnTreeNodeExpandedCollapsedER11wxTreeEvent
_ZN10wxTreebook27OnTreeNodeExpandedCollapsedER11wxTreeEvent.cold
_ZN10wxTreebook6CreateEP8wxWindowiRK7wxPointRK6wxSizelRK8wxString
_ZN10wxTreebook6CreateEP8wxWindowiRK7wxPointRK6wxSizelRK8wxString.cold
_ZN10wxTreebook7AddPageEP8wxWindowRK8wxStringbi
_ZN10wxTreebookD0Ev
_ZN10wxTreebookD1Ev
_ZN10wxTreebookD2Ev
_ZN10wxTreebookD5Ev
_ZN10wxTreeCtrl12ms_classInfoE
_ZN10wxTreeCtrl14wxCreateObjectEv
_ZN10wxTreeCtrl14wxCreateObjectEv.cold
_ZN10wxTreeCtrlD0Ev
_ZN10wxTreeCtrlD1Ev
_ZN10wxTreeCtrlD2Ev
_ZN10wxTreeCtrlD5Ev
_ZN10wxUILocale10GetCurrentEv
_ZN10wxUILocale10GetCurrentEv.cold
_ZN10wxUILocale10ms_currentE
_ZN10wxUILocale10UseDefaultEv
_ZN10wxUILocale10UseDefaultEv.cold
_ZN10wxUILocale11AddLanguageERK14wxLanguageInfo
_ZN10wxUILocale11AddLanguageERK14wxLanguageInfo.cold
_ZN10wxUILocale13UseLocaleNameERK8wxString
_ZN10wxUILocale13UseLocaleNameERK8wxString.cold
_ZN10wxUILocale15GetLanguageInfoEi
_ZN10wxUILocale15GetLanguageNameEi
_ZN10wxUILocale15GetLanguageNameEi.cold
_ZN10wxUILocale15GetSystemLocaleEv
_ZN10wxUILocale15GetSystemLocaleEv.cold
_ZN10wxUILocale15InitLanguagesDBEv
_ZN10wxUILocale15InitLanguagesDBEv.cold
_ZN10wxUILocale16FindLanguageInfoERK13wxLocaleIdent
_ZN10wxUILocale16FindLanguageInfoERK13wxLocaleIdent.cold
_ZN10wxUILocale16FindLanguageInfoERK8wxString
_ZN10wxUILocale16FindLanguageInfoERK8wxString.cold
_ZN10wxUILocale17CreateLanguagesDBEv
_ZN10wxUILocale17GetSystemLanguageEv
_ZN10wxUILocale17GetSystemLanguageEv.cold
_ZN10wxUILocale17GetSystemLocaleIdEv
_ZN10wxUILocale17GetSystemLocaleIdEv.cold
_ZN10wxUILocale18DestroyLanguagesDBEv
_ZN10wxUILocale22GetScriptAliasFromNameERK8wxString
_ZN10wxUILocale22GetScriptNameFromAliasERK8wxString
_ZN10wxUILocale23GetPreferredUILanguagesEv
_ZN10wxUILocale24GetLanguageCanonicalNameEi
_ZN10wxUILocale24GetLanguageCanonicalNameEi.cold
_ZN10wxUILocaleaSERKS_
_ZN10wxUILocaleC1ERK13wxLocaleIdent
_ZN10wxUILocaleC1ERKS_
_ZN10wxUILocaleC2ERK13wxLocaleIdent
_ZN10wxUILocaleC2ERKS_
_ZN10wxUILocaleD1Ev
_ZN10wxUILocaleD2Ev
_ZN10wxVListBox10OnLeftDownER12wxMouseEvent
_ZN10wxVListBox10SetMarginsERK7wxPoint
_ZN10wxVListBox11DoSelectAllEb
_ZN10wxVListBox11SelectRangeEmm
_ZN10wxVListBox11SelectRangeEmm.cold
_ZN10wxVListBox12DoSetCurrentEi
_ZN10wxVListBox12ms_classInfoE
_ZN10wxVListBox12OnLeftDClickER12wxMouseEvent
_ZN10wxVListBox12OnLeftDClickER12wxMouseEvent.cold
_ZN10wxVListBox12SetItemCountEm
_ZN10wxVListBox12SetSelectionEi
_ZN10wxVListBox13sm_eventTableE
_ZN10wxVListBox15RefreshSelectedEv
_ZN10wxVListBox16OnSetOrKillFocusER12wxFocusEvent
_ZN10wxVListBox17DoHandleItemClickEii
_ZN10wxVListBox17SendSelectedEventEv
_ZN10wxVListBox17SendSelectedEventEv.cold
_ZN10wxVListBox17sm_eventHashTableE
_ZN10wxVListBox20sm_eventTableEntriesE
_ZN10wxVListBox22SetSelectionBackgroundERK8wxColour
_ZN10wxVListBox25GetClassDefaultAttributesE15wxWindowVariant
_ZN10wxVListBox4InitEv
_ZN10wxVListBox6CreateEP8wxWindowiRK7wxPointRK6wxSizelRK8wxString
_ZN10wxVListBox6CreateEP8wxWindowiRK7wxPointRK6wxSizelRK8wxString.cold
_ZN10wxVListBox6OnSizeER11wxSizeEvent
_ZN10wxVListBox6SelectEmb
_ZN10wxVListBox7OnPaintER12wxPaintEvent
_ZN10wxVListBox7OnPaintER12wxPaintEvent.cold
_ZN10wxVListBox9InitEventER14wxCommandEventi
_ZN10wxVListBox9InitEventER14wxCommandEventi.localalias
_ZN10wxVListBox9OnKeyDownER10wxKeyEvent
_ZN10wxVListBoxD0Ev
_ZN10wxVListBoxD1Ev
_ZN10wxVListBoxD2Ev
_ZN10wxWindowDC12ms_classInfoE
_ZN10wxWindowDCC1EP8wxWindow
_ZN10wxWindowDCC2EP8wxWindow
_ZN10wxWindowDCC2EP8wxWindow.cold
_ZN10wxWindowDCD0Ev
_ZN10wxWindowDCD1Ev
_ZN10wxWindowDCD2Ev
_ZN10wxWindowDCD5Ev
_ZN10wxZipEntry10WriteLocalER14wxOutputStreamR8wxMBConv18wxZipArchiveFormat
_ZN10wxZipEntry10WriteLocalER14wxOutputStreamR8wxMBConv18wxZipArchiveFormat.cold
_ZN10wxZipEntry11ReadCentralER13wxInputStreamR8wxMBConv
_ZN10wxZipEntry11ReadCentralER13wxInputStreamR8wxMBConv.cold
_ZN10wxZipEntry11SetDateTimeERK10wxDateTime
_ZN10wxZipEntry11SetNotifierER13wxZipNotifier
_ZN10wxZipEntry12ms_classInfoE
_ZN10wxZipEntry13LoadExtraInfoEPKctb
_ZN10wxZipEntry13LoadExtraInfoEPKctb.cold
_ZN10wxZipEntry13SetIsReadOnlyEb
_ZN10wxZipEntry13SetLocalExtraEPKcm
_ZN10wxZipEntry13UnsetNotifierEv
_ZN10wxZipEntry14ReadDescriptorER13wxInputStream
_ZN10wxZipEntry14wxCreateObjectEv
_ZN10wxZipEntry14wxCreateObjectEv.cold
_ZN10wxZipEntry15GetInternalNameERK8wxString12wxPathFormatPb
_ZN10wxZipEntry15GetInternalNameERK8wxString12wxPathFormatPb.cold
_ZN10wxZipEntry15SetSystemMadeByEi
_ZN10wxZipEntry15WriteDescriptorER14wxOutputStreamjll
_ZN10wxZipEntry15WriteDescriptorER14wxOutputStreamjll.cold
_ZN10wxZipEntry6NotifyEv
_ZN10wxZipEntry7SetModeEi
_ZN10wxZipEntry7SetNameERK8wxString12wxPathFormat
_ZN10wxZipEntry7SetSizeEl
_ZN10wxZipEntry8SetExtraEPKcm
_ZN10wxZipEntry8SetIsDirEb
_ZN10wxZipEntry8SetIsDirEb.localalias
_ZN10wxZipEntry9ReadLocalER13wxInputStreamR8wxMBConv
_ZN10wxZipEntry9ReadLocalER13wxInputStreamR8wxMBConv.cold
_ZN10wxZipEntry9SetOffsetEl
_ZN10wxZipEntryaSERKS_
_ZN10wxZipEntryC1ERK8wxStringRK10wxDateTimel
_ZN10wxZipEntryC1ERKS_
_ZN10wxZipEntryC2ERK8wxStringRK10wxDateTimel
_ZN10wxZipEntryC2ERK8wxStringRK10wxDateTimel.cold
_ZN10wxZipEntryC2ERKS_
_ZN10wxZipEntryC2ERKS_.cold
_ZN10wxZipEntryD0Ev
_ZN10wxZipEntryD0Ev.localalias
_ZN10wxZipEntryD1Ev
_ZN10wxZipEntryD2Ev
_ZN11AutoSurfaceD1Ev
_ZN11AutoSurfaceD2Ev
_ZN11AutoSurfaceD5Ev
_ZN11ElapsedTime8DurationEb
_ZN11ElapsedTimeC1Ev
_ZN11ElapsedTimeC2Ev
_ZN11GIFImagePtr5resetEP8GIFImage
_ZN11GIFImagePtrD1Ev
_ZN11GIFImagePtrD2Ev
_ZN11HeightCache11GetLineInfoEjRiS0_
_ZN11HeightCache12GetLineStartEjRi
_ZN11HeightCache13GetLineHeightEjRi
_ZN11HeightCache3PutEji
_ZN11HeightCache5ClearEv
_ZN11HeightCache6RemoveEj
_ZN11HeightCache9GetLineAtEiRj
_ZN11HeightCacheD1Ev
_ZN11HeightCacheD2Ev
_ZN11ListBoxImpl11SetListInfoEPiS0_S0_
_ZN11ListBoxImpl12GetSelectionEv
_ZN11ListBoxImpl13CaretFromEdgeEv
_ZN11ListBoxImpl13RegisterImageEiPKc
_ZN11ListBoxImpl14GetDesiredRectEv
_ZN11ListBoxImpl14SetVisibleRowsEi
_ZN11ListBoxImpl17RegisterRGBAImageEiiiPKh
_ZN11ListBoxImpl19RegisterImageHelperEiRK8wxBitmap
_ZN11ListBoxImpl19SetAverageCharWidthEi
_ZN11ListBoxImpl20SetDoubleClickActionEPFvPvES0_
_ZN11ListBoxImpl21ClearRegisteredImagesEv
_ZN11ListBoxImpl4FindEPKc
_ZN11ListBoxImpl5ClearEv
_ZN11ListBoxImpl6AppendEPci
_ZN11ListBoxImpl6CreateER6Windowi5Pointibi
_ZN11ListBoxImpl6CreateER6Windowi5Pointibi.cold
_ZN11ListBoxImpl6LengthEv
_ZN11ListBoxImpl6SelectEi
_ZN11ListBoxImpl7SetFontER4Font
_ZN11ListBoxImpl7SetListEPKccc
_ZN11ListBoxImpl8GetValueEiPci
_ZN11ListBoxImplC1Ev
_ZN11ListBoxImplC2Ev
_ZN11ListBoxImplC2Ev.cold
_ZN11ListBoxImplD0Ev
_ZN11ListBoxImplD1Ev
_ZN11ListBoxImplD2Ev
_ZN11ScintillaWX10AddToPopUpEPKcib
_ZN11ScintillaWX10AddToPopUpEPKcib.cold
_ZN11ScintillaWX10DefWndProcEjml
_ZN11ScintillaWX10DoDragOverEii12wxDragResult
_ZN11ScintillaWX10DoDragOverEii12wxDragResult.cold
_ZN11ScintillaWX10DoDropTextEllRK8wxString
_ZN11ScintillaWX10DoDropTextEllRK8wxString.cold
_ZN11ScintillaWX10InitialiseEv
_ZN11ScintillaWX10InitialiseEv.cold
_ZN11ScintillaWX10ScrollTextEi
_ZN11ScintillaWX11CancelModesEv
_ZN11ScintillaWX11CancelModesEv.localalias
_ZN11ScintillaWX11DoDragEnterEii12wxDragResult
_ZN11ScintillaWX11DoDragLeaveEv
_ZN11ScintillaWX11DoGainFocusEv
_ZN11ScintillaWX11DoLoseFocusEv
_ZN11ScintillaWX11DoOnListBoxEv
_ZN11ScintillaWX11FullPaintDCEP4wxDC
_ZN11ScintillaWX11FullPaintDCEP4wxDC.cold
_ZN11ScintillaWX12ClipChildrenER4wxDC10PRectangle
_ZN11ScintillaWX12DoMouseWheelE16wxMouseWheelAxisiiiibb
_ZN11ScintillaWX12NotifyChangeEv
_ZN11ScintillaWX12NotifyChangeEv.localalias
_ZN11ScintillaWX12NotifyParentE14SCNotification
_ZN11ScintillaWX13DoContextMenuE5Point
_ZN11ScintillaWX14ClaimSelectionEv
_ZN11ScintillaWX14ClaimSelectionEv.cold
_ZN11ScintillaWX14DirectFunctionEPS_jml
_ZN11ScintillaWX14DoLeftButtonUpE5Pointjb
_ZN11ScintillaWX14DoScrollToLineEi
_ZN11ScintillaWX15CopyToClipboardERK13SelectionText
_ZN11ScintillaWX15CopyToClipboardERK13SelectionText.cold
_ZN11ScintillaWX15DoRegisterImageEiRK8wxBitmap
_ZN11ScintillaWX15FineTickerStartEN6Editor10TickReasonEii
_ZN11ScintillaWX15SetMouseCaptureEb
_ZN11ScintillaWX16DoLeftButtonDownE5Pointjbbb
_ZN11ScintillaWX16DoLeftButtonMoveE5Point
_ZN11ScintillaWX16DoMiddleButtonUpE5Point
_ZN11ScintillaWX16DoMiddleButtonUpE5Point.cold
_ZN11ScintillaWX16DoScrollToColumnEi
_ZN11ScintillaWX16FineTickerCancelEN6Editor10TickReasonE
_ZN11ScintillaWX16HaveMouseCaptureEv
_ZN11ScintillaWX16HaveMouseCaptureEv.localalias
_ZN11ScintillaWX16ModifyScrollBarsEii
_ZN11ScintillaWX17CreateSystemCaretEv
_ZN11ScintillaWX17DoRightButtonDownE5Pointjbbb
_ZN11ScintillaWX17FineTickerRunningEN6Editor10TickReasonE
_ZN11ScintillaWX17UpdateSystemCaretEv
_ZN11ScintillaWX18DestroySystemCaretEv
_ZN11ScintillaWX18DoMouseCaptureLostEv
_ZN11ScintillaWX18GetUseAntiAliasingEv
_ZN11ScintillaWX18SetUseAntiAliasingEb
_ZN11ScintillaWX19CreateCallTipWindowE10PRectangle
_ZN11ScintillaWX19CreateCallTipWindowE10PRectangle.cold
_ZN11ScintillaWX19FineTickerAvailableEv
_ZN11ScintillaWX19HasCaretSizeChangedEv
_ZN11ScintillaWX20DoMarkerDefineBitmapEiRK8wxBitmap
_ZN11ScintillaWX20DoMarkerDefineBitmapEiRK8wxBitmap.cold
_ZN11ScintillaWX20SetVerticalScrollPosEv
_ZN11ScintillaWX21DoInvalidateStyleDataEv
_ZN11ScintillaWX22SetHorizontalScrollPosEv
_ZN11ScintillaWX37TimersHash_wxImplementation_HashTable10DeleteNodeEP21_wxHashTable_NodeBase
_ZN11ScintillaWX37TimersHash_wxImplementation_HashTable16GetBucketForNodeEPS0_PNS0_4NodeE
_ZN11ScintillaWX4CopyEv
_ZN11ScintillaWX4CopyEv.cold
_ZN11ScintillaWX5PasteEv
_ZN11ScintillaWX5PasteEv.cold
_ZN11ScintillaWX6DoSizeEii
_ZN11ScintillaWX7DoPaintEP4wxDC6wxRect
_ZN11ScintillaWX7DoPaintEP4wxDC6wxRect.cold
_ZN11ScintillaWX7SetIdleEb
_ZN11ScintillaWX7SetIdleEb.cold
_ZN11ScintillaWX7WndProcEjml
_ZN11ScintillaWX7WndProcEjml.localalias
_ZN11ScintillaWX8CanPasteEv
_ZN11ScintillaWX8DoOnIdleER11wxIdleEvent
_ZN11ScintillaWX8FinaliseEv
_ZN11ScintillaWX9DoAddCharEi
_ZN11ScintillaWX9DoAddCharEi.cold
_ZN11ScintillaWX9DoCommandEi
_ZN11ScintillaWX9DoHScrollEii
_ZN11ScintillaWX9DoKeyDownERK10wxKeyEventPb
_ZN11ScintillaWX9DoVScrollEii
_ZN11ScintillaWX9FullPaintEv
_ZN11ScintillaWX9StartDragEv
_ZN11ScintillaWX9StartDragEv.cold
_ZN11ScintillaWXC1EP16wxStyledTextCtrl
_ZN11ScintillaWXC2EP16wxStyledTextCtrl
_ZN11ScintillaWXC2EP16wxStyledTextCtrl.cold
_ZN11ScintillaWXD0Ev
_ZN11ScintillaWXD1Ev
_ZN11ScintillaWXD2Ev
_ZN11SurfaceDataD0Ev
_ZN11SurfaceDataD1Ev
_ZN11SurfaceDataD2Ev
_ZN11SurfaceDataD5Ev
_ZN11SurfaceImpl10InitPixMapEiiP7SurfacePv
_ZN11SurfaceImpl10InitPixMapEiiP7SurfacePv.cold
_ZN11SurfaceImpl10LogPixelsYEv
_ZN11SurfaceImpl11BrushColourE13ColourDesired
_ZN11SurfaceImpl11BrushColourE13ColourDesired.cold
_ZN11SurfaceImpl11InitialisedEv
_ZN11SurfaceImpl11SetDBCSModeEi
_ZN11SurfaceImpl13DrawRGBAImageE10PRectangleiiPKh
_ZN11SurfaceImpl13DrawRGBAImageE10PRectangleiiPKh.cold
_ZN11SurfaceImpl13FillRectangleE10PRectangle13ColourDesired
_ZN11SurfaceImpl13FillRectangleE10PRectangleR7Surface
_ZN11SurfaceImpl13FillRectangleE10PRectangleR7Surface.cold
_ZN11SurfaceImpl13MeasureWidthsER4FontPKciPf
_ZN11SurfaceImpl13MeasureWidthsER4FontPKciPf.cold
_ZN11SurfaceImpl13RectangleDrawE10PRectangle13ColourDesiredS1_
_ZN11SurfaceImpl14AlphaRectangleE10PRectanglei13ColourDesirediS1_ii
_ZN11SurfaceImpl14AlphaRectangleE10PRectanglei13ColourDesirediS1_ii.cold
_ZN11SurfaceImpl14DrawTextNoClipE10PRectangleR4FontfPKci13ColourDesiredS5_
_ZN11SurfaceImpl14DrawTextNoClipE10PRectangleR4FontfPKci13ColourDesiredS5_.cold
_ZN11SurfaceImpl14SetUnicodeModeEb
_ZN11SurfaceImpl15DrawTextClippedE10PRectangleR4FontfPKci13ColourDesiredS5_
_ZN11SurfaceImpl15DrawTextClippedE10PRectangleR4FontfPKci13ColourDesiredS5_.cold
_ZN11SurfaceImpl15ExternalLeadingER4Font
_ZN11SurfaceImpl15ExternalLeadingER4Font.cold
_ZN11SurfaceImpl15InternalLeadingER4Font
_ZN11SurfaceImpl16AverageCharWidthER4Font
_ZN11SurfaceImpl16DeviceHeightFontEi
_ZN11SurfaceImpl16FlushCachedStateEv
_ZN11SurfaceImpl16RoundedRectangleE10PRectangle13ColourDesiredS1_
_ZN11SurfaceImpl19DrawTextTransparentE10PRectangleR4FontfPKci13ColourDesired
_ZN11SurfaceImpl19DrawTextTransparentE10PRectangleR4FontfPKci13ColourDesired.cold
_ZN11SurfaceImpl4CopyE10PRectangle5PointR7Surface
_ZN11SurfaceImpl4InitEPv
_ZN11SurfaceImpl4InitEPvS0_
_ZN11SurfaceImpl6AscentER4Font
_ZN11SurfaceImpl6AscentER4Font.cold
_ZN11SurfaceImpl6HeightER4Font
_ZN11SurfaceImpl6LineToEii
_ZN11SurfaceImpl6MoveToEii
_ZN11SurfaceImpl7DescentER4Font
_ZN11SurfaceImpl7DescentER4Font.cold
_ZN11SurfaceImpl7EllipseE10PRectangle13ColourDesiredS1_
_ZN11SurfaceImpl7PolygonEP5Pointi13ColourDesiredS2_
_ZN11SurfaceImpl7PolygonEP5Pointi13ColourDesiredS2_.cold
_ZN11SurfaceImpl7ReleaseEv
_ZN11SurfaceImpl7SetClipE10PRectangle
_ZN11SurfaceImpl7SetFontER4Font
_ZN11SurfaceImpl9PenColourE13ColourDesired
_ZN11SurfaceImpl9PenColourE13ColourDesired.cold
_ZN11SurfaceImpl9WidthCharER4Fontc
_ZN11SurfaceImpl9WidthCharER4Fontc.cold
_ZN11SurfaceImpl9WidthTextER4FontPKci
_ZN11SurfaceImpl9WidthTextER4FontPKci.cold
_ZN11SurfaceImplC1Ev
_ZN11SurfaceImplC2Ev
_ZN11SurfaceImplD0Ev
_ZN11SurfaceImplD1Ev
_ZN11SurfaceImplD2Ev
_ZN11wxAccelList10CreateNodeEP10wxNodeBaseS1_PvRK9wxListKey
_ZN11wxAccelListD0Ev
_ZN11wxAccelListD1Ev
_ZN11wxAccelListD2Ev
_ZN11wxAccelListD5Ev
_ZN11wxAnimation10AddHandlerEP18wxAnimationDecoder
_ZN11wxAnimation10AddHandlerEP18wxAnimationDecoder.cold
_ZN11wxAnimation11FindHandlerE15wxAnimationType
_ZN11wxAnimation11sm_handlersE
_ZN11wxAnimation12ms_classInfoE
_ZN11wxAnimation13InsertHandlerEP18wxAnimationDecoder
_ZN11wxAnimation13InsertHandlerEP18wxAnimationDecoder.cold
_ZN11wxAnimation14wxCreateObjectEv
_ZN11wxAnimation14wxCreateObjectEv.cold
_ZN11wxAnimation15CleanUpHandlersEv
_ZN11wxAnimation20InitStandardHandlersEv
_ZN11wxAnimation20InitStandardHandlersEv.cold
_ZN11wxAnimation4LoadER13wxInputStream15wxAnimationType
_ZN11wxAnimation8LoadFileERK8wxString15wxAnimationType
_ZN11wxAnimationC1EP15wxAnimationImpl
_ZN11wxAnimationC1ERK8wxString15wxAnimationType
_ZN11wxAnimationC1Ev
_ZN11wxAnimationC2EP15wxAnimationImpl
_ZN11wxAnimationC2ERK8wxString15wxAnimationType
_ZN11wxAnimationC2ERK8wxString15wxAnimationType.cold
_ZN11wxAnimationC2Ev
_ZN11wxAnimationC2Ev.cold
_ZN11wxAnimationD0Ev
_ZN11wxAnimationD1Ev
_ZN11wxAnimationD2Ev
_ZN11wxAnimationD5Ev
_ZN11wxAnyButton10GTKOnFocusER12wxFocusEvent
_ZN11wxAnyButton10GTKPressedEv
_ZN11wxAnyButton11DoSetBitmapERK14wxBitmapBundleN15wxAnyButtonBase5StateE
_ZN11wxAnyButton11DoSetBitmapERK14wxBitmapBundleN15wxAnyButtonBase5StateE.cold
_ZN11wxAnyButton11GTKReleasedEv
_ZN11wxAnyButton14GTKMouseEntersEv
_ZN11wxAnyButton14GTKMouseLeavesEv
_ZN11wxAnyButton15GTKDoShowBitmapERK14wxBitmapBundle
_ZN11wxAnyButton15GTKUpdateBitmapEv
_ZN11wxAnyButton19DoSetBitmapPositionE11wxDirection
_ZN11wxAnyButton25GetClassDefaultAttributesE15wxWindowVariant
_ZN11wxAnyButton8DoEnableEb
_ZN11wxAnyButtonD0Ev
_ZN11wxAnyButtonD1Ev
_ZN11wxAnyButtonD2Ev
_ZN11wxAnyButtonD5Ev
_ZN11wxAppTraits12WaitForChildER13wxExecuteData
_ZN11wxAppTraits12WaitForChildER13wxExecuteData.cold
_ZN11wxAppTraits12WaitForChildER13wxExecuteData.localalias
_ZN11wxAppTraits14GetFDIOManagerEv
_ZN11wxAppTraits21RunLoopUntilChildExitER13wxExecuteDataR15wxEventLoopBase
_ZN11wxAppTraits21RunLoopUntilChildExitER13wxExecuteDataR15wxEventLoopBase.cold
_ZN11wxAppTraits26GetEventLoopSourcesManagerEv
_ZN11wxAuiTabArt23UpdateColoursFromSystemEv
_ZN11wxBaseArrayI14wxDataViewItem26wxSortedArray_SortFunctionIS0_EE3AddES0_m
_ZN11wxBaseArrayIi26wxSortedArray_SortFunctionIiEE3AddEim
_ZN11wxBaseArrayIi26wxSortedArray_SortFunctionIiEE3AddEiPFiiiE.isra.0
_ZN11wxBaseArrayIP12wxEvtHandler26wxSortedArray_SortFunctionIS1_EE6RemoveES1_
_ZN11wxBaseArrayIP17wxFileConfigEntry26wxSortedArray_SortFunctionIS1_EE6RemoveES1_
_ZN11wxBaseArrayIP17wxFileConfigGroup26wxSortedArray_SortFunctionIS1_EE3AddES1_PFiS1_S1_E.isra.0
_ZN11wxBaseArrayIP17wxFileConfigGroup26wxSortedArray_SortFunctionIS1_EE6RemoveES1_
_ZN11wxBaseArrayIP22wxRichTextFloatRectMap26wxSortedArray_SortFunctionIS1_EE3AddES1_PFiS1_S1_E.isra.0
_ZN11wxBaseArrayIP8wxThread26wxSortedArray_SortFunctionIS1_EE6RemoveES1_
_ZN11wxBrushList17FindOrCreateBrushERK8wxColour12wxBrushStyle
_ZN11wxBrushList17FindOrCreateBrushERK8wxColour12wxBrushStyle.cold
_ZN11wxCaretBase10OnSetFocusEv
_ZN11wxCaretBase11OnKillFocusEv
_ZN11wxCaretBase12GetBlinkTimeEv
_ZN11wxCaretBase12SetBlinkTimeEi
_ZN11wxCaretBase4HideEv
_ZN11wxCaretBase4ShowEb
_ZN11wxCaretBase6DoSizeEv
_ZN11wxCaretBase8DoCreateEP12wxWindowBaseii
_ZN11wxClassInfo10UnregisterEv
_ZN11wxClassInfo10UnregisterEv.cold
_ZN11wxClassInfo13end_classinfoEv
_ZN11wxClassInfo13sm_classTableE
_ZN11wxClassInfo14const_iteratorppEi
_ZN11wxClassInfo14const_iteratorppEv
_ZN11wxClassInfo15begin_classinfoEv
_ZN11wxClassInfo8RegisterEv
_ZN11wxClassInfo8RegisterEv.cold
_ZN11wxClassInfo8RegisterEv.localalias
_ZN11wxClassInfo8sm_firstE
_ZN11wxClassInfo9FindClassERK8wxString
_ZN11wxClassInfoD1Ev
_ZN11wxClassInfoD2Ev
_ZN11wxClipboard11IsSupportedERK12wxDataFormat
_ZN11wxClipboard12GTKClearDataENS_4KindE
_ZN11wxClipboard12ms_classInfoE
_ZN11wxClipboard13DoIsSupportedERK12wxDataFormat
_ZN11wxClipboard13DoIsSupportedERK12wxDataFormat.cold
_ZN11wxClipboard14wxCreateObjectEv
_ZN11wxClipboard14wxCreateObjectEv.cold
_ZN11wxClipboard16GTKGetDataObjectEP8_GdkAtom
_ZN11wxClipboard16GTKGetDataObjectEP8_GdkAtom.cold
_ZN11wxClipboard16IsSupportedAsyncEP12wxEvtHandler
_ZN11wxClipboard17SetSelectionOwnerEb
_ZN11wxClipboard17SetSelectionOwnerEb.cold
_ZN11wxClipboard18AddSupportedTargetEP8_GdkAtom
_ZN11wxClipboard19GTKOnTargetReceivedERK12wxDataFormat
_ZN11wxClipboard22GTKOnSelectionReceivedERK17_GtkSelectionData
_ZN11wxClipboard22GTKOnSelectionReceivedERK17_GtkSelectionData.cold
_ZN11wxClipboard4OpenEv
_ZN11wxClipboard5ClearEv
_ZN11wxClipboard5ClearEv.cold
_ZN11wxClipboard5CloseEv
_ZN11wxClipboard5FlushEv
_ZN11wxClipboard7AddDataEP12wxDataObject
_ZN11wxClipboard7AddDataEP12wxDataObject.cold
_ZN11wxClipboard7GetDataER12wxDataObject
_ZN11wxClipboard7GetDataER12wxDataObject.cold
_ZN11wxClipboard7SetDataEP12wxDataObject
_ZN11wxClipboardC1Ev
_ZN11wxClipboardC2Ev
_ZN11wxClipboardC2Ev.cold
_ZN11wxClipboardD0Ev
_ZN11wxClipboardD1Ev
_ZN11wxClipboardD2Ev
_ZN11wxComboCtrl12ms_classInfoE
_ZN11wxComboCtrl14wxCreateObjectEv
_ZN11wxComboCtrl14wxCreateObjectEv.cold
_ZN11wxComboCtrlC1EP8wxWindowiRK8wxStringRK7wxPointRK6wxSizelRK11wxValidatorS4_
_ZN11wxComboCtrlC2EP8wxWindowiRK8wxStringRK7wxPointRK6wxSizelRK11wxValidatorS4_
_ZN11wxComboCtrlC5EP8wxWindowiRK8wxStringRK7wxPointRK6wxSizelRK11wxValidatorS4_
_ZN11wxComboCtrlD0Ev
_ZN11wxComboCtrlD1Ev
_ZN11wxComboCtrlD2Ev
_ZN11wxComboCtrlD5Ev
_ZN11wxCondition11WaitTimeoutEm
_ZN11wxCondition4WaitEv
_ZN11wxCondition6SignalEv
_ZN11wxCondition9BroadcastEv
_ZN11wxConditionC1ER7wxMutex
_ZN11wxConditionC2ER7wxMutex
_ZN11wxConditionC2ER7wxMutex.cold
_ZN11wxConditionD1Ev
_ZN11wxConditionD2Ev
_ZN11wxDateEvent12ms_classInfoE
_ZN11wxDateEvent14wxCreateObjectEv
_ZN11wxDateEvent14wxCreateObjectEv.cold
_ZN11wxDateEventD0Ev
_ZN11wxDateEventD1Ev
_ZN11wxDateEventD2Ev
_ZN11wxDateEventD5Ev
_ZN11wxDCClipper4InitERK6wxRect
_ZN11wxDCClipperD1Ev
_ZN11wxDCClipperD2Ev
_ZN11wxDCClipperD5Ev
_ZN11wxDCFactory3GetEv
_ZN11wxDCFactory3SetEPS_
_ZN11wxDCFactory9m_factoryE
_ZN11wxDCOverlay4InitEP4wxDCiiii
_ZN11wxDCOverlay5ClearEv
_ZN11wxDCOverlayC1ER9wxOverlayP4wxDC
_ZN11wxDCOverlayC1ER9wxOverlayP4wxDCiiii
_ZN11wxDCOverlayC2ER9wxOverlayP4wxDC
_ZN11wxDCOverlayC2ER9wxOverlayP4wxDCiiii
_ZN11wxDCOverlayD0Ev
_ZN11wxDCOverlayD1Ev
_ZN11wxDCOverlayD2Ev
_ZN11wxDirButton12ms_classInfoE
_ZN11wxDirButton13GTKUpdatePathEPKc
_ZN11wxDirButton13GTKUpdatePathEPKc.cold
_ZN11wxDirButton14wxCreateObjectEv
_ZN11wxDirButton14wxCreateObjectEv.cold
_ZN11wxDirButton15GetDialogParentEv
_ZN11wxDirButton18DoApplyWidgetStyleEP11_GtkRcStyle
_ZN11wxDirButton19SetInitialDirectoryERK8wxString
_ZN11wxDirButton6CreateEP8wxWindowiRK8wxStringS4_S4_S4_RK7wxPointRK6wxSizelRK11wxValidatorS4_
_ZN11wxDirButton7SetPathERK8wxString
_ZN11wxDirButton7SetPathERK8wxString.cold
_ZN11wxDirButtonD0Ev
_ZN11wxDirButtonD1Ev
_ZN11wxDirButtonD2Ev
_ZN11wxDirDialog11GTKOnAcceptEv
_ZN11wxDirDialog11GTKOnAcceptEv.cold
_ZN11wxDirDialog11GTKOnCancelEv
_ZN11wxDirDialog12ms_classInfoE
_ZN11wxDirDialog14wxCreateObjectEv
_ZN11wxDirDialog14wxCreateObjectEv.cold
_ZN11wxDirDialog6CreateEP8wxWindowRK8wxStringS4_lRK7wxPointRK6wxSizeS4_
_ZN11wxDirDialog6CreateEP8wxWindowRK8wxStringS4_lRK7wxPointRK6wxSizeS4_.cold
_ZN11wxDirDialog7SetPathERK8wxString
_ZN11wxDirDialog7SetPathERK8wxString.cold
_ZN11wxDirDialog9DoSetSizeEiiiii
_ZN11wxDirDialogC1EP8wxWindowRK8wxStringS4_lRK7wxPointRK6wxSizeS4_
_ZN11wxDirDialogC2EP8wxWindowRK8wxStringS4_lRK7wxPointRK6wxSizeS4_
_ZN11wxDirDialogC2EP8wxWindowRK8wxStringS4_lRK7wxPointRK6wxSizeS4_.cold
_ZN11wxDirDialogD0Ev
_ZN11wxDirDialogD1Ev
_ZN11wxDirDialogD2Ev
_ZN11wxDirDialogD5Ev
_ZN11wxEventLoopD0Ev
_ZN11wxEventLoopD1Ev
_ZN11wxEventLoopD2Ev
_ZN11wxEventLoopD5Ev
_ZN11wxFileProto12ms_classInfoE
_ZN11wxFileProto14GetInputStreamERK8wxString
_ZN11wxFileProto14GetInputStreamERK8wxString.cold
_ZN11wxFileProto14wxCreateObjectEv
_ZN11wxFileProto14wxCreateObjectEv.cold
_ZN11wxFileProto19g_proto_wxFileProtoE
_ZN11wxFileProto5AbortEv
_ZN11wxFileProtoC1Ev
_ZN11wxFileProtoC2Ev
_ZN11wxFileProtoD0Ev
_ZN11wxFileProtoD1Ev
_ZN11wxFileProtoD2Ev
_ZN11wxFrameBase10DoGiveHelpERK8wxStringb
_ZN11wxFrameBase10DoGiveHelpERK8wxStringb.cold
_ZN11wxFrameBase10OnMenuOpenER11wxMenuEvent
_ZN11wxFrameBase10SetMenuBarEP9wxMenuBar
_ZN11wxFrameBase10SetToolBarEP9wxToolBar
_ZN11wxFrameBase11OnMenuCloseER11wxMenuEvent
_ZN11wxFrameBase11OnMenuCloseER11wxMenuEvent.cold
_ZN11wxFrameBase12SetStatusBarEP11wxStatusBar
_ZN11wxFrameBase12ShowMenuHelpEi
_ZN11wxFrameBase12ShowMenuHelpEi.cold
_ZN11wxFrameBase13AttachMenuBarEP9wxMenuBar
_ZN11wxFrameBase13CreateToolBarEliRK8wxString
_ZN11wxFrameBase13DeleteAllBarsEv
_ZN11wxFrameBase13DetachMenuBarEv
_ZN11wxFrameBase13DoMenuUpdatesEP6wxMenu
_ZN11wxFrameBase13DoMenuUpdatesEP6wxMenu.localalias
_ZN11wxFrameBase13PopStatusTextEi
_ZN11wxFrameBase13SetStatusTextERK8wxStringi
_ZN11wxFrameBase13sm_eventTableE
_ZN11wxFrameBase14OnInternalIdleEv
_ZN11wxFrameBase14ProcessCommandEi
_ZN11wxFrameBase14ProcessCommandEP10wxMenuItem
_ZN11wxFrameBase14PushStatusTextERK8wxStringi
_ZN11wxFrameBase14UpdateWindowUIEl
_ZN11wxFrameBase15CreateStatusBarEiliRK8wxString
_ZN11wxFrameBase15OnCreateToolBarEliRK8wxString
_ZN11wxFrameBase15OnCreateToolBarEliRK8wxString.cold
_ZN11wxFrameBase15OnMenuHighlightER11wxMenuEvent
_ZN11wxFrameBase15PositionMenuBarEv
_ZN11wxFrameBase15PositionToolBarEv
_ZN11wxFrameBase15SetStatusWidthsEiPKi
_ZN11wxFrameBase17OnCreateStatusBarEiliRK8wxString
_ZN11wxFrameBase17OnCreateStatusBarEiliRK8wxString.cold
_ZN11wxFrameBase17PositionStatusBarEv
_ZN11wxFrameBase17sm_eventHashTableE
_ZN11wxFrameBase20sm_eventTableEntriesE
_ZN11wxFrameBase24ShouldUpdateMenuFromIdleEv
_ZN11wxFrameBase3NewEP8wxWindowiRK8wxStringRK7wxPointRK6wxSizelS4_
_ZN11wxFrameBase3NewEP8wxWindowiRK8wxStringRK7wxPointRK6wxSizelS4_.cold
_ZN11wxFrameBaseC1Ev
_ZN11wxFrameBaseC2Ev
_ZN11wxFrameBaseC2Ev.cold
_ZN11wxFrameBaseD0Ev
_ZN11wxFrameBaseD1Ev
_ZN11wxFrameBaseD2Ev
_ZN11wxFSFilePtr5resetEP8wxFSFile
_ZN11wxFSFilePtrD1Ev
_ZN11wxFSFilePtrD2Ev
_ZN11wxGaugeBase29InitProgressIndicatorIfNeededEv
_ZN11wxGaugeBase5PulseEv
_ZN11wxGaugeBase6CreateEP8wxWindowiiRK7wxPointRK6wxSizelRK11wxValidatorRK8wxString
_ZN11wxGaugeBase8SetRangeEi
_ZN11wxGaugeBase8SetValueEi
_ZN11wxGaugeBaseD0Ev
_ZN11wxGaugeBaseD1Ev
_ZN11wxGaugeBaseD2Ev
_ZN11wxGDIObject12ms_classInfoE
_ZN11wxGridEvent12ms_classInfoE
_ZN11wxGridEvent14wxCreateObjectEv
_ZN11wxGridEvent14wxCreateObjectEv.cold
_ZN11wxGridEventC1EiiP8wxObjectiiiibbbbb
_ZN11wxGridEventC2EiiP8wxObjectiiiibbbbb
_ZN11wxGridEventD0Ev
_ZN11wxGridEventD1Ev
_ZN11wxGridEventD2Ev
_ZN11wxGridEventD5Ev
_ZN11wxGridSizer12ms_classInfoE
_ZN11wxGridSizer13SetItemBoundsEP11wxSizerItemiiii
_ZN11wxGridSizer18RepositionChildrenERK6wxSize
_ZN11wxGridSizer7CalcMinEv
_ZN11wxGridSizer8DoInsertEmP11wxSizerItem
_ZN11wxGridSizer8DoInsertEmP11wxSizerItem.cold
_ZN11wxGridSizerC1Eiii
_ZN11wxGridSizerC1Eiiii
_ZN11wxGridSizerC1EiiRK6wxSize
_ZN11wxGridSizerC1EiRK6wxSize
_ZN11wxGridSizerC2Eiii
_ZN11wxGridSizerC2Eiii.cold
_ZN11wxGridSizerC2Eiiii
_ZN11wxGridSizerC2Eiiii.cold
_ZN11wxGridSizerC2EiiRK6wxSize
_ZN11wxGridSizerC2EiiRK6wxSize.cold
_ZN11wxGridSizerC2EiRK6wxSize
_ZN11wxGridSizerC2EiRK6wxSize.cold
_ZN11wxGridSizerD0Ev
_ZN11wxGridSizerD1Ev
_ZN11wxGridSizerD2Ev
_ZN11wxGridSizerD5Ev
_ZN11wxHashTable11GetNextNodeEm
_ZN11wxHashTable16DoDeleteContentsEP20wxHashTableBase_Node
_ZN11wxHashTable16DoDeleteContentsEP20wxHashTableBase_Node.localalias
_ZN11wxHashTable4NextEv
_ZN11wxHashTable6DoCopyERKS_
_ZN11wxHashTableaSERKS_
_ZN11wxHashTableC1ERKS_
_ZN11wxHashTableC2ERKS_
_ZN11wxHashTableC2ERKS_.cold
_ZN11wxHashTableD0Ev
_ZN11wxHashTableD1Ev
_ZN11wxHashTableD2Ev
_ZN11wxHashTableD5Ev
_ZN11wxHelpEvent11GuessOriginENS_6OriginE
_ZN11wxHelpEvent12ms_classInfoE
_ZN11wxHelpEvent14wxCreateObjectEv
_ZN11wxHelpEvent14wxCreateObjectEv.cold
_ZN11wxHelpEventD0Ev
_ZN11wxHelpEventD1Ev
_ZN11wxHelpEventD2Ev
_ZN11wxHelpEventD5Ev
_ZN11wxIdleEvent11sm_idleModeE
_ZN11wxIdleEvent12ms_classInfoE
_ZN11wxIdleEvent14wxCreateObjectEv
_ZN11wxIdleEvent14wxCreateObjectEv.cold
_ZN11wxIdleEventD0Ev
_ZN11wxIdleEventD1Ev
_ZN11wxIdleEventD2Ev
_ZN11wxIdleEventD5Ev
_ZN11wxIdManager11UnreserveIdEii
_ZN11wxIdManager9ReserveIdEi
_ZN11wxImageList12ms_classInfoE
_ZN11wxImageList14wxCreateObjectEv
_ZN11wxImageList14wxCreateObjectEv.cold
_ZN11wxImageListD0Ev
_ZN11wxImageListD1Ev
_ZN11wxImageListD2Ev
_ZN11wxImageListD5Ev
_ZN11wxIPaddress10AnyAddressEv
_ZN11wxIPaddress12ms_classInfoE
_ZN11wxIPaddress7GetImplEv
_ZN11wxIPaddress7ServiceERK8wxString
_ZN11wxIPaddress7ServiceEt
_ZN11wxIPaddress8HostnameERK8wxString
_ZN11wxIPaddress9LocalHostEv
_ZN11wxIPaddress9LocalHostEv.cold
_ZN11wxIPaddressD0Ev
_ZN11wxIPaddressD1Ev
_ZN11wxIPaddressD2Ev
_ZN11wxIPaddressD5Ev
_ZN11wxListEvent12ms_classInfoE
_ZN11wxListEvent14wxCreateObjectEv
_ZN11wxListEvent14wxCreateObjectEv.cold
_ZN11wxListEventD0Ev
_ZN11wxListEventD1Ev
_ZN11wxListEventD2Ev
_ZN11wxListEventD5Ev
_ZN11wxLogBuffer16DoLogTextAtLevelEmRK8wxString
_ZN11wxLogBuffer5FlushEv
_ZN11wxLogBuffer5FlushEv.cold
_ZN11wxLogBufferD0Ev
_ZN11wxLogBufferD1Ev
_ZN11wxLogBufferD2Ev
_ZN11wxLogBufferD5Ev
_ZN11wxLogDialog10ms_detailsE
_ZN11wxLogDialog12ms_maxLengthE
_ZN11wxLogDialog13sm_eventTableE
_ZN11wxLogDialog17sm_eventHashTableE
_ZN11wxLogDialog19OnListItemActivatedER11wxListEvent
_ZN11wxLogDialog19OnListItemActivatedER11wxListEvent.cold
_ZN11wxLogDialog20sm_eventTableEntriesE
_ZN11wxLogDialog21CreateDetailsControlsEP8wxWindow
_ZN11wxLogDialog21CreateDetailsControlsEP8wxWindow.cold
_ZN11wxLogDialog4OnOkER14wxCommandEvent
_ZN11wxLogDialog6OnCopyER14wxCommandEvent
_ZN11wxLogDialog6OnCopyER14wxCommandEvent.cold
_ZN11wxLogDialog6OnSaveER14wxCommandEvent
_ZN11wxLogDialog6OnSaveER14wxCommandEvent.cold
_ZN11wxLogDialogC1EP8wxWindowRK13wxArrayStringRK10wxArrayIntRK11wxArrayLongRK8wxStringl
_ZN11wxLogDialogC2EP8wxWindowRK13wxArrayStringRK10wxArrayIntRK11wxArrayLongRK8wxStringl
_ZN11wxLogDialogC2EP8wxWindowRK13wxArrayStringRK10wxArrayIntRK11wxArrayLongRK8wxStringl.cold
_ZN11wxLogDialogD0Ev
_ZN11wxLogDialogD1Ev
_ZN11wxLogDialogD2Ev
_ZN11wxLogStderr9DoLogTextERK8wxString
_ZN11wxLogStderr9DoLogTextERK8wxString.cold
_ZN11wxLogStderrC1EP8_IO_FILERK8wxMBConv
_ZN11wxLogStderrC2EP8_IO_FILERK8wxMBConv
_ZN11wxLogStderrC2EP8_IO_FILERK8wxMBConv.cold
_ZN11wxLogStderrD0Ev
_ZN11wxLogStderrD1Ev
_ZN11wxLogStderrD2Ev
_ZN11wxLogStderrD5Ev
_ZN11wxLogStream9DoLogTextERK8wxString
_ZN11wxLogStream9DoLogTextERK8wxString.cold
_ZN11wxLogStreamC1EPSoRK8wxMBConv
_ZN11wxLogStreamC2EPSoRK8wxMBConv
_ZN11wxLogStreamC2EPSoRK8wxMBConv.cold
_ZN11wxLogStreamD0Ev
_ZN11wxLogStreamD1Ev
_ZN11wxLogStreamD2Ev
_ZN11wxLogStreamD5Ev
_ZN11wxLogWindow12OnFrameCloseEP7wxFrame
_ZN11wxLogWindow12OnFrameCloseEP7wxFrame.localalias
_ZN11wxLogWindow13OnFrameDeleteEP7wxFrame
_ZN11wxLogWindow13OnFrameDeleteEP7wxFrame.localalias
_ZN11wxLogWindow16DoLogTextAtLevelEmRK8wxString
_ZN11wxLogWindow16DoLogTextAtLevelEmRK8wxString.cold
_ZN11wxLogWindow4ShowEb
_ZN11wxLogWindowC1EP8wxWindowRK8wxStringbb
_ZN11wxLogWindowC2EP8wxWindowRK8wxStringbb
_ZN11wxLogWindowC2EP8wxWindowRK8wxStringbb.cold
_ZN11wxLogWindowD0Ev
_ZN11wxLogWindowD1Ev
_ZN11wxLogWindowD2Ev
_ZN11wxMenuEvent12ms_classInfoE
_ZN11wxMenuEvent14wxCreateObjectEv
_ZN11wxMenuEvent14wxCreateObjectEv.cold
_ZN11wxMenuEventD0Ev
_ZN11wxMenuEventD1Ev
_ZN11wxMenuEventD2Ev
_ZN11wxMenuEventD5Ev
_ZN11wxMiniFrame12ms_classInfoE
_ZN11wxMiniFrame14DoSetSizeHintsEiiiiii
_ZN11wxMiniFrame14wxCreateObjectEv
_ZN11wxMiniFrame14wxCreateObjectEv.cold
_ZN11wxMiniFrame6CreateEP8wxWindowiRK8wxStringRK7wxPointRK6wxSizelS4_
_ZN11wxMiniFrame6CreateEP8wxWindowiRK8wxStringRK7wxPointRK6wxSizelS4_.cold
_ZN11wxMiniFrame8SetTitleERK8wxString
_ZN11wxMiniFrameD0Ev
_ZN11wxMiniFrameD1Ev
_ZN11wxMiniFrameD2Ev
_ZN11wxMoveEvent12ms_classInfoE
_ZN11wxMoveEvent14wxCreateObjectEv
_ZN11wxMoveEvent14wxCreateObjectEv.cold
_ZN11wxMoveEventD0Ev
_ZN11wxMoveEventD1Ev
_ZN11wxMoveEventD2Ev
_ZN11wxMoveEventD5Ev
_ZN11wxPanelBase10InitDialogEv
_ZN11wxPanelBase10InitDialogEv.cold
_ZN11wxPanelBase6CreateEP8wxWindowiRK7wxPointRK6wxSizelRK8wxString
_ZN11wxPanelBaseD0Ev
_ZN11wxPanelBaseD1Ev
_ZN11wxPanelBaseD2Ev
_ZN11wxPanelBaseD5Ev
_ZN11wxPGChoices10AssignDataEP15wxPGChoicesData
_ZN11wxPGChoices11AddAsSortedERK8wxStringi
_ZN11wxPGChoices11AddAsSortedERK8wxStringi.cold
_ZN11wxPGChoices14AllocExclusiveEv
_ZN11wxPGChoices14AllocExclusiveEv.cold
_ZN11wxPGChoices3AddEmPK8wxStringPKl
_ZN11wxPGChoices3AddEmPK8wxStringPKl.cold
_ZN11wxPGChoices3AddEPKPKwPKl
_ZN11wxPGChoices3AddEPKPKwPKl.cold
_ZN11wxPGChoices3AddERK13wxArrayStringRK10wxArrayInt
_ZN11wxPGChoices3AddERK13wxArrayStringRK10wxArrayInt.cold
_ZN11wxPGChoices3AddERK8wxStringi
_ZN11wxPGChoices3AddERK8wxStringi.cold
_ZN11wxPGChoices3AddERK8wxStringRK14wxBitmapBundlei
_ZN11wxPGChoices3AddERK8wxStringRK14wxBitmapBundlei.cold
_ZN11wxPGChoices4FreeEv
_ZN11wxPGChoices4InitEv
_ZN11wxPGChoices5ClearEv
_ZN11wxPGChoices6InsertERK15wxPGChoiceEntryi
_ZN11wxPGChoices6InsertERK8wxStringii
_ZN11wxPGChoices6InsertERK8wxStringii.cold
_ZN11wxPGChoices8RemoveAtEmm
_ZN11wxPGChoicesD1Ev
_ZN11wxPGChoicesD2Ev
_ZN11wxPGChoicesD5Ev
_ZN11wxPointList10CreateNodeEP10wxNodeBaseS1_PvRK9wxListKey
_ZN11wxPointListD0Ev
_ZN11wxPointListD1Ev
_ZN11wxPointListD2Ev
_ZN11wxPointListD5Ev
_ZN11wxPrintData11SetPrivDataEPci
_ZN11wxPrintData12ms_classInfoE
_ZN11wxPrintData14wxCreateObjectEv
_ZN11wxPrintData14wxCreateObjectEv.cold
_ZN11wxPrintData15ConvertToNativeEv
_ZN11wxPrintData17ConvertFromNativeEv
_ZN11wxPrintDataaSERKS_
_ZN11wxPrintDataC1ERKS_
_ZN11wxPrintDataC1Ev
_ZN11wxPrintDataC2ERKS_
_ZN11wxPrintDataC2ERKS_.cold
_ZN11wxPrintDataC2Ev
_ZN11wxPrintDataC2Ev.cold
_ZN11wxPrintDataD0Ev
_ZN11wxPrintDataD1Ev
_ZN11wxPrintDataD2Ev
_ZN11wxPrinterDC12ms_classInfoE
_ZN11wxPrinterDC14wxCreateObjectEv
_ZN11wxPrinterDC14wxCreateObjectEv.cold
_ZN11wxPrinterDCC1ERK11wxPrintData
_ZN11wxPrinterDCC1Ev
_ZN11wxPrinterDCC2ERK11wxPrintData
_ZN11wxPrinterDCC2Ev
_ZN11wxPrinterDCC2Ev.cold
_ZN11wxPrinterDCD0Ev
_ZN11wxPrinterDCD1Ev
_ZN11wxPrinterDCD2Ev
_ZN11wxPrinterDCD5Ev
_ZN11wxProtoInfo12ms_classInfoE
_ZN11wxProtoInfoC1EPKwS1_bP11wxClassInfo
_ZN11wxProtoInfoC2EPKwS1_bP11wxClassInfo
_ZN11wxProtoInfoC2EPKwS1_bP11wxClassInfo.cold
_ZN11wxProtoInfoD0Ev
_ZN11wxProtoInfoD1Ev
_ZN11wxProtoInfoD2Ev
_ZN11wxProtoInfoD5Ev
_ZN11wxRealPointC1ERK7wxPoint
_ZN11wxRealPointC2ERK7wxPoint
_ZN11wxRect2DInt11ConstrainToERKS_
_ZN11wxRect2DInt5UnionERK12wxPoint2DInt
_ZN11wxRect2DInt5UnionERKS_S1_PS_
_ZN11wxRect2DInt8ReadFromER17wxDataInputStream
_ZN11wxRect2DInt9IntersectERKS_S1_PS_
_ZN11wxRegExImpl7CompileE8wxStringi
_ZN11wxRegExImpl7CompileE8wxStringi.cold
_ZN11wxRegExImplC1Ev
_ZN11wxRegExImplC2Ev
_ZN11wxRegExImplD1Ev
_ZN11wxRegExImplD2Ev
_ZN11wxRibbonBar10ClearPagesEv
_ZN11wxRibbonBar10CommonInitEl
_ZN11wxRibbonBar10CommonInitEl.cold
_ZN11wxRibbonBar10DeletePageEm
_ZN11wxRibbonBar10ShowPanelsE19wxRibbonDisplayMode
_ZN11wxRibbonBar10ShowPanelsEb
_ZN11wxRibbonBar11HitTestTabsE7wxPointPi
_ZN11wxRibbonBar11OnKillFocusER12wxFocusEvent
_ZN11wxRibbonBar11OnMouseMoveER12wxMouseEvent
_ZN11wxRibbonBar12ms_classInfoE
_ZN11wxRibbonBar12OnMouseLeaveER12wxMouseEvent
_ZN11wxRibbonBar12ScrollTabBarEi
_ZN11wxRibbonBar12ScrollTabBarEi.cold
_ZN11wxRibbonBar13OnMouseLeftUpER12wxMouseEvent
_ZN11wxRibbonBar13RefreshTabBarEv
_ZN11wxRibbonBar13SetActivePageEm
_ZN11wxRibbonBar13SetActivePageEP12wxRibbonPage
_ZN11wxRibbonBar13sm_eventTableE
_ZN11wxRibbonBar14HideIfExpandedEv
_ZN11wxRibbonBar14OnMouseRightUpER12wxMouseEvent
_ZN11wxRibbonBar14RepositionPageEP12wxRibbonPage
_ZN11wxRibbonBar14SetArtProviderEP19wxRibbonArtProvider
_ZN11wxRibbonBar15OnMouseLeftDownER12wxMouseEvent
_ZN11wxRibbonBar15OnMouseLeftDownER12wxMouseEvent.cold
_ZN11wxRibbonBar15OnMouseMiddleUpER12wxMouseEvent
_ZN11wxRibbonBar16AddPageHighlightEmb
_ZN11wxRibbonBar16OnMouseRightDownER12wxMouseEvent
_ZN11wxRibbonBar17DoEraseBackgroundER4wxDC
_ZN11wxRibbonBar17OnEraseBackgroundER12wxEraseEvent
_ZN11wxRibbonBar17OnMouseMiddleDownER12wxMouseEvent
_ZN11wxRibbonBar17SetTabCtrlMarginsEii
_ZN11wxRibbonBar17sm_eventHashTableE
_ZN11wxRibbonBar18GetButtonImageListE6wxSize
_ZN11wxRibbonBar18GetButtonImageListE6wxSize.cold
_ZN11wxRibbonBar18OnMouseDoubleClickER12wxMouseEvent
_ZN11wxRibbonBar18RecalculateMinSizeEv
_ZN11wxRibbonBar18SetWindowStyleFlagEl
_ZN11wxRibbonBar19DoMouseButtonCommonER12wxMouseEventi
_ZN11wxRibbonBar19DoMouseButtonCommonER12wxMouseEventi.cold
_ZN11wxRibbonBar19HitTestRibbonButtonERK6wxRectRK7wxPointRb
_ZN11wxRibbonBar19RecalculateTabSizesEv
_ZN11wxRibbonBar19RecalculateTabSizesEv.cold
_ZN11wxRibbonBar20DismissExpandedPanelEv
_ZN11wxRibbonBar20sm_eventTableEntriesE
_ZN11wxRibbonBar6CreateEP8wxWindowiRK7wxPointRK6wxSizel
_ZN11wxRibbonBar6CreateEP8wxWindowiRK7wxPointRK6wxSizel.cold
_ZN11wxRibbonBar6OnSizeER11wxSizeEvent
_ZN11wxRibbonBar7AddPageEP12wxRibbonPage
_ZN11wxRibbonBar7AddPageEP12wxRibbonPage.cold
_ZN11wxRibbonBar7GetPageEi
_ZN11wxRibbonBar7OnPaintER12wxPaintEvent
_ZN11wxRibbonBar7OnPaintER12wxPaintEvent.cold
_ZN11wxRibbonBar7RealizeEv
_ZN11wxRibbonBar7RealizeEv.cold
_ZN11wxRibbonBar8ShowPageEmb
_ZN11wxRibbonBarC1EP8wxWindowiRK7wxPointRK6wxSizel
_ZN11wxRibbonBarC1Ev
_ZN11wxRibbonBarC2EP8wxWindowiRK7wxPointRK6wxSizel
_ZN11wxRibbonBarC2EP8wxWindowiRK7wxPointRK6wxSizel.cold
_ZN11wxRibbonBarC2Ev
_ZN11wxRibbonBarD0Ev
_ZN11wxRibbonBarD1Ev
_ZN11wxRibbonBarD2Ev
_ZN11wxSashEvent12ms_classInfoE
_ZN11wxSashEvent14wxCreateObjectEv
_ZN11wxSashEvent14wxCreateObjectEv.cold
_ZN11wxSashEventD0Ev
_ZN11wxSashEventD1Ev
_ZN11wxSashEventD2Ev
_ZN11wxSashEventD5Ev
_ZN11wxScopedPtrI11wxAnimationED1Ev
_ZN11wxScopedPtrI11wxAnimationED2Ev
_ZN11wxScopedPtrI11wxAnimationED5Ev
_ZN11wxScopedPtrI12wxMsgCatalogED1Ev
_ZN11wxScopedPtrI12wxMsgCatalogED2Ev
_ZN11wxScopedPtrI12wxMsgCatalogED5Ev
_ZN11wxScopedPtrI13wxExecuteDataED1Ev
_ZN11wxScopedPtrI13wxExecuteDataED2Ev
_ZN11wxScopedPtrI13wxExecuteDataED5Ev
_ZN11wxScopedPtrI13wxFDIOHandlerED1Ev
_ZN11wxScopedPtrI13wxFDIOHandlerED2Ev
_ZN11wxScopedPtrI13wxFDIOHandlerED5Ev
_ZN11wxScopedPtrI13wxXmlDocumentED1Ev
_ZN11wxScopedPtrI13wxXmlDocumentED2Ev
_ZN11wxScopedPtrI13wxXmlDocumentED5Ev
_ZN11wxScopedPtrI19wxTreeListModelNodeED1Ev
_ZN11wxScopedPtrI19wxTreeListModelNodeED2Ev
_ZN11wxScopedPtrI19wxTreeListModelNodeED5Ev
_ZN11wxScopedPtrI21wxAnyValueTypeGlobalsED1Ev
_ZN11wxScopedPtrI21wxAnyValueTypeGlobalsED2Ev
_ZN11wxScopedPtrI21wxAnyValueTypeGlobalsED5Ev
_ZN11wxScopedPtrI24wxEventLoopSourceHandlerED1Ev
_ZN11wxScopedPtrI24wxEventLoopSourceHandlerED2Ev
_ZN11wxScopedPtrI24wxEventLoopSourceHandlerED5Ev
_ZN11wxScopedPtrI5wxDirED1Ev
_ZN11wxScopedPtrI5wxDirED2Ev
_ZN11wxScopedPtrI5wxDirED5Ev
_ZN11wxScopedPtrI8wxFSFileED1Ev
_ZN11wxScopedPtrI8wxFSFileED2Ev
_ZN11wxScopedPtrI8wxFSFileED5Ev
_ZN11wxScrollBar11SetPageSizeEi
_ZN11wxScrollBar12ms_classInfoE
_ZN11wxScrollBar12SetScrollbarEiiiib
_ZN11wxScrollBar12SetThumbSizeEi
_ZN11wxScrollBar14wxCreateObjectEv
_ZN11wxScrollBar14wxCreateObjectEv.cold
_ZN11wxScrollBar16SetThumbPositionEi
_ZN11wxScrollBar25GetClassDefaultAttributesE15wxWindowVariant
_ZN11wxScrollBar6CreateEP8wxWindowiRK7wxPointRK6wxSizelRK11wxValidatorRK8wxString
_ZN11wxScrollBar8SetRangeEi
_ZN11wxScrollBarC1Ev
_ZN11wxScrollBarC2Ev
_ZN11wxScrollBarD0Ev
_ZN11wxScrollBarD1Ev
_ZN11wxScrollBarD2Ev
_ZN11wxSemaphore11WaitTimeoutEm
_ZN11wxSemaphore4PostEv
_ZN11wxSemaphore4WaitEv
_ZN11wxSemaphore7TryWaitEv
_ZN11wxSemaphoreC1Eii
_ZN11wxSemaphoreC2Eii
_ZN11wxSemaphoreC2Eii.cold
_ZN11wxSemaphoreD1Ev
_ZN11wxSemaphoreD2Ev
_ZN11wxSharedPtrI17wxPreferencesPageE7reftype10delete_ptrEv
_ZN11wxSharedPtrI17wxPreferencesPageE7reftypeD0Ev
_ZN11wxSharedPtrI17wxPreferencesPageE7reftypeD1Ev
_ZN11wxSharedPtrI17wxPreferencesPageE7reftypeD2Ev
_ZN11wxSharedPtrI17wxPreferencesPageE7reftypeD5Ev
_ZN11wxSharedPtrI17wxPreferencesPageE7ReleaseEv
_ZN11wxSharedPtrI18wxFSWatchEntryUnixE7reftype10delete_ptrEv
_ZN11wxSharedPtrI18wxFSWatchEntryUnixE7reftypeD0Ev
_ZN11wxSharedPtrI18wxFSWatchEntryUnixE7reftypeD1Ev
_ZN11wxSharedPtrI18wxFSWatchEntryUnixE7reftypeD2Ev
_ZN11wxSharedPtrI18wxFSWatchEntryUnixE7reftypeD5Ev
_ZN11wxSharedPtrI18wxFSWatchEntryUnixE7ReleaseEv
_ZN11wxSharedPtrI20wxThreadSpecificInfoE7reftype10delete_ptrEv
_ZN11wxSharedPtrI20wxThreadSpecificInfoE7reftypeD0Ev
_ZN11wxSharedPtrI20wxThreadSpecificInfoE7reftypeD1Ev
_ZN11wxSharedPtrI20wxThreadSpecificInfoE7reftypeD2Ev
_ZN11wxSharedPtrI20wxThreadSpecificInfoE7reftypeD5Ev
_ZN11wxSharedPtrI20wxThreadSpecificInfoE7ReleaseEv
_ZN11wxSharedPtrI21wxGtkCollatableStringE7reftype10delete_ptrEv
_ZN11wxSharedPtrI21wxGtkCollatableStringE7reftypeD0Ev
_ZN11wxSharedPtrI21wxGtkCollatableStringE7reftypeD1Ev
_ZN11wxSharedPtrI21wxGtkCollatableStringE7reftypeD2Ev
_ZN11wxSharedPtrI21wxGtkCollatableStringE7reftypeD5Ev
_ZN11wxSharedPtrI21wxGtkCollatableStringE7ReleaseEv
_ZN11wxShowEvent12ms_classInfoE
_ZN11wxShowEvent14wxCreateObjectEv
_ZN11wxShowEvent14wxCreateObjectEv.cold
_ZN11wxShowEventD0Ev
_ZN11wxShowEventD1Ev
_ZN11wxShowEventD2Ev
_ZN11wxShowEventD5Ev
_ZN11wxSizeEvent12ms_classInfoE
_ZN11wxSizeEvent14wxCreateObjectEv
_ZN11wxSizeEvent14wxCreateObjectEv.cold
_ZN11wxSizeEventD0Ev
_ZN11wxSizeEventD1Ev
_ZN11wxSizeEventD2Ev
_ZN11wxSizeEventD5Ev
_ZN11wxSizerItem10DoSetSizerEP7wxSizer
_ZN11wxSizerItem11DoSetSpacerERK6wxSize
_ZN11wxSizerItem11DoSetWindowEP8wxWindow
_ZN11wxSizerItem12ms_classInfoE
_ZN11wxSizerItem12SetDimensionERK7wxPointRK6wxSize
_ZN11wxSizerItem13DeleteWindowsEv
_ZN11wxSizerItem20InformFirstDirectionEiii
_ZN11wxSizerItem20InformFirstDirectionEiii.cold
_ZN11wxSizerItem4FreeEv
_ZN11wxSizerItem4InitERK12wxSizerFlags
_ZN11wxSizerItem4InitERK12wxSizerFlags.cold
_ZN11wxSizerItem4ShowEb
_ZN11wxSizerItem7CalcMinEv
_ZN11wxSizerItem7GetRectEv
_ZN11wxSizerItemC1EiiiiiP8wxObject
_ZN11wxSizerItemC1EP7wxSizeriiiP8wxObject
_ZN11wxSizerItemC1EP8wxWindowiiiP8wxObject
_ZN11wxSizerItemC1Ev
_ZN11wxSizerItemC2EiiiiiP8wxObject
_ZN11wxSizerItemC2EiiiiiP8wxObject.cold
_ZN11wxSizerItemC2EP7wxSizeriiiP8wxObject
_ZN11wxSizerItemC2EP7wxSizeriiiP8wxObject.cold
_ZN11wxSizerItemC2EP8wxWindowiiiP8wxObject
_ZN11wxSizerItemC2EP8wxWindowiiiP8wxObject.cold
_ZN11wxSizerItemC2Ev
_ZN11wxSizerItemD0Ev
_ZN11wxSizerItemD0Ev.localalias
_ZN11wxSizerItemD1Ev
_ZN11wxSizerItemD2Ev
_ZN11wxSoundData6DecRefEv
_ZN11wxSoundData6IncRefEv
_ZN11wxSoundDataD1Ev
_ZN11wxSoundDataD2Ev
_ZN11wxSpinEvent12ms_classInfoE
_ZN11wxSpinEvent14wxCreateObjectEv
_ZN11wxSpinEvent14wxCreateObjectEv.cold
_ZN11wxSpinEventD0Ev
_ZN11wxSpinEventD1Ev
_ZN11wxSpinEventD2Ev
_ZN11wxSpinEventD5Ev
_ZN11wxStaticBox12ms_classInfoE
_ZN11wxStaticBox14wxCreateObjectEv
_ZN11wxStaticBox14wxCreateObjectEv.cold
_ZN11wxStaticBox18DoApplyWidgetStyleEP11_GtkRcStyle
_ZN11wxStaticBox22GTKWidgetDoSetMnemonicEP10_GtkWidget
_ZN11wxStaticBox25GetClassDefaultAttributesE15wxWindowVariant
_ZN11wxStaticBox8AddChildEP12wxWindowBase
_ZN11wxStaticBox8DoCreateEP8wxWindowiPK8wxStringS1_RK7wxPointRK6wxSizelRS3_
_ZN11wxStaticBox8SetLabelERK8wxString
_ZN11wxStaticBoxD0Ev
_ZN11wxStaticBoxD1Ev
_ZN11wxStaticBoxD2Ev
_ZN11wxStaticBoxD5Ev
_ZN11wxStatusBar10OnLeftDownER12wxMouseEvent
_ZN11wxStatusBar11InitColoursEv
_ZN11wxStatusBar11InitColoursEv.cold
_ZN11wxStatusBar11OnRightDownER12wxMouseEvent
_ZN11wxStatusBar12ms_classInfoE
_ZN11wxStatusBar12SetMinHeightEi
_ZN11wxStatusBar13DrawFieldTextER4wxDCRK6wxRectii
_ZN11wxStatusBar13DrawFieldTextER4wxDCRK6wxRectii.cold
_ZN11wxStatusBar13sm_eventTableE
_ZN11wxStatusBar14wxCreateObjectEv
_ZN11wxStatusBar14wxCreateObjectEv.cold
_ZN11wxStatusBar15SetStatusWidthsEiPKi
_ZN11wxStatusBar17sm_eventHashTableE
_ZN11wxStatusBar18DoUpdateStatusTextEi
_ZN11wxStatusBar18OnSysColourChangedER23wxSysColourChangedEvent
_ZN11wxStatusBar19DoUpdateFieldWidthsEv
_ZN11wxStatusBar20sm_eventTableEntriesE
_ZN11wxStatusBar4InitEv
_ZN11wxStatusBar6CreateEP8wxWindowilRK8wxString
_ZN11wxStatusBar6OnSizeER11wxSizeEvent
_ZN11wxStatusBar7OnPaintER12wxPaintEvent
_ZN11wxStatusBar7OnPaintER12wxPaintEvent.cold
_ZN11wxStatusBar9DrawFieldER4wxDCii
_ZN11wxStatusBarD0Ev
_ZN11wxStatusBarD1Ev
_ZN11wxStatusBarD2Ev
_ZN11wxStopWatch5StartEl
_ZN11wxStopWatch7DoStartEv
_ZN11wxSVGFileDC12ms_classInfoE
_ZN11wxSVGFileDC16SetBitmapHandlerEP18wxSVGBitmapHandler
_ZN11wxSVGFileDC21SetShapeRenderingModeE23wxSVGShapeRenderingMode
_ZN11wxSVGFileDCD0Ev
_ZN11wxSVGFileDCD1Ev
_ZN11wxSVGFileDCD2Ev
_ZN11wxSVGFileDCD5Ev
_ZN11wxTCPClient12ms_classInfoE
_ZN11wxTCPClient14MakeConnectionERK8wxStringS2_S2_
_ZN11wxTCPClient14MakeConnectionERK8wxStringS2_S2_.cold
_ZN11wxTCPClient14wxCreateObjectEv
_ZN11wxTCPClient14wxCreateObjectEv.cold
_ZN11wxTCPClient16OnMakeConnectionEv
_ZN11wxTCPClient16OnMakeConnectionEv.cold
_ZN11wxTCPClient9ValidHostERK8wxString
_ZN11wxTCPClient9ValidHostERK8wxString.cold
_ZN11wxTCPClientC1Ev
_ZN11wxTCPClientC2Ev
_ZN11wxTCPClientD0Ev
_ZN11wxTCPClientD1Ev
_ZN11wxTCPClientD2Ev
_ZN11wxTCPClientD5Ev
_ZN11wxTCPServer12ms_classInfoE
_ZN11wxTCPServer14wxCreateObjectEv
_ZN11wxTCPServer14wxCreateObjectEv.cold
_ZN11wxTCPServer18OnAcceptConnectionERK8wxString
_ZN11wxTCPServer18OnAcceptConnectionERK8wxString.cold
_ZN11wxTCPServer6CreateERK8wxString
_ZN11wxTCPServer6CreateERK8wxString.cold
_ZN11wxTCPServerC1Ev
_ZN11wxTCPServerC2Ev
_ZN11wxTCPServerD0Ev
_ZN11wxTCPServerD1Ev
_ZN11wxTCPServerD2Ev
_ZN11wxTCPServerD2Ev.cold
_ZN11wxTempFFile4OpenERK8wxString
_ZN11wxTempFFile4OpenERK8wxString.cold
_ZN11wxTempFFile6CommitEv
_ZN11wxTempFFile6CommitEv.cold
_ZN11wxTempFFile7DiscardEv
_ZN11wxTempFFile7DiscardEv.cold
_ZN11wxTempFFileC1ERK8wxString
_ZN11wxTempFFileC2ERK8wxString
_ZN11wxTempFFileC2ERK8wxString.cold
_ZN11wxTempFFileD1Ev
_ZN11wxTempFFileD2Ev
_ZN11wxTextEntry10DoSetValueERK8wxStringi
_ZN11wxTextEntry10DoSetValueERK8wxStringi.cold
_ZN11wxTextEntry10ForceUpperEv
_ZN11wxTextEntry11SetEditableEb
_ZN11wxTextEntry12DoSetMarginsERK7wxPoint
_ZN11wxTextEntry12SetMaxLengthEm
_ZN11wxTextEntry12SetSelectionEll
_ZN11wxTextEntry15SendMaxLenEventEv
_ZN11wxTextEntry15SendMaxLenEventEv.cold
_ZN11wxTextEntry16GTKOnTextChangedEv
_ZN11wxTextEntry17SetInsertionPointEl
_ZN11wxTextEntry20DoAutoCompleteCustomEP15wxTextCompleter
_ZN11wxTextEntry20DoAutoCompleteCustomEP15wxTextCompleter.cold
_ZN11wxTextEntry20GTKEntryOnInsertTextEPKc
_ZN11wxTextEntry21DoAutoCompleteStringsERK13wxArrayString
_ZN11wxTextEntry21DoAutoCompleteStringsERK13wxArrayString.cold
_ZN11wxTextEntry21GTKGetEntryTextLengthEP9_GtkEntry
_ZN11wxTextEntry23EnableTextChangedEventsEb
_ZN11wxTextEntry23GTKConnectChangedSignalEv
_ZN11wxTextEntry26GTKConnectClipboardSignalsEP10_GtkWidget
_ZN11wxTextEntry26GTKConnectInsertTextSignalEP9_GtkEntry
_ZN11wxTextEntry28ClickDefaultButtonIfPossibleEv
_ZN11wxTextEntry3CutEv
_ZN11wxTextEntry4CopyEv
_ZN11wxTextEntry4RedoEv
_ZN11wxTextEntry4UndoEv
_ZN11wxTextEntry5PasteEv
_ZN11wxTextEntry6RemoveEll
_ZN11wxTextEntry7SetHintERK8wxString
_ZN11wxTextEntry7SetHintERK8wxString.cold
_ZN11wxTextEntry9WriteTextERK8wxString
_ZN11wxTextEntry9WriteTextERK8wxString.cold
_ZN11wxTextEntryC1Ev
_ZN11wxTextEntryC2Ev
_ZN11wxTextEntryD0Ev
_ZN11wxTextEntryD1Ev
_ZN11wxTextEntryD2Ev
_ZN11wxTimerImpl5StartEib
_ZN11wxTimerImpl6NotifyEv
_ZN11wxTimerImpl8SetOwnerEP12wxEvtHandleri
_ZN11wxTimerImpl9SendEventEv
_ZN11wxTimerImpl9SendEventEv.cold
_ZN11wxTimerImplC1EP7wxTimer
_ZN11wxTimerImplC2EP7wxTimer
_ZN11wxTimerList10CreateNodeEP10wxNodeBaseS1_PvRK9wxListKey
_ZN11wxTimerListD0Ev
_ZN11wxTimerListD1Ev
_ZN11wxTimerListD2Ev
_ZN11wxTimerListD5Ev
_ZN11wxTipDialog13sm_eventTableE
_ZN11wxTipDialog17sm_eventHashTableE
_ZN11wxTipDialog20sm_eventTableEntriesE
_ZN11wxTipDialog9OnNextTipER14wxCommandEvent
_ZN11wxTipDialogC1EP8wxWindowP13wxTipProviderb
_ZN11wxTipDialogC2EP8wxWindowP13wxTipProviderb
_ZN11wxTipDialogC2EP8wxWindowP13wxTipProviderb.cold
_ZN11wxTipDialogD0Ev
_ZN11wxTipDialogD1Ev
_ZN11wxTipDialogD2Ev
_ZN11wxTipDialogD5Ev
_ZN11wxTipWindow12OnMouseClickER12wxMouseEvent
_ZN11wxTipWindow13sm_eventTableE
_ZN11wxTipWindow15SetBoundingRectERK6wxRect
_ZN11wxTipWindow17sm_eventHashTableE
_ZN11wxTipWindow20sm_eventTableEntriesE
_ZN11wxTipWindow5CloseEv
_ZN11wxTipWindow9OnDismissEv
_ZN11wxTipWindowC1EP8wxWindowRK8wxStringiPPS_P6wxRect
_ZN11wxTipWindowC2EP8wxWindowRK8wxStringiPPS_P6wxRect
_ZN11wxTipWindowC2EP8wxWindowRK8wxStringiPPS_P6wxRect.cold
_ZN11wxTipWindowD0Ev
_ZN11wxTipWindowD1Ev
_ZN11wxTipWindowD2Ev
_ZN11wxTreeEvent12ms_classInfoE
_ZN11wxTreeEvent14wxCreateObjectEv
_ZN11wxTreeEvent14wxCreateObjectEv.cold
_ZN11wxTreeEventC1Eii
_ZN11wxTreeEventC1EiP14wxTreeCtrlBaseRK12wxTreeItemId
_ZN11wxTreeEventC1ERKS_
_ZN11wxTreeEventC2Eii
_ZN11wxTreeEventC2Eii.cold
_ZN11wxTreeEventC2EiP14wxTreeCtrlBaseRK12wxTreeItemId
_ZN11wxTreeEventC2EiP14wxTreeCtrlBaseRK12wxTreeItemId.cold
_ZN11wxTreeEventC2ERKS_
_ZN11wxTreeEventC2ERKS_.cold
_ZN11wxTreeEventD0Ev
_ZN11wxTreeEventD1Ev
_ZN11wxTreeEventD2Ev
_ZN11wxTreeEventD5Ev
_ZN11wxURLModule12ms_classInfoE
_ZN11wxURLModule14wxCreateObjectEv
_ZN11wxURLModule14wxCreateObjectEv.cold
_ZN11wxURLModule6OnExitEv
_ZN11wxURLModule6OnInitEv
_ZN11wxURLModuleC1Ev
_ZN11wxURLModuleC2Ev
_ZN11wxURLModuleC2Ev.cold
_ZN11wxURLModuleD0Ev
_ZN11wxURLModuleD1Ev
_ZN11wxURLModuleD2Ev
_ZN11wxURLModuleD5Ev
_ZN11wxValidator11ms_isSilentE
_ZN11wxValidator12ms_classInfoE
_ZN11wxValidator14wxCreateObjectEv
_ZN11wxValidator14wxCreateObjectEv.cold
_ZN11wxValidator16TransferToWindowEv
_ZN11wxValidator18TransferFromWindowEv
_ZN11wxValidator8ValidateEP8wxWindow
_ZN11wxValidator9SetWindowEP8wxWindow
_ZN11wxValidatorC1Ev
_ZN11wxValidatorC2Ev
_ZN11wxValidatorD0Ev
_ZN11wxValidatorD1Ev
_ZN11wxValidatorD2Ev
_ZN11wxWrapSizer11GetRowSizerEm
_ZN11wxWrapSizer11GetRowSizerEm.cold
_ZN11wxWrapSizer12ms_classInfoE
_ZN11wxWrapSizer14wxCreateObjectEv
_ZN11wxWrapSizer14wxCreateObjectEv.cold
_ZN11wxWrapSizer16CalcMinFromMajorEi
_ZN11wxWrapSizer16CalcMinFromMinorEi
_ZN11wxWrapSizer16CalcMinFromMinorEi.cold
_ZN11wxWrapSizer18CalcMinFittingSizeERK6wxSize
_ZN11wxWrapSizer18RepositionChildrenERK6wxSize
_ZN11wxWrapSizer20InformFirstDirectionEiii
_ZN11wxWrapSizer21AdjustLastRowItemPropEmP11wxSizerItem
_ZN11wxWrapSizer21CalcMaxSingleItemSizeEv
_ZN11wxWrapSizer7CalcMinEv
_ZN11wxWrapSizer9ClearRowsEv
_ZN11wxWrapSizer9FinishRowEmiiP11wxSizerItem
_ZN11wxWrapSizerC1Eii
_ZN11wxWrapSizerC2Eii
_ZN11wxWrapSizerC2Eii.cold
_ZN11wxWrapSizerD0Ev
_ZN11wxWrapSizerD1Ev
_ZN11wxWrapSizerD2Ev
_ZN11wxZipEndRec4ReadER13wxInputStreamR8wxMBConv
_ZN11wxZipEndRec4ReadER13wxInputStreamR8wxMBConv.cold
_ZN11wxZipEndRecC1Ev
_ZN11wxZipEndRecC2Ev
_ZN11wxZipHeader6Read32Ev
_ZN11wxZipHeaderC1EPKcm
_ZN11wxZipHeaderC1ER13wxInputStreamm
_ZN11wxZipHeaderC2EPKcm
_ZN11wxZipHeaderC2ER13wxInputStreamm
_ZN11wxZipMemory6UniqueEm
_ZN12_GLOBAL__N_110g_fileAtomE
_ZN12_GLOBAL__N_110g_htmlAtomE
_ZN12_GLOBAL__N_110gs_managerE
_ZN12_GLOBAL__N_110gs_prevLogE
_ZN12_GLOBAL__N_110g_textAtomE
_ZN12_GLOBAL__N_110OutputNodeER14wxOutputStreamP9wxXmlNodeiP8wxMBConvS5_iRK8wxString.constprop.0
_ZN12_GLOBAL__N_110OutputNodeER14wxOutputStreamP9wxXmlNodeiP8wxMBConvS5_iRK8wxString.constprop.0.cold
_ZN12_GLOBAL__N_110TraceMasksEv
_ZN12_GLOBAL__N_110TraceMasksEv.cold
_ZN12_GLOBAL__N_110update_boxEPNS_12j_decompressEPNS_3boxE.isra.0
_ZN12_GLOBAL__N_111CompareIntsEii
_ZN12_GLOBAL__N_111GetFragmentER8wxString
_ZN12_GLOBAL__N_111GetFragmentER8wxString.cold
_ZN12_GLOBAL__N_111gs_fcConfigE
_ZN12_GLOBAL__N_111LoadBMPDataEP7wxImageRKNS_7BMPDescER13wxInputStreamb
_ZN12_GLOBAL__N_111LoadBMPDataEP7wxImageRKNS_7BMPDescER13wxInputStreamb.cold
_ZN12_GLOBAL__N_111wx_regerrorEiPKNS_7regex_tEPwm
_ZN12_GLOBAL__N_111wx_regerrorEiPKNS_7regex_tEPwm.cold
_ZN12_GLOBAL__N_112CheckBoxInfoC2ER17wxGtkStyleContexti.constprop.0
_ZN12_GLOBAL__N_112CheckBoxInfoC2ER17wxGtkStyleContexti.constprop.0.cold
_ZN12_GLOBAL__N_112ExtendBitmapER8wxBitmapRK6wxSize
_ZN12_GLOBAL__N_112ExtendBitmapER8wxBitmapRK6wxSize.cold
_ZN12_GLOBAL__N_112finish_pass1EPNS_12j_decompressE
_ZN12_GLOBAL__N_112finish_pass1EPNS_12j_decompressE.cold
_ZN12_GLOBAL__N_112finish_pass2EPNS_12j_decompressE
_ZN12_GLOBAL__N_112GetBrushFillERK8wxColouri
_ZN12_GLOBAL__N_112GetBrushFillERK8wxColouri.cold
_ZN12_GLOBAL__N_112GetPenStrokeERK8wxColouri
_ZN12_GLOBAL__N_112GetPenStrokeERK8wxColouri.cold
_ZN12_GLOBAL__N_112GtkApplyAttrEP20_GtkCellRendererTextRK18wxDataViewItemAttr
_ZN12_GLOBAL__N_112GtkApplyAttrEP20_GtkCellRendererTextRK18wxDataViewItemAttr.cold
_ZN12_GLOBAL__N_112OutputStringER14wxOutputStreamRK8wxStringP8wxMBConvS6_.constprop.0
_ZN12_GLOBAL__N_112OutputStringER14wxOutputStreamRK8wxStringP8wxMBConvS6_.constprop.0.cold
_ZN12_GLOBAL__N_113AttachToFrameEP6wxMenuP7wxFrame
_ZN12_GLOBAL__N_113FindExtensionERK8wxString
_ZN12_GLOBAL__N_113FindExtensionERK8wxString.cold
_ZN12_GLOBAL__N_113g_altTextAtomE
_ZN12_GLOBAL__N_113GetPenPatternERK5wxPen.constprop.0
_ZN12_GLOBAL__N_113GetPenPatternERK5wxPen.constprop.0.cold
_ZN12_GLOBAL__N_113GetRenderModeE23wxSVGShapeRenderingMode
_ZN12_GLOBAL__N_113GetRenderModeE23wxSVGShapeRenderingMode.cold
_ZN12_GLOBAL__N_113ParseFormatAtERN8wxString14const_iteratorERKS1_RKS0_S6_
_ZN12_GLOBAL__N_113ParseFormatAtERN8wxString14const_iteratorERKS1_RKS0_S6_.cold
_ZN12_GLOBAL__N_113wxOverlayImpl10EndDrawingEP4wxDC
_ZN12_GLOBAL__N_113wxOverlayImpl12BeginDrawingEP4wxDC
_ZN12_GLOBAL__N_113wxOverlayImpl4InitEP4wxDCiiii
_ZN12_GLOBAL__N_113wxOverlayImpl4InitEP4wxDCiiii.cold
_ZN12_GLOBAL__N_113wxOverlayImpl4IsOkEv
_ZN12_GLOBAL__N_113wxOverlayImpl5ClearEP4wxDC
_ZN12_GLOBAL__N_113wxOverlayImpl5ResetEv
_ZN12_GLOBAL__N_113wxOverlayImplD0Ev
_ZN12_GLOBAL__N_113wxOverlayImplD1Ev
_ZN12_GLOBAL__N_113wxOverlayImplD2Ev
_ZN12_GLOBAL__N_113wxPropChangerD0Ev
_ZN12_GLOBAL__N_113wxPropChangerD1Ev
_ZN12_GLOBAL__N_113wxPropChangerD2Ev
_ZN12_GLOBAL__N_114BitmapProviderD0Ev
_ZN12_GLOBAL__N_114BitmapProviderD1Ev
_ZN12_GLOBAL__N_114BitmapProviderD2Ev
_ZN12_GLOBAL__N_114DeletedObjectsD1Ev
_ZN12_GLOBAL__N_114DeletedObjectsD2Ev
_ZN12_GLOBAL__N_114wxArtIDToStockERK8wxString
_ZN12_GLOBAL__N_114wxArtIDToStockERK8wxString.cold
_ZN12_GLOBAL__N_114wxPNGImageData13DoLoadPNGFileEP7wxImageRNS_15wxPNGInfoStructE.constprop.0
_ZN12_GLOBAL__N_114wxPNGImageData13DoLoadPNGFileEP7wxImageRNS_15wxPNGInfoStructE.constprop.0.cold
_ZN12_GLOBAL__N_115CheckSizerFlagsEb
_ZN12_GLOBAL__N_115CheckSizerFlagsEb.cold
_ZN12_GLOBAL__N_115CreateBrushFillERK7wxBrush23wxSVGShapeRenderingMode.constprop.0
_ZN12_GLOBAL__N_115CreateBrushFillERK7wxBrush23wxSVGShapeRenderingMode.constprop.0.cold
_ZN12_GLOBAL__N_115DetachFromFrameEP6wxMenuP7wxFrame
_ZN12_GLOBAL__N_115GetBoundingRectEPK10wxHtmlCellS2_
_ZN12_GLOBAL__N_115GetBrushPatternERK7wxBrush
_ZN12_GLOBAL__N_115GetBrushPatternERK7wxBrush.cold
_ZN12_GLOBAL__N_115GetNumericTokenEmRN8wxString14const_iteratorERKS1_PmS5_
_ZN12_GLOBAL__N_115GetNumericTokenEmRN8wxString14const_iteratorERKS1_PmS5_.cold
_ZN12_GLOBAL__N_115GetRoundedValueIdEET_PK12wxPGPropertyS1_
_ZN12_GLOBAL__N_115gs_allFacenamesE
_ZN12_GLOBAL__N_115gs_translationsE
_ZN12_GLOBAL__N_115GtkPolicyFromWXE21wxScrollbarVisibility
_ZN12_GLOBAL__N_115pass2_fs_ditherEPNS_12j_decompressEPPhS3_i
_ZN12_GLOBAL__N_115PreviousLogInfoD1Ev
_ZN12_GLOBAL__N_115PreviousLogInfoD2Ev
_ZN12_GLOBAL__N_115TryCreateLocaleERK13wxLocaleIdent
_ZN12_GLOBAL__N_115TryCreateLocaleERK13wxLocaleIdent.cold
_ZN12_GLOBAL__N_115wxLogOutputBest9DoLogTextERK8wxString
_ZN12_GLOBAL__N_115wxLogOutputBest9DoLogTextERK8wxString.cold
_ZN12_GLOBAL__N_115wxLogOutputBestD0Ev
_ZN12_GLOBAL__N_115wxLogOutputBestD1Ev
_ZN12_GLOBAL__N_115wxLogOutputBestD2Ev
_ZN12_GLOBAL__N_116GetMonthFromNameERN8wxString14const_iteratorERKS1_ii
_ZN12_GLOBAL__N_116GetMonthFromNameERN8wxString14const_iteratorERKS1_ii.cold
_ZN12_GLOBAL__N_116GetMRUEntryLabelEiRK8wxString
_ZN12_GLOBAL__N_116GetMRUEntryLabelEiRK8wxString.cold
_ZN12_GLOBAL__N_116GetStockArtAttrsEPK9wxXmlNodeRK8wxStringRS3_S6_
_ZN12_GLOBAL__N_116GetStockArtAttrsEPK9wxXmlNodeRK8wxStringRS3_S6_.cold
_ZN12_GLOBAL__N_116LoadBitmapFromFSEP24wxXmlResourceHandlerImplRK8wxString6wxSizeS4_
_ZN12_GLOBAL__N_116LoadBitmapFromFSEP24wxXmlResourceHandlerImplRK8wxString6wxSizeS4_.cold
_ZN12_GLOBAL__N_116PossiblyLocalizeERK8wxStringb
_ZN12_GLOBAL__N_116PossiblyLocalizeERK8wxStringb.cold
_ZN12_GLOBAL__N_116prescan_quantizeEPNS_12j_decompressEPPhS3_i
_ZN12_GLOBAL__N_116SizerWithButtons3AddEP8wxWindow
_ZN12_GLOBAL__N_116SizerWithButtons3AddEP8wxWindow.cold
_ZN12_GLOBAL__N_116SizerWithButtons9AddButtonEiRK8wxStringS3_
_ZN12_GLOBAL__N_116SizerWithButtons9AddButtonEiRK8wxStringS3_.cold
_ZN12_GLOBAL__N_116wxFontWithAscentD0Ev
_ZN12_GLOBAL__N_116wxFontWithAscentD1Ev
_ZN12_GLOBAL__N_116wxFontWithAscentD2Ev
_ZN12_GLOBAL__N_117CheckForChildExitEiPi
_ZN12_GLOBAL__N_117CheckForChildExitEiPi.cold
_ZN12_GLOBAL__N_117DoGetArgumentTypeIcEEN14wxFormatString12ArgumentTypeEPKT_j
_ZN12_GLOBAL__N_117DoGetArgumentTypeIwEEN14wxFormatString12ArgumentTypeEPKT_j
_ZN12_GLOBAL__N_117GetBrushStyleNameERK7wxBrush
_ZN12_GLOBAL__N_117GetBrushStyleNameERK7wxBrush.cold
_ZN12_GLOBAL__N_117GetSearchPrefixesEv
_ZN12_GLOBAL__N_117GetSearchPrefixesEv.cold
_ZN12_GLOBAL__N_117GetXRCFileModTimeERK8wxString
_ZN12_GLOBAL__N_117GetXRCFileModTimeERK8wxString.cold
_ZN12_GLOBAL__N_117gs_searchPrefixesE
_ZN12_GLOBAL__N_117MakeResizedBitmapERK8wxBitmap6wxSize.constprop.0
_ZN12_GLOBAL__N_117OutputIndentationER14wxOutputStreamiP8wxMBConvS3_RK8wxString.constprop.0
_ZN12_GLOBAL__N_117OutputIndentationER14wxOutputStreamiP8wxMBConvS3_RK8wxString.constprop.0.cold
_ZN12_GLOBAL__N_117SignalsWakeUpPipe13OnReadWaitingEv
_ZN12_GLOBAL__N_117SignalsWakeUpPipeD0Ev
_ZN12_GLOBAL__N_117SignalsWakeUpPipeD1Ev
_ZN12_GLOBAL__N_117SignalsWakeUpPipeD2Ev
_ZN12_GLOBAL__N_118ConvertStringToBufERK8wxStringPcm
_ZN12_GLOBAL__N_118ConvertStringToBufERK8wxStringPcm.cold
_ZN12_GLOBAL__N_118GetWeekDayFromNameERN8wxString14const_iteratorERKS1_ii
_ZN12_GLOBAL__N_118GetWeekDayFromNameERN8wxString14const_iteratorERKS1_ii.cold
_ZN12_GLOBAL__N_118gs_socketInitCountE
_ZN12_GLOBAL__N_118LogTraceLargeArrayERK8wxStringRK13wxArrayString
_ZN12_GLOBAL__N_118LogTraceLargeArrayERK8wxStringRK13wxArrayString.cold
_ZN12_GLOBAL__N_118MakeDisabledBitmapERK8wxBitmap.constprop.0
_ZN12_GLOBAL__N_118ResampleBoxPrecalcER8wxVectorINS_10BoxPrecalcEEi
_ZN12_GLOBAL__N_118SetAllLocaleFacetsEPKc
_ZN12_GLOBAL__N_118start_pass_2_quantEPNS_12j_decompressEb
_ZN12_GLOBAL__N_118UpdateRowOrColSizeERii
_ZN12_GLOBAL__N_118wxUILocaleImplUnix3UseEv
_ZN12_GLOBAL__N_118wxUILocaleImplUnix3UseEv.cold
_ZN12_GLOBAL__N_118wxUILocaleImplUnixC1E13wxLocaleIdentP15__locale_struct
_ZN12_GLOBAL__N_118wxUILocaleImplUnixC2E13wxLocaleIdentP15__locale_struct
_ZN12_GLOBAL__N_118wxUILocaleImplUnixC2E13wxLocaleIdentP15__locale_struct.cold
_ZN12_GLOBAL__N_118wxUILocaleImplUnixD0Ev
_ZN12_GLOBAL__N_118wxUILocaleImplUnixD1Ev
_ZN12_GLOBAL__N_118wxUILocaleImplUnixD2Ev
_ZN12_GLOBAL__N_119ArtClientToIconSizeERK8wxString
_ZN12_GLOBAL__N_119EllipsizeCalculator13IsShortEnoughEv
_ZN12_GLOBAL__N_119GetFileNameFromNodeEPK9wxXmlNodeRK24wxXmlResourceDataRecords
_ZN12_GLOBAL__N_119GetFileNameFromNodeEPK9wxXmlNodeRK24wxXmlResourceDataRecords.cold
_ZN12_GLOBAL__N_119GetLocaleFromEnvVarEPKcR8wxStringS3_
_ZN12_GLOBAL__N_119GetLocaleFromEnvVarEPKcR8wxStringS3_.cold
_ZN12_GLOBAL__N_119GetVisibleTemplatesERK6wxList
_ZN12_GLOBAL__N_119OutputEscapedStringER14wxOutputStreamRK8wxStringP8wxMBConvS6_NS_12EscapingModeE.constprop.0
_ZN12_GLOBAL__N_119OutputEscapedStringER14wxOutputStreamRK8wxStringP8wxMBConvS6_NS_12EscapingModeE.constprop.0.cold
_ZN12_GLOBAL__N_119ParseStringInPixelsI6wxSizeEET_P24wxXmlResourceHandlerImplRK8wxStringS7_RKS2_P8wxWindow.constprop.0
_ZN12_GLOBAL__N_119ParseStringInPixelsI6wxSizeEET_P24wxXmlResourceHandlerImplRK8wxStringS7_RKS2_P8wxWindow.constprop.0.cold
_ZN12_GLOBAL__N_119wxWindowGesturesMapD1Ev
_ZN12_GLOBAL__N_119wxWindowGesturesMapD2Ev
_ZN12_GLOBAL__N_120gs_disableFlagChecksE
_ZN12_GLOBAL__N_120gs_translationsOwnedE
_ZN12_GLOBAL__N_120wxCellRendererPixbuf3NewEv
_ZN12_GLOBAL__N_120wxCellRendererPixbuf3NewEv.cold
_ZN12_GLOBAL__N_120wxCellRendererPixbuf3SetERK14wxBitmapBundle
_ZN12_GLOBAL__N_120wxGenericPrefsDialogD0Ev
_ZN12_GLOBAL__N_120wxGenericPrefsDialogD1Ev
_ZN12_GLOBAL__N_120wxGenericPrefsDialogD2Ev
_ZN12_GLOBAL__N_120wxWindowGesturesData4FreeEv
_ZN12_GLOBAL__N_120wxWindowGesturesData6ReinitEP8wxWindowP10_GtkWidgeti
_ZN12_GLOBAL__N_121BitmapProviderDefault3SetERK14wxBitmapBundle
_ZN12_GLOBAL__N_121BitmapProviderDefaultD0Ev
_ZN12_GLOBAL__N_121BitmapProviderDefaultD1Ev
_ZN12_GLOBAL__N_121BitmapProviderDefaultD2Ev
_ZN12_GLOBAL__N_121CheckExpectedParentIsEP8wxWindowS1_
_ZN12_GLOBAL__N_121DragAcceptFilesTarget11OnDropFilesEiiRK13wxArrayString
_ZN12_GLOBAL__N_121DragAcceptFilesTarget11OnDropFilesEiiRK13wxArrayString.cold
_ZN12_GLOBAL__N_121DragAcceptFilesTargetD0Ev
_ZN12_GLOBAL__N_121DragAcceptFilesTargetD1Ev
_ZN12_GLOBAL__N_121DragAcceptFilesTargetD2Ev
_ZN12_GLOBAL__N_121gs_bufferedLogRecordsE
_ZN12_GLOBAL__N_121MakeFlagsCheckMessageEPKcS1_
_ZN12_GLOBAL__N_121MakeFlagsCheckMessageEPKcS1_.cold
_ZN12_GLOBAL__N_121new_color_map_2_quantEPNS_12j_decompressE
_ZN12_GLOBAL__N_121SetScaledScreenDCFontER10wxScreenDCRK6wxFont
_ZN12_GLOBAL__N_121SetScaledScreenDCFontER10wxScreenDCRK6wxFont.cold
_ZN12_GLOBAL__N_121wxBitmapBundleImplArt9GetBitmapERK6wxSize
_ZN12_GLOBAL__N_121wxBitmapBundleImplArtD0Ev
_ZN12_GLOBAL__N_121wxBitmapBundleImplArtD1Ev
_ZN12_GLOBAL__N_121wxBitmapBundleImplArtD2Ev
_ZN12_GLOBAL__N_121wxBitmapBundleImplSet4InitEPK8wxBitmapm
_ZN12_GLOBAL__N_121wxBitmapBundleImplSet4InitEPK8wxBitmapm.cold
_ZN12_GLOBAL__N_121wxBitmapBundleImplSet9GetBitmapERK6wxSize
_ZN12_GLOBAL__N_121wxBitmapBundleImplSet9GetBitmapERK6wxSize.cold
_ZN12_GLOBAL__N_121wxBitmapBundleImplSetD0Ev
_ZN12_GLOBAL__N_121wxBitmapBundleImplSetD1Ev
_ZN12_GLOBAL__N_121wxBitmapBundleImplSetD2Ev
_ZN12_GLOBAL__N_121wxBitmapBundleImplSVG9GetBitmapERK6wxSize
_ZN12_GLOBAL__N_121wxBitmapBundleImplSVG9GetBitmapERK6wxSize.cold
_ZN12_GLOBAL__N_121wxBitmapBundleImplSVGD0Ev
_ZN12_GLOBAL__N_121wxBitmapBundleImplSVGD1Ev
_ZN12_GLOBAL__N_121wxBitmapBundleImplSVGD2Ev
_ZN12_GLOBAL__N_122DefaultHeaderRenderersD1Ev
_ZN12_GLOBAL__N_122DefaultHeaderRenderersD2Ev
_ZN12_GLOBAL__N_122NameArrayIndexFromFlagEN10wxDateTime9NameFlagsE
_ZN12_GLOBAL__N_122ResampleBicubicPrecalcER8wxVectorINS_14BicubicPrecalcEEi
_ZN12_GLOBAL__N_122wxStandardPathsDefaultD0Ev
_ZN12_GLOBAL__N_122wxStandardPathsDefaultD1Ev
_ZN12_GLOBAL__N_122wxStandardPathsDefaultD2Ev
_ZN12_GLOBAL__N_123AdjustCharEventKeyCodesER10wxKeyEvent
_ZN12_GLOBAL__N_123gs_deletedEditorObjectsE
_ZN12_GLOBAL__N_123ResampleBilinearPrecalcER8wxVectorINS_15BilinearPrecalcEEi
_ZN12_GLOBAL__N_123TryCreateLocaleWithUTF8ER13wxLocaleIdent
_ZN12_GLOBAL__N_123TryCreateLocaleWithUTF8ER13wxLocaleIdent.cold
_ZN12_GLOBAL__N_123ValidationTraverserBase20DoForSelfAndChildrenEv
_ZN12_GLOBAL__N_123wxFcConfigDestroyModule12ms_classInfoE
_ZN12_GLOBAL__N_123wxFcConfigDestroyModule14wxCreateObjectEv
_ZN12_GLOBAL__N_123wxFcConfigDestroyModule6OnExitEv
_ZN12_GLOBAL__N_123wxFcConfigDestroyModule6OnInitEv
_ZN12_GLOBAL__N_123wxFcConfigDestroyModuleD0Ev
_ZN12_GLOBAL__N_123wxFcConfigDestroyModuleD1Ev
_ZN12_GLOBAL__N_123wxFcConfigDestroyModuleD2Ev
_ZN12_GLOBAL__N_124CreateColumnWithRendererI22wxDataViewDateRenderer8wxBitmapEEP16wxDataViewColumnRKT0_j18wxDataViewCellModei11wxAlignmenti
_ZN12_GLOBAL__N_124CreateColumnWithRendererI22wxDataViewDateRenderer8wxBitmapEEP16wxDataViewColumnRKT0_j18wxDataViewCellModei11wxAlignmenti.cold
_ZN12_GLOBAL__N_124CreateColumnWithRendererI22wxDataViewDateRenderer8wxStringEEP16wxDataViewColumnRKT0_j18wxDataViewCellModei11wxAlignmenti
_ZN12_GLOBAL__N_124CreateColumnWithRendererI22wxDataViewDateRenderer8wxStringEEP16wxDataViewColumnRKT0_j18wxDataViewCellModei11wxAlignmenti.cold
_ZN12_GLOBAL__N_124CreateColumnWithRendererI22wxDataViewTextRenderer8wxBitmapEEP16wxDataViewColumnRKT0_j18wxDataViewCellModei11wxAlignmenti
_ZN12_GLOBAL__N_124CreateColumnWithRendererI22wxDataViewTextRenderer8wxBitmapEEP16wxDataViewColumnRKT0_j18wxDataViewCellModei11wxAlignmenti.cold
_ZN12_GLOBAL__N_124CreateColumnWithRendererI22wxDataViewTextRenderer8wxStringEEP16wxDataViewColumnRKT0_j18wxDataViewCellModei11wxAlignmenti
_ZN12_GLOBAL__N_124CreateColumnWithRendererI22wxDataViewTextRenderer8wxStringEEP16wxDataViewColumnRKT0_j18wxDataViewCellModei11wxAlignmenti.cold
_ZN12_GLOBAL__N_124CreateColumnWithRendererI24wxDataViewBitmapRenderer8wxBitmapEEP16wxDataViewColumnRKT0_j18wxDataViewCellModei11wxAlignmenti
_ZN12_GLOBAL__N_124CreateColumnWithRendererI24wxDataViewBitmapRenderer8wxBitmapEEP16wxDataViewColumnRKT0_j18wxDataViewCellModei11wxAlignmenti.cold
_ZN12_GLOBAL__N_124CreateColumnWithRendererI24wxDataViewBitmapRenderer8wxStringEEP16wxDataViewColumnRKT0_j18wxDataViewCellModei11wxAlignmenti
_ZN12_GLOBAL__N_124CreateColumnWithRendererI24wxDataViewBitmapRenderer8wxStringEEP16wxDataViewColumnRKT0_j18wxDataViewCellModei11wxAlignmenti.cold
_ZN12_GLOBAL__N_124CreateColumnWithRendererI24wxDataViewToggleRenderer8wxBitmapEEP16wxDataViewColumnRKT0_j18wxDataViewCellModei11wxAlignmenti
_ZN12_GLOBAL__N_124CreateColumnWithRendererI24wxDataViewToggleRenderer8wxBitmapEEP16wxDataViewColumnRKT0_j18wxDataViewCellModei11wxAlignmenti.cold
_ZN12_GLOBAL__N_124CreateColumnWithRendererI24wxDataViewToggleRenderer8wxStringEEP16wxDataViewColumnRKT0_j18wxDataViewCellModei11wxAlignmenti
_ZN12_GLOBAL__N_124CreateColumnWithRendererI24wxDataViewToggleRenderer8wxStringEEP16wxDataViewColumnRKT0_j18wxDataViewCellModei11wxAlignmenti.cold
_ZN12_GLOBAL__N_124CreateColumnWithRendererI26wxDataViewIconTextRenderer8wxBitmapEEP16wxDataViewColumnRKT0_j18wxDataViewCellModei11wxAlignmenti
_ZN12_GLOBAL__N_124CreateColumnWithRendererI26wxDataViewIconTextRenderer8wxBitmapEEP16wxDataViewColumnRKT0_j18wxDataViewCellModei11wxAlignmenti.cold
_ZN12_GLOBAL__N_124CreateColumnWithRendererI26wxDataViewIconTextRenderer8wxStringEEP16wxDataViewColumnRKT0_j18wxDataViewCellModei11wxAlignmenti
_ZN12_GLOBAL__N_124CreateColumnWithRendererI26wxDataViewIconTextRenderer8wxStringEEP16wxDataViewColumnRKT0_j18wxDataViewCellModei11wxAlignmenti.cold
_ZN12_GLOBAL__N_124CreateColumnWithRendererI26wxDataViewProgressRenderer8wxBitmapEEP16wxDataViewColumnRKT0_j18wxDataViewCellModei11wxAlignmenti
_ZN12_GLOBAL__N_124CreateColumnWithRendererI26wxDataViewProgressRenderer8wxBitmapEEP16wxDataViewColumnRKT0_j18wxDataViewCellModei11wxAlignmenti.cold
_ZN12_GLOBAL__N_124CreateColumnWithRendererI26wxDataViewProgressRenderer8wxStringEEP16wxDataViewColumnRKT0_j18wxDataViewCellModei11wxAlignmenti
_ZN12_GLOBAL__N_124CreateColumnWithRendererI26wxDataViewProgressRenderer8wxStringEEP16wxDataViewColumnRKT0_j18wxDataViewCellModei11wxAlignmenti.cold
_ZN12_GLOBAL__N_124GetPageSetupFromSettingsEP17_GtkPrintSettings
_ZN12_GLOBAL__N_124UpdateCellAttrRowsOrColsER21wxGridCoordsToAttrMapiii
_ZN12_GLOBAL__N_124UpdateCellAttrRowsOrColsER21wxGridCoordsToAttrMapiii.cold
_ZN12_GLOBAL__N_124wxFileSystemObjectExistsERK8wxStringi
_ZN12_GLOBAL__N_124wxFileSystemObjectExistsERK8wxStringi.cold
_ZN12_GLOBAL__N_125gs_defaultHeaderRenderersE
_ZN12_GLOBAL__N_125MakeExpectedParentMessageEP8wxWindowS1_
_ZN12_GLOBAL__N_125MakeExpectedParentMessageEP8wxWindowS1_.cold
_ZN12_GLOBAL__N_126wxMarkupParserRenderOutput11OnAttrStartERKN24wxMarkupParserAttrOutput4AttrE
_ZN12_GLOBAL__N_126wxMarkupParserRenderOutput9OnAttrEndERKN24wxMarkupParserAttrOutput4AttrE
_ZN12_GLOBAL__N_126wxMarkupParserRenderOutput9OnAttrEndERKN24wxMarkupParserAttrOutput4AttrE.cold
_ZN12_GLOBAL__N_126wxMarkupParserRenderOutputC2ER4wxDCRK6wxRecti
_ZN12_GLOBAL__N_126wxMarkupParserRenderOutputC2ER4wxDCRK6wxRecti.cold
_ZN12_GLOBAL__N_126wxMarkupParserRenderOutputD2Ev
_ZN12_GLOBAL__N_126wxUIActionSimulatorX11Impl5DoKeyEiib
_ZN12_GLOBAL__N_126wxUIActionSimulatorX11Impl7MouseUpEi
_ZN12_GLOBAL__N_126wxUIActionSimulatorX11Impl9MouseDownEi
_ZN12_GLOBAL__N_126wxUIActionSimulatorX11Impl9MouseMoveEll
_ZN12_GLOBAL__N_127wxMarkupParserMeasureOutput11OnAttrStartERKN24wxMarkupParserAttrOutput4AttrE
_ZN12_GLOBAL__N_127wxMarkupParserMeasureOutput6OnTextERK8wxString
_ZN12_GLOBAL__N_127wxMarkupParserMeasureOutput9OnAttrEndERKN24wxMarkupParserAttrOutput4AttrE
_ZN12_GLOBAL__N_127wxMarkupParserMeasureOutputD0Ev
_ZN12_GLOBAL__N_127wxMarkupParserMeasureOutputD1Ev
_ZN12_GLOBAL__N_127wxMarkupParserMeasureOutputD2Ev
_ZN12_GLOBAL__N_128wxFontEnumCacheCleanupModule12ms_classInfoE
_ZN12_GLOBAL__N_128wxFontEnumCacheCleanupModule14wxCreateObjectEv
_ZN12_GLOBAL__N_128wxFontEnumCacheCleanupModule6OnExitEv
_ZN12_GLOBAL__N_128wxFontEnumCacheCleanupModule6OnInitEv
_ZN12_GLOBAL__N_128wxFontEnumCacheCleanupModuleD0Ev
_ZN12_GLOBAL__N_128wxFontEnumCacheCleanupModuleD1Ev
_ZN12_GLOBAL__N_128wxFontEnumCacheCleanupModuleD2Ev
_ZN12_GLOBAL__N_128wxUIActionSimulatorXTestImpl11DoX11ButtonEib
_ZN12_GLOBAL__N_128wxUIActionSimulatorXTestImpl11DoX11ButtonEib.cold
_ZN12_GLOBAL__N_128wxUIActionSimulatorXTestImpl14DoX11MouseMoveEll
_ZN12_GLOBAL__N_128wxUIActionSimulatorXTestImpl14DoX11MouseMoveEll.cold
_ZN12_GLOBAL__N_128wxUIActionSimulatorXTestImpl8DoX11KeyEhib
_ZN12_GLOBAL__N_128wxUIActionSimulatorXTestImpl8DoX11KeyEhib.cold
_ZN12_GLOBAL__N_128wxUIActionSimulatorXTestImplD0Ev
_ZN12_GLOBAL__N_128wxUIActionSimulatorXTestImplD1Ev
_ZN12_GLOBAL__N_128wxUIActionSimulatorXTestImplD2Ev
_ZN12_GLOBAL__N_130wxDataViewEditorCtrlEvtHandler11OnKillFocusER12wxFocusEvent
_ZN12_GLOBAL__N_130wxDataViewEditorCtrlEvtHandler11OnTextEnterER14wxCommandEvent
_ZN12_GLOBAL__N_130wxDataViewEditorCtrlEvtHandler13sm_eventTableE
_ZN12_GLOBAL__N_130wxDataViewEditorCtrlEvtHandler17sm_eventHashTableE
_ZN12_GLOBAL__N_130wxDataViewEditorCtrlEvtHandler20sm_eventTableEntriesE
_ZN12_GLOBAL__N_130wxDataViewEditorCtrlEvtHandler6OnCharER10wxKeyEvent
_ZN12_GLOBAL__N_130wxDataViewEditorCtrlEvtHandler6OnIdleER11wxIdleEvent
_ZN12_GLOBAL__N_130wxDataViewEditorCtrlEvtHandlerD0Ev
_ZN12_GLOBAL__N_130wxDataViewEditorCtrlEvtHandlerD1Ev
_ZN12_GLOBAL__N_130wxDataViewEditorCtrlEvtHandlerD2Ev
_ZN12_GLOBAL__N_130wxHeaderColumnsRearrangeDialogD0Ev
_ZN12_GLOBAL__N_130wxHeaderColumnsRearrangeDialogD1Ev
_ZN12_GLOBAL__N_130wxHeaderColumnsRearrangeDialogD2Ev
_ZN12_GLOBAL__N_130wxMarkupParserRenderItemOutput6OnTextERK8wxString
_ZN12_GLOBAL__N_130wxMarkupParserRenderItemOutput6OnTextERK8wxString.cold
_ZN12_GLOBAL__N_130wxMarkupParserRenderItemOutputD0Ev
_ZN12_GLOBAL__N_130wxMarkupParserRenderItemOutputD1Ev
_ZN12_GLOBAL__N_130wxMarkupParserRenderItemOutputD2Ev
_ZN12_GLOBAL__N_131wxCellRendererPixbufParentClassE
_ZN12_GLOBAL__N_131wxMarkupParserRenderLabelOutput6OnTextERK8wxString
_ZN12_GLOBAL__N_131wxMarkupParserRenderLabelOutput6OnTextERK8wxString.cold
_ZN12_GLOBAL__N_131wxMarkupParserRenderLabelOutputD0Ev
_ZN12_GLOBAL__N_131wxMarkupParserRenderLabelOutputD1Ev
_ZN12_GLOBAL__N_131wxMarkupParserRenderLabelOutputD2Ev
_ZN12_GLOBAL__N_131wxModelessPreferencesEditorImpl4ShowEP8wxWindow
_ZN12_GLOBAL__N_131wxModelessPreferencesEditorImpl4ShowEP8wxWindow.cold
_ZN12_GLOBAL__N_131wxModelessPreferencesEditorImpl7DismissEv
_ZN12_GLOBAL__N_131wxModelessPreferencesEditorImplD0Ev
_ZN12_GLOBAL__N_131wxModelessPreferencesEditorImplD1Ev
_ZN12_GLOBAL__N_131wxModelessPreferencesEditorImplD2Ev
_ZN12_GLOBAL__N_134wxGenericPreferencesEditorImplBase7AddPageEP17wxPreferencesPage
_ZN12_GLOBAL__N_134wxGenericPreferencesEditorImplBase7AddPageEP17wxPreferencesPage.cold
_ZN12_GLOBAL__N_141DeletedObjects_wxImplementation_HashTable10DeleteNodeEP21_wxHashTable_NodeBase
_ZN12_GLOBAL__N_141DeletedObjects_wxImplementation_HashTable16GetBucketForNodeEPS0_PNS0_4NodeE
_ZN12_GLOBAL__N_146wxWindowGesturesMap_wxImplementation_HashTable10DeleteNodeEP21_wxHashTable_NodeBase
_ZN12_GLOBAL__N_146wxWindowGesturesMap_wxImplementation_HashTable16GetBucketForNodeEPS0_PNS0_4NodeE
_ZN12_GLOBAL__N_16NumStrEd
_ZN12_GLOBAL__N_17Col2SVGE8wxColourPf
_ZN12_GLOBAL__N_17Col2SVGE8wxColourPf.cold
_ZN12_GLOBAL__N_17wxXSync12ms_lastEventE
_ZN12_GLOBAL__N_17wxXSyncD1Ev
_ZN12_GLOBAL__N_17wxXSyncD2Ev
_ZN12_GLOBAL__N_18addrLockE
_ZN12_GLOBAL__N_18GtkAccel4InitEPK18wxAcceleratorEntry
_ZN12_GLOBAL__N_18GtkAccel4InitEPK18wxAcceleratorEntry.cold
_ZN12_GLOBAL__N_18GtkAccelC1EPK10wxMenuItem
_ZN12_GLOBAL__N_18GtkAccelC2EPK10wxMenuItem
_ZN12_GLOBAL__N_18GtkAccelC2EPK10wxMenuItem.cold
_ZN12_GLOBAL__N_18GtkArrayC1ERK13wxArrayString
_ZN12_GLOBAL__N_18GtkArrayC2ERK13wxArrayString
_ZN12_GLOBAL__N_18GtkArrayC2ERK13wxArrayString.cold
_ZN12_GLOBAL__N_18nameLockE
_ZN12_GLOBAL__N_18ReadLineEP8_IO_FILEmP8wxString
_ZN12_GLOBAL__N_18ReadLineEP8_IO_FILEmP8wxString.cold
_ZN12_GLOBAL__N_18servLockE
_ZN12_GLOBAL__N_19ArgsArrayD1Ev
_ZN12_GLOBAL__N_19ArgsArrayD2Ev
_ZN12_GLOBAL__N_19DoAddIconER12wxIconBundleR13wxInputStream12wxBitmapTypeRK8wxString
_ZN12_GLOBAL__N_19DoAddIconER12wxIconBundleR13wxInputStream12wxBitmapTypeRK8wxString.cold
_ZN12_GLOBAL__N_19DoStatAnyER4stat8wxStringb
_ZN12_GLOBAL__N_19DoStatAnyER4stat8wxStringb.cold
_ZN12_GLOBAL__N_19g_pngAtomE
_ZN12_GLOBAL__N_1L11BOM_UTF16BEE
_ZN12_GLOBAL__N_1L11BOM_UTF16LEE
_ZN12_GLOBAL__N_1L11BOM_UTF32BEE
_ZN12_GLOBAL__N_1L11BOM_UTF32LEE
_ZN12_GLOBAL__N_1L11gs_stdPathsE
_ZN12_GLOBAL__N_1L11xmlEntitiesE
_ZN12_GLOBAL__N_1L13entitiesNamesE
_ZN12_GLOBAL__N_1L13gs_nextAutoIdE
_ZN12_GLOBAL__N_1L14gs_stdIDsAddedE
_ZN12_GLOBAL__N_1L16init_error_limitEPNS_12j_decompressE.isra.0
_ZN12_GLOBAL__N_1L16IsVolumeGUIDPathERK8wxString
_ZN12_GLOBAL__N_1L16IsVolumeGUIDPathERK8wxString.cold
_ZN12_GLOBAL__N_1L17fill_inverse_cmapEPNS_12j_decompressEiii
_ZN12_GLOBAL__N_1L17wxGetVolumeStringERK8wxString12wxPathFormat
_ZN12_GLOBAL__N_1L17wxGetVolumeStringERK8wxString12wxPathFormat.cold
_ZN12_GLOBAL__N_1L23FindCategoryForPropertyEP12wxPGPropertyS1_Ri
_ZN12_GLOBAL__N_1L7SVG_DPIE
_ZN12_GLOBAL__N_1L8BOM_UTF8E
_ZN12_GLOBAL__N_1L8wxId2GtkE
_ZN12wxANIDecoder10sm_handlerE
_ZN12wxANIDecoder4LoadER13wxInputStream
_ZN12wxANIDecoder4LoadER13wxInputStream.cold
_ZN12wxANIDecoderC1Ev
_ZN12wxANIDecoderC2Ev
_ZN12wxANIDecoderD0Ev
_ZN12wxANIDecoderD1Ev
_ZN12wxANIDecoderD2Ev
_ZN12wxANIHandler12ms_classInfoE
_ZN12wxANIHandler14wxCreateObjectEv
_ZN12wxANIHandler14wxCreateObjectEv.cold
_ZN12wxANIHandler15DoGetImageCountER13wxInputStream
_ZN12wxANIHandler15DoGetImageCountER13wxInputStream.cold
_ZN12wxANIHandler8LoadFileEP7wxImageR13wxInputStreambi
_ZN12wxANIHandler8LoadFileEP7wxImageR13wxInputStreambi.cold
_ZN12wxANIHandler8SaveFileEP7wxImageR14wxOutputStreamb
_ZN12wxANIHandler9DoCanReadER13wxInputStream
_ZN12wxANIHandler9DoCanReadER13wxInputStream.cold
_ZN12wxANIHandlerD0Ev
_ZN12wxANIHandlerD1Ev
_ZN12wxANIHandlerD2Ev
_ZN12wxANIHandlerD5Ev
_ZN12wxAppConsole10InitializeERiPPw
_ZN12wxAppConsole11CheckSignalEv
_ZN12wxAppConsole12HandleSignalEi
_ZN12wxAppConsole16SetSignalHandlerEiPFviE
_ZN12wxAppConsole16SetSignalHandlerEiPFviE.cold
_ZN12wxAppConsole24RegisterSignalWakeUpPipeER16wxFDIODispatcher
_ZN12wxAppConsole24RegisterSignalWakeUpPipeER16wxFDIODispatcher.cold
_ZN12wxAppConsole44SignalHandlerHash_wxImplementation_HashTable10DeleteNodeEP21_wxHashTable_NodeBase
_ZN12wxAppConsole44SignalHandlerHash_wxImplementation_HashTable16GetBucketForNodeEPS0_PNS0_4NodeE
_ZN12wxAppConsoleC1Ev
_ZN12wxAppConsoleC2Ev
_ZN12wxAppConsoleC2Ev.cold
_ZN12wxAppConsoleD0Ev
_ZN12wxAppConsoleD1Ev
_ZN12wxAppConsoleD2Ev
_ZN12wxAppPtrBase5resetEP12wxAppConsole
_ZN12wxAppPtrBaseD1Ev
_ZN12wxAppPtrBaseD2Ev
_ZN12wxAuiDockArt23UpdateColoursFromSystemEv
_ZN12wxAuiManager10DetachPaneEP8wxWindow
_ZN12wxAuiManager10GetManagerEP8wxWindow
_ZN12wxAuiManager10GetManagerEP8wxWindow.cold
_ZN12wxAuiManager10InsertPaneEP8wxWindowRK13wxAuiPaneInfoi
_ZN12wxAuiManager10OnLeftDownER12wxMouseEvent
_ZN12wxAuiManager11GetAllPanesEv
_ZN12wxAuiManager11GetPanePartEP8wxWindow
_ZN12wxAuiManager11OnSetCursorER16wxSetCursorEvent
_ZN12wxAuiManager11OnSetCursorER16wxSetCursorEvent.cold
_ZN12wxAuiManager11RestorePaneER13wxAuiPaneInfo
_ZN12wxAuiManager12CanDockPanelERK13wxAuiPaneInfo
_ZN12wxAuiManager12CanDockPanelERK13wxAuiPaneInfo.localalias
_ZN12wxAuiManager12DrawHintRectEP8wxWindowRK7wxPointS4_
_ZN12wxAuiManager12LoadPaneInfoE8wxStringR13wxAuiPaneInfo
_ZN12wxAuiManager12LoadPaneInfoE8wxStringR13wxAuiPaneInfo.cold
_ZN12wxAuiManager12MaximizePaneER13wxAuiPaneInfo
_ZN12wxAuiManager12ms_classInfoE
_ZN12wxAuiManager12OnChildFocusER17wxChildFocusEvent
_ZN12wxAuiManager12OnPaneButtonER17wxAuiManagerEvent
_ZN12wxAuiManager12OnPaneButtonER17wxAuiManagerEvent.cold
_ZN12wxAuiManager12SavePaneInfoERK13wxAuiPaneInfo
_ZN12wxAuiManager12SavePaneInfoERK13wxAuiPaneInfo.cold
_ZN12wxAuiManager13DoFrameLayoutEv
_ZN12wxAuiManager13LayoutAddDockEP7wxSizerR13wxAuiDockInfoR20wxAuiDockUIPartArrayb
_ZN12wxAuiManager13LayoutAddDockEP7wxSizerR13wxAuiDockInfoR20wxAuiDockUIPartArrayb.cold
_ZN12wxAuiManager13LayoutAddPaneEP7wxSizerR13wxAuiDockInfoR13wxAuiPaneInfoR20wxAuiDockUIPartArrayb
_ZN12wxAuiManager13LayoutAddPaneEP7wxSizerR13wxAuiDockInfoR13wxAuiPaneInfoR20wxAuiDockUIPartArrayb.cold
_ZN12wxAuiManager13OnCaptureLostER23wxMouseCaptureLostEvent
_ZN12wxAuiManager13OnFindManagerER17wxAuiManagerEvent
_ZN12wxAuiManager13OnLeaveWindowER12wxMouseEvent
_ZN12wxAuiManager13SetActivePaneEP8wxWindow
_ZN12wxAuiManager13SetActivePaneEP8wxWindow.cold
_ZN12wxAuiManager13sm_eventTableE
_ZN12wxAuiManager13StartPaneDragEP8wxWindowRK7wxPoint
_ZN12wxAuiManager14OnHintActivateER15wxActivateEvent
_ZN12wxAuiManager14SetArtProviderEP12wxAuiDockArt
_ZN12wxAuiManager15LoadPerspectiveERK8wxStringb
_ZN12wxAuiManager15LoadPerspectiveERK8wxStringb.cold
_ZN12wxAuiManager15OnHintFadeTimerER12wxTimerEvent
_ZN12wxAuiManager15OnHintFadeTimerER12wxTimerEvent.cold
_ZN12wxAuiManager15ProcessMgrEventER17wxAuiManagerEvent
_ZN12wxAuiManager15SavePerspectiveEv
_ZN12wxAuiManager15SavePerspectiveEv.cold
_ZN12wxAuiManager16SetManagedWindowEP8wxWindow
_ZN12wxAuiManager16SetManagedWindowEP8wxWindow.cold
_ZN12wxAuiManager17CalculateHintRectEP8wxWindowRK7wxPointS4_
_ZN12wxAuiManager17CalculateHintRectEP8wxWindowRK7wxPointS4_.cold
_ZN12wxAuiManager17DoEndResizeActionER12wxMouseEvent
_ZN12wxAuiManager17OnEraseBackgroundER12wxEraseEvent
_ZN12wxAuiManager17ProcessDockResultER13wxAuiPaneInfoRKS0_
_ZN12wxAuiManager17sm_eventHashTableE
_ZN12wxAuiManager18GetDockPixelOffsetER13wxAuiPaneInfo
_ZN12wxAuiManager18GetDockPixelOffsetER13wxAuiPaneInfo.cold
_ZN12wxAuiManager18OnSysColourChangedER23wxSysColourChangedEvent
_ZN12wxAuiManager19CreateFloatingFrameEP8wxWindowRK13wxAuiPaneInfo
_ZN12wxAuiManager19CreateFloatingFrameEP8wxWindowRK13wxAuiPaneInfo.cold
_ZN12wxAuiManager19CreateFloatingFrameEP8wxWindowRK13wxAuiPaneInfo.localalias
_ZN12wxAuiManager19OnFloatingPaneMovedEP8wxWindow11wxDirection
_ZN12wxAuiManager20AlwaysUsesLiveResizeEv
_ZN12wxAuiManager20OnFloatingPaneClosedEP8wxWindowR12wxCloseEvent
_ZN12wxAuiManager20OnFloatingPaneClosedEP8wxWindowR12wxCloseEvent.cold
_ZN12wxAuiManager20OnFloatingPaneMovingEP8wxWindow11wxDirection
_ZN12wxAuiManager20OnFloatingPaneMovingEP8wxWindow11wxDirection.cold
_ZN12wxAuiManager20RestoreMaximizedPaneEv
_ZN12wxAuiManager20sm_eventTableEntriesE
_ZN12wxAuiManager20UpdateButtonOnScreenEP15wxAuiDockUIPartRK12wxMouseEvent
_ZN12wxAuiManager20UpdateButtonOnScreenEP15wxAuiDockUIPartRK12wxMouseEvent.cold
_ZN12wxAuiManager21OnFloatingPaneResizedEP8wxWindowRK6wxRect
_ZN12wxAuiManager21SetDockSizeConstraintEdd
_ZN12wxAuiManager22UpdateHintWindowConfigEv
_ZN12wxAuiManager22UpdateHintWindowConfigEv.cold
_ZN12wxAuiManager23OnFloatingPaneActivatedEP8wxWindow
_ZN12wxAuiManager23OnFloatingPaneMoveStartEP8wxWindow
_ZN12wxAuiManager24GetPanePositionsAndSizesER13wxAuiDockInfoR10wxArrayIntS3_
_ZN12wxAuiManager6DoDropER18wxAuiDockInfoArrayR18wxAuiPaneInfoArrayR13wxAuiPaneInfoRK7wxPointS8_
_ZN12wxAuiManager6DoDropER18wxAuiDockInfoArrayR18wxAuiPaneInfoArrayR13wxAuiPaneInfoRK7wxPointS8_.cold
_ZN12wxAuiManager6OnSizeER11wxSizeEvent
_ZN12wxAuiManager6RenderEP4wxDC
_ZN12wxAuiManager6RenderEP4wxDC.cold
_ZN12wxAuiManager6UnInitEv
_ZN12wxAuiManager6UpdateEv
_ZN12wxAuiManager6UpdateEv.cold
_ZN12wxAuiManager7AddPaneEP8wxWindowiRK8wxString
_ZN12wxAuiManager7AddPaneEP8wxWindowiRK8wxString.cold
_ZN12wxAuiManager7AddPaneEP8wxWindowRK13wxAuiPaneInfo
_ZN12wxAuiManager7AddPaneEP8wxWindowRK13wxAuiPaneInfo.cold
_ZN12wxAuiManager7AddPaneEP8wxWindowRK13wxAuiPaneInfoRK7wxPoint
_ZN12wxAuiManager7GetPaneEP8wxWindow
_ZN12wxAuiManager7GetPaneERK8wxString
_ZN12wxAuiManager7HitTestEii
_ZN12wxAuiManager7OnPaintER12wxPaintEvent
_ZN12wxAuiManager7OnPaintER12wxPaintEvent.cold
_ZN12wxAuiManager7RepaintEP4wxDC
_ZN12wxAuiManager8HideHintEv
_ZN12wxAuiManager8HideHintEv.cold
_ZN12wxAuiManager8OnLeftUpER12wxMouseEvent
_ZN12wxAuiManager8OnLeftUpER12wxMouseEvent.cold
_ZN12wxAuiManager8OnMotionER12wxMouseEvent
_ZN12wxAuiManager8OnMotionER12wxMouseEvent.cold
_ZN12wxAuiManager8OnRenderER17wxAuiManagerEvent
_ZN12wxAuiManager8SetFlagsEj
_ZN12wxAuiManager8SetFrameEP7wxFrame
_ZN12wxAuiManager8ShowHintERK6wxRect
_ZN12wxAuiManager8ShowHintERK6wxRect.cold
_ZN12wxAuiManager9ClosePaneER13wxAuiPaneInfo
_ZN12wxAuiManager9LayoutAllER18wxAuiPaneInfoArrayR18wxAuiDockInfoArrayR20wxAuiDockUIPartArrayb
_ZN12wxAuiManager9LayoutAllER18wxAuiPaneInfoArrayR18wxAuiDockInfoArrayR20wxAuiDockUIPartArrayb.cold
_ZN12wxAuiManager9OnDestroyER20wxWindowDestroyEvent
_ZN12wxAuiManagerC1EP8wxWindowj
_ZN12wxAuiManagerC2EP8wxWindowj
_ZN12wxAuiManagerC2EP8wxWindowj.cold
_ZN12wxAuiManagerD0Ev
_ZN12wxAuiManagerD1Ev
_ZN12wxAuiManagerD2Ev
_ZN12wxAuiTabCtrl10OnLeftDownER12wxMouseEvent
_ZN12wxAuiTabCtrl10OnLeftDownER12wxMouseEvent.cold
_ZN12wxAuiTabCtrl10OnMiddleUpER12wxMouseEvent
_ZN12wxAuiTabCtrl10OnMiddleUpER12wxMouseEvent.cold
_ZN12wxAuiTabCtrl10OnSetFocusER12wxFocusEvent
_ZN12wxAuiTabCtrl11OnKillFocusER12wxFocusEvent
_ZN12wxAuiTabCtrl11OnRightDownER12wxMouseEvent
_ZN12wxAuiTabCtrl11OnRightDownER12wxMouseEvent.cold
_ZN12wxAuiTabCtrl11SetHoverTabEP8wxWindow
_ZN12wxAuiTabCtrl12ms_classInfoE
_ZN12wxAuiTabCtrl12OnLeftDClickER12wxMouseEvent
_ZN12wxAuiTabCtrl12OnLeftDClickER12wxMouseEvent.cold
_ZN12wxAuiTabCtrl12OnMiddleDownER12wxMouseEvent
_ZN12wxAuiTabCtrl12OnMiddleDownER12wxMouseEvent.cold
_ZN12wxAuiTabCtrl13OnCaptureLostER23wxMouseCaptureLostEvent
_ZN12wxAuiTabCtrl13OnCaptureLostER23wxMouseCaptureLostEvent.cold
_ZN12wxAuiTabCtrl13OnLeaveWindowER12wxMouseEvent
_ZN12wxAuiTabCtrl13sm_eventTableE
_ZN12wxAuiTabCtrl17OnEraseBackgroundER12wxEraseEvent
_ZN12wxAuiTabCtrl17sm_eventHashTableE
_ZN12wxAuiTabCtrl18OnSysColourChangedER23wxSysColourChangedEvent
_ZN12wxAuiTabCtrl20sm_eventTableEntriesE
_ZN12wxAuiTabCtrl6OnCharER10wxKeyEvent
_ZN12wxAuiTabCtrl6OnCharER10wxKeyEvent.cold
_ZN12wxAuiTabCtrl6OnSizeER11wxSizeEvent
_ZN12wxAuiTabCtrl7OnPaintER12wxPaintEvent
_ZN12wxAuiTabCtrl7OnPaintER12wxPaintEvent.cold
_ZN12wxAuiTabCtrl8OnButtonER18wxAuiNotebookEvent
_ZN12wxAuiTabCtrl8OnButtonER18wxAuiNotebookEvent.cold
_ZN12wxAuiTabCtrl8OnLeftUpER12wxMouseEvent
_ZN12wxAuiTabCtrl8OnLeftUpER12wxMouseEvent.cold
_ZN12wxAuiTabCtrl8OnMotionER12wxMouseEvent
_ZN12wxAuiTabCtrl8OnMotionER12wxMouseEvent.cold
_ZN12wxAuiTabCtrl9OnRightUpER12wxMouseEvent
_ZN12wxAuiTabCtrl9OnRightUpER12wxMouseEvent.cold
_ZN12wxAuiTabCtrlC1EP8wxWindowiRK7wxPointRK6wxSizel
_ZN12wxAuiTabCtrlC2EP8wxWindowiRK7wxPointRK6wxSizel
_ZN12wxAuiTabCtrlC2EP8wxWindowiRK7wxPointRK6wxSizel.cold
_ZN12wxAuiTabCtrlD0Ev
_ZN12wxAuiTabCtrlD0Ev.localalias
_ZN12wxAuiTabCtrlD1Ev
_ZN12wxAuiTabCtrlD2Ev
_ZN12wxAuiToolBar10AddControlEP9wxControlRK8wxString
_ZN12wxAuiToolBar10AddControlEP9wxControlRK8wxString.cold
_ZN12wxAuiToolBar10DeleteToolEi
_ZN12wxAuiToolBar10EnableToolEib
_ZN12wxAuiToolBar10OnLeftDownER12wxMouseEvent
_ZN12wxAuiToolBar10OnLeftDownER12wxMouseEvent.cold
_ZN12wxAuiToolBar10OnMiddleUpER12wxMouseEvent
_ZN12wxAuiToolBar10OnMiddleUpER12wxMouseEvent.cold
_ZN12wxAuiToolBar10SetMarginsEiiii
_ZN12wxAuiToolBar10ToggleToolEib
_ZN12wxAuiToolBar11DestroyToolEi
_ZN12wxAuiToolBar11FindControlEi
_ZN12wxAuiToolBar11IsPaneValidElRK13wxAuiPaneInfo
_ZN12wxAuiToolBar11OnRightDownER12wxMouseEvent
_ZN12wxAuiToolBar11OnRightDownER12wxMouseEvent.localalias
_ZN12wxAuiToolBar11OnSetCursorER16wxSetCursorEvent
_ZN12wxAuiToolBar11OnSetCursorER16wxSetCursorEvent.cold
_ZN12wxAuiToolBar12AddSeparatorEv
_ZN12wxAuiToolBar12AddSeparatorEv.cold
_ZN12wxAuiToolBar12DoIdleUpdateEv
_ZN12wxAuiToolBar12DoIdleUpdateEv.cold
_ZN12wxAuiToolBar12GetLabelSizeERK8wxString
_ZN12wxAuiToolBar12GetLabelSizeERK8wxString.cold
_ZN12wxAuiToolBar12ms_classInfoE
_ZN12wxAuiToolBar12OnDPIChangedER17wxDPIChangedEvent
_ZN12wxAuiToolBar12OnMiddleDownER12wxMouseEvent
_ZN12wxAuiToolBar12SetHoverItemEP16wxAuiToolBarItem
_ZN12wxAuiToolBar12SetToolLabelEiRK8wxString
_ZN12wxAuiToolBar13DeleteByIndexEi
_ZN12wxAuiToolBar13OnCaptureLostER23wxMouseCaptureLostEvent
_ZN12wxAuiToolBar13OnLeaveWindowER12wxMouseEvent
_ZN12wxAuiToolBar13RealizeHelperER10wxClientDCb
_ZN12wxAuiToolBar13RealizeHelperER10wxClientDCb.cold
_ZN12wxAuiToolBar13SetToolBitmapEiRK14wxBitmapBundle
_ZN12wxAuiToolBar13SetToolStickyEib
_ZN12wxAuiToolBar13sm_eventTableE
_ZN12wxAuiToolBar14OnCustomRenderER4wxDCRK16wxAuiToolBarItemRK6wxRect
_ZN12wxAuiToolBar14SetArtProviderEP15wxAuiToolBarArt
_ZN12wxAuiToolBar14SetOrientationEi
_ZN12wxAuiToolBar14SetPressedItemEP16wxAuiToolBarItem
_ZN12wxAuiToolBar14SetToolPackingEi
_ZN12wxAuiToolBar14UpdateWindowUIEl
_ZN12wxAuiToolBar15SetToolDropDownEib
_ZN12wxAuiToolBar15SetToolLongHelpEiRK8wxString
_ZN12wxAuiToolBar16AddStretchSpacerEi
_ZN12wxAuiToolBar16AddStretchSpacerEi.cold
_ZN12wxAuiToolBar16SetToolShortHelpEiRK8wxString
_ZN12wxAuiToolBar17DoResetMouseStateEv
_ZN12wxAuiToolBar17OnEraseBackgroundER12wxEraseEvent
_ZN12wxAuiToolBar17SetGripperVisibleEb
_ZN12wxAuiToolBar17SetToolBitmapSizeERK6wxSize
_ZN12wxAuiToolBar17SetToolProportionEii
_ZN12wxAuiToolBar17SetToolSeparationEi
_ZN12wxAuiToolBar17sm_eventHashTableE
_ZN12wxAuiToolBar18DestroyToolByIndexEi
_ZN12wxAuiToolBar18OnSysColourChangedER23wxSysColourChangedEvent
_ZN12wxAuiToolBar18SetOverflowVisibleEb
_ZN12wxAuiToolBar18SetWindowStyleFlagEl
_ZN12wxAuiToolBar20RefreshOverflowStateEv
_ZN12wxAuiToolBar20SetToolBorderPaddingEi
_ZN12wxAuiToolBar20sm_eventTableEntriesE
_ZN12wxAuiToolBar22SetCustomOverflowItemsERK21wxAuiToolBarItemArrayS2_
_ZN12wxAuiToolBar22SetToolTextOrientationEi
_ZN12wxAuiToolBar4InitEv
_ZN12wxAuiToolBar4InitEv.cold
_ZN12wxAuiToolBar5ClearEv
_ZN12wxAuiToolBar6CreateEP8wxWindowiRK7wxPointRK6wxSizel
_ZN12wxAuiToolBar6CreateEP8wxWindowiRK7wxPointRK6wxSizel.cold
_ZN12wxAuiToolBar6OnIdleER11wxIdleEvent
_ZN12wxAuiToolBar6OnSizeER11wxSizeEvent
_ZN12wxAuiToolBar6OnSizeER11wxSizeEvent.cold
_ZN12wxAuiToolBar7AddToolEiRK8wxStringRK14wxBitmapBundleS2_10wxItemKind
_ZN12wxAuiToolBar7AddToolEiRK8wxStringRK14wxBitmapBundleS2_10wxItemKind.cold
_ZN12wxAuiToolBar7AddToolEiRK8wxStringRK14wxBitmapBundleS5_10wxItemKindS2_S2_P8wxObject
_ZN12wxAuiToolBar7AddToolEiRK8wxStringRK14wxBitmapBundleS5_10wxItemKindS2_S2_P8wxObject.cold
_ZN12wxAuiToolBar7OnPaintER12wxPaintEvent
_ZN12wxAuiToolBar7OnPaintER12wxPaintEvent.cold
_ZN12wxAuiToolBar7RealizeEv
_ZN12wxAuiToolBar7RealizeEv.cold
_ZN12wxAuiToolBar7SetFontERK6wxFont
_ZN12wxAuiToolBar8AddLabelEiRK8wxStringi
_ZN12wxAuiToolBar8AddLabelEiRK8wxStringi.cold
_ZN12wxAuiToolBar8OnLeftUpER12wxMouseEvent
_ZN12wxAuiToolBar8OnLeftUpER12wxMouseEvent.cold
_ZN12wxAuiToolBar8OnMotionER12wxMouseEvent
_ZN12wxAuiToolBar8OnMotionER12wxMouseEvent.cold
_ZN12wxAuiToolBar9AddSpacerEi
_ZN12wxAuiToolBar9AddSpacerEi.cold
_ZN12wxAuiToolBar9OnRightUpER12wxMouseEvent
_ZN12wxAuiToolBar9OnRightUpER12wxMouseEvent.cold
_ZN12wxAuiToolBarD0Ev
_ZN12wxAuiToolBarD1Ev
_ZN12wxAuiToolBarD2Ev
_ZN12wxBitmapBase10AddHandlerEP15wxBitmapHandler
_ZN12wxBitmapBase11FindHandlerE12wxBitmapType
_ZN12wxBitmapBase11FindHandlerERK8wxString
_ZN12wxBitmapBase11FindHandlerERK8wxString12wxBitmapType
_ZN12wxBitmapBase11sm_handlersE
_ZN12wxBitmapBase12CopyFromIconERK6wxIcon
_ZN12wxBitmapBase12ms_classInfoE
_ZN12wxBitmapBase13InsertHandlerEP15wxBitmapHandler
_ZN12wxBitmapBase13RemoveHandlerERK8wxString
_ZN12wxBitmapBase14SetScaleFactorEd
_ZN12wxBitmapBase15CleanUpHandlersEv
_ZN12wxBitmapBase8DoCreateERK6wxSizedi
_ZN12wxBitmapBase8UseAlphaEb
_ZN12wxBMPHandler12ms_classInfoE
_ZN12wxBMPHandler14wxCreateObjectEv
_ZN12wxBMPHandler14wxCreateObjectEv.cold
_ZN12wxBMPHandler7LoadDibEP7wxImageR13wxInputStreambb
_ZN12wxBMPHandler7LoadDibEP7wxImageR13wxInputStreambb.cold
_ZN12wxBMPHandler7SaveDibEP7wxImageR14wxOutputStreambbb
_ZN12wxBMPHandler7SaveDibEP7wxImageR14wxOutputStreambbb.cold
_ZN12wxBMPHandler8LoadFileEP7wxImageR13wxInputStreambi
_ZN12wxBMPHandler8SaveFileEP7wxImageR14wxOutputStreamb
_ZN12wxBMPHandler9DoCanReadER13wxInputStream
_ZN12wxBMPHandlerD0Ev
_ZN12wxBMPHandlerD1Ev
_ZN12wxBMPHandlerD2Ev
_ZN12wxBMPHandlerD5Ev
_ZN12wxBufferedDC12ms_classInfoE
_ZN12wxBufferedDC14wxCreateObjectEv
_ZN12wxBufferedDC14wxCreateObjectEv.cold
_ZN12wxBufferedDC6UnMaskEv
_ZN12wxBufferedDC9UseBufferEii
_ZN12wxBufferedDCD0Ev
_ZN12wxBufferedDCD1Ev
_ZN12wxBufferedDCD2Ev
_ZN12wxBufferedDCD5Ev
_ZN12wxBusyCursor13GetBusyCursorEv
_ZN12wxBusyCursor15GetStoredCursorEv
_ZN12wxButtonBase10SetDefaultEv
_ZN12wxButtonBase10SetDefaultEv.cold
_ZN12wxButtonBase14GetDefaultSizeEP8wxWindow
_ZN12wxButtonBaseD0Ev
_ZN12wxButtonBaseD1Ev
_ZN12wxButtonBaseD2Ev
_ZN12wxButtonBaseD5Ev
_ZN12wxCaretTimer6NotifyEv
_ZN12wxCaretTimerC1EP7wxCaret
_ZN12wxCaretTimerC2EP7wxCaret
_ZN12wxCaretTimerC2EP7wxCaret.cold
_ZN12wxCaretTimerD0Ev
_ZN12wxCaretTimerD1Ev
_ZN12wxCaretTimerD2Ev
_ZN12wxCaretTimerD5Ev
_ZN12wxChoiceBase10SetColumnsEi
_ZN12wxChoiceBase7CommandER14wxCommandEvent
_ZN12wxChoiceBaseD0Ev
_ZN12wxChoiceBaseD1Ev
_ZN12wxChoiceBaseD2Ev
_ZN12wxChoicebook10InsertPageEmP8wxWindowRK8wxStringbi
_ZN12wxChoicebook11SetPageTextEmRK8wxString
_ZN12wxChoicebook12DoRemovePageEm
_ZN12wxChoicebook12DoRemovePageEm.localalias
_ZN12wxChoicebook12ms_classInfoE
_ZN12wxChoicebook12SetImageListEP11wxImageList
_ZN12wxChoicebook12SetPageImageEmi
_ZN12wxChoicebook12SetSelectionEm
_ZN12wxChoicebook13sm_eventTableE
_ZN12wxChoicebook14DeleteAllPagesEv
_ZN12wxChoicebook14wxCreateObjectEv
_ZN12wxChoicebook14wxCreateObjectEv.cold
_ZN12wxChoicebook15ChangeSelectionEm
_ZN12wxChoicebook16MakeChangedEventER15wxBookCtrlEvent
_ZN12wxChoicebook16OnChoiceSelectedER14wxCommandEvent
_ZN12wxChoicebook17sm_eventHashTableE
_ZN12wxChoicebook18DoSetWindowVariantE15wxWindowVariant
_ZN12wxChoicebook18UpdateSelectedPageEm
_ZN12wxChoicebook20sm_eventTableEntriesE
_ZN12wxChoicebook6CreateEP8wxWindowiRK7wxPointRK6wxSizelRK8wxString
_ZN12wxChoicebook6CreateEP8wxWindowiRK7wxPointRK6wxSizelRK8wxString.cold
_ZN12wxChoicebookD0Ev
_ZN12wxChoicebookD1Ev
_ZN12wxChoicebookD2Ev
_ZN12wxChoicebookD5Ev
_ZN12wxClientBase12ms_classInfoE
_ZN12wxCloseEvent12ms_classInfoE
_ZN12wxCloseEvent14wxCreateObjectEv
_ZN12wxCloseEvent14wxCreateObjectEv.cold
_ZN12wxCloseEventD0Ev
_ZN12wxCloseEventD1Ev
_ZN12wxCloseEventD2Ev
_ZN12wxCloseEventD5Ev
_ZN12wxColourBase10AlphaBlendEhhd
_ZN12wxColourBase10FromStringERK8wxString
_ZN12wxColourBase10FromStringERK8wxString.cold
_ZN12wxColourBase12MakeDisabledEh
_ZN12wxColourBase12MakeDisabledEPhS0_S0_h
_ZN12wxColourBase15ChangeLightnessEPhS0_S0_i
_ZN12wxColourBase8MakeGreyEPhS0_S0_
_ZN12wxColourBase8MakeGreyEPhS0_S0_ddd
_ZN12wxColourBase8MakeMonoEPhS0_S0_b
_ZN12wxColourData10FromStringERK8wxString
_ZN12wxColourData10FromStringERK8wxString.cold
_ZN12wxColourData12ms_classInfoE
_ZN12wxColourData14wxCreateObjectEv
_ZN12wxColourData14wxCreateObjectEv.cold
_ZN12wxColourData15SetCustomColourEiRK8wxColour
_ZN12wxColourDataaSERKS_
_ZN12wxColourDataC1ERKS_
_ZN12wxColourDataC1Ev
_ZN12wxColourDataC2ERKS_
_ZN12wxColourDataC2ERKS_.cold
_ZN12wxColourDataC2Ev
_ZN12wxColourDataC2Ev.cold
_ZN12wxColourDataD0Ev
_ZN12wxColourDataD1Ev
_ZN12wxColourDataD2Ev
_ZN12wxComboPopup10LazyCreateEv
_ZN12wxComboPopup10LazyCreateEv.localalias
_ZN12wxComboPopup12DestroyPopupEv
_ZN12wxComboPopup14SetStringValueERK8wxString
_ZN12wxComboPopup15GetAdjustedSizeEiii
_ZN12wxComboPopup15GetAdjustedSizeEiii.localalias
_ZN12wxComboPopup15OnComboKeyEventER10wxKeyEvent
_ZN12wxComboPopup15OnComboKeyEventER10wxKeyEvent.localalias
_ZN12wxComboPopup16OnComboCharEventER10wxKeyEvent
_ZN12wxComboPopup17PaintComboControlER4wxDCRK6wxRect
_ZN12wxComboPopup18OnComboDoubleClickEv
_ZN12wxComboPopup24DefaultPaintComboControlEP15wxComboCtrlBaseR4wxDCRK6wxRect
_ZN12wxComboPopup24DefaultPaintComboControlEP15wxComboCtrlBaseR4wxDCRK6wxRect.cold
_ZN12wxComboPopup4InitEv
_ZN12wxComboPopup7DismissEv
_ZN12wxComboPopup7OnPopupEv
_ZN12wxComboPopup7OnPopupEv.localalias
_ZN12wxComboPopup8FindItemERK8wxStringPS0_
_ZN12wxComboPopup8FindItemERK8wxStringPS0_.localalias
_ZN12wxComboPopup9OnDismissEv
_ZN12wxComboPopupD0Ev
_ZN12wxComboPopupD1Ev
_ZN12wxComboPopupD2Ev
_ZN12wxConfigBase10ms_pConfigE
_ZN12wxConfigBase11DoWriteBoolERK8wxStringb
_ZN12wxConfigBase11DoWriteBoolERK8wxStringb.localalias
_ZN12wxConfigBase12ms_classInfoE
_ZN12wxConfigBase13DoWriteDoubleERK8wxStringd
_ZN12wxConfigBase13DoWriteDoubleERK8wxStringd.cold
_ZN12wxConfigBase14ms_bAutoCreateE
_ZN12wxConfigBase15DoWriteLongLongERK8wxStringx
_ZN12wxConfigBase15DoWriteLongLongERK8wxStringx.cold
_ZN12wxConfigBase23RemoveTrailingSeparatorERK8wxString
_ZN12wxConfigBase23RemoveTrailingSeparatorERK8wxString.cold
_ZN12wxConfigBase3SetEPS_
_ZN12wxConfigBase6CreateEv
_ZN12wxConfigBaseC1ERK8wxStringS2_S2_S2_l
_ZN12wxConfigBaseC2ERK8wxStringS2_S2_S2_l
_ZN12wxConfigBaseC2ERK8wxStringS2_S2_S2_l.cold
_ZN12wxConfigBaseD0Ev
_ZN12wxConfigBaseD1Ev
_ZN12wxConfigBaseD2Ev
_ZN12wxCURHandler12ms_classInfoE
_ZN12wxCURHandler14wxCreateObjectEv
_ZN12wxCURHandler14wxCreateObjectEv.cold
_ZN12wxCURHandler9DoCanReadER13wxInputStream
_ZN12wxCURHandlerC1Ev
_ZN12wxCURHandlerC2Ev
_ZN12wxCURHandlerC5Ev
_ZN12wxCURHandlerD0Ev
_ZN12wxCURHandlerD1Ev
_ZN12wxCURHandlerD2Ev
_ZN12wxCURHandlerD5Ev
_ZN12wxDataFormat14InitFromStringERK8wxString
_ZN12wxDataFormat14PrepareFormatsEv
_ZN12wxDataFormat5SetIdEP8_GdkAtom
_ZN12wxDataFormat5SetIdERK8wxString
_ZN12wxDataFormat5SetIdERK8wxString.cold
_ZN12wxDataFormat7SetTypeE14wxDataFormatId
_ZN12wxDataFormatC1E14wxDataFormatId
_ZN12wxDataFormatC1EP8_GdkAtom
_ZN12wxDataFormatC1Ev
_ZN12wxDataFormatC2E14wxDataFormatId
_ZN12wxDataFormatC2EP8_GdkAtom
_ZN12wxDataFormatC2Ev
_ZN12wxDataObjectC1Ev
_ZN12wxDataObjectC2Ev
_ZN12wxDataObjectD0Ev
_ZN12wxDataObjectD1Ev
_ZN12wxDataObjectD2Ev
_ZN12wxDialogBase10OnCharHookER10wxKeyEvent
_ZN12wxDialogBase11IsEscapeKeyERK10wxKeyEvent
_ZN12wxDialogBase11IsEscapeKeyERK10wxKeyEvent.localalias
_ZN12wxDialogBase11SetEscapeIdEi
_ZN12wxDialogBase13OnCloseWindowER12wxCloseEvent
_ZN12wxDialogBase13OnCloseWindowER12wxCloseEvent.cold
_ZN12wxDialogBase13sm_eventTableE
_ZN12wxDialogBase14AcceptAndCloseEv
_ZN12wxDialogBase15CreateTextSizerERK8wxStringi
_ZN12wxDialogBase15CreateTextSizerERK8wxStringR18wxTextSizerWrapperi
_ZN12wxDialogBase15CreateTextSizerERK8wxStringR18wxTextSizerWrapperi.cold
_ZN12wxDialogBase15ShowWindowModalEv
_ZN12wxDialogBase16SetAffirmativeIdEi
_ZN12wxDialogBase16SetLayoutAdapterEP21wxDialogLayoutAdapter
_ZN12wxDialogBase16sm_layoutAdapterE
_ZN12wxDialogBase17CreateButtonSizerEl
_ZN12wxDialogBase17sm_eventHashTableE
_ZN12wxDialogBase18DoLayoutAdaptationEv
_ZN12wxDialogBase18OnSysColourChangedER23wxSysColourChangedEvent
_ZN12wxDialogBase19sm_layoutAdaptationE
_ZN12wxDialogBase20CreateSeparatedSizerEP7wxSizer
_ZN12wxDialogBase20CreateSeparatedSizerEP7wxSizer.cold
_ZN12wxDialogBase20sm_eventTableEntriesE
_ZN12wxDialogBase21CanDoLayoutAdaptationEv
_ZN12wxDialogBase25SendCloseButtonClickEventEv
_ZN12wxDialogBase26CreateSeparatedButtonSizerEl
_ZN12wxDialogBase26CreateStdDialogButtonSizerEl
_ZN12wxDialogBase26CreateStdDialogButtonSizerEl.cold
_ZN12wxDialogBase26SendWindowModalDialogEventEi
_ZN12wxDialogBase26SendWindowModalDialogEventEi.cold
_ZN12wxDialogBase27EmulateButtonClickIfPresentEi
_ZN12wxDialogBase27EmulateButtonClickIfPresentEi.cold
_ZN12wxDialogBase8OnButtonER14wxCommandEvent
_ZN12wxDialogBase9EndDialogEi
_ZN12wxDialogBaseC1Ev
_ZN12wxDialogBaseC2Ev
_ZN12wxDialogBaseC2Ev.cold
_ZN12wxDialogBaseD0Ev
_ZN12wxDialogBaseD1Ev
_ZN12wxDialogBaseD2Ev
_ZN12wxDialogBaseD5Ev
_ZN12wxDLManifestixERK8wxString
_ZN12wxDocManager10CreateViewEP10wxDocumentl
_ZN12wxDocManager10CreateViewEP10wxDocumentl.cold
_ZN12wxDocManager10InitializeEv
_ZN12wxDocManager10InitializeEv.cold
_ZN12wxDocManager10OnFileOpenER14wxCommandEvent
_ZN12wxDocManager10OnFileOpenER14wxCommandEvent.cold
_ZN12wxDocManager10OnFileSaveER14wxCommandEvent
_ZN12wxDocManager11AddDocumentEP10wxDocument
_ZN12wxDocManager11OnFileCloseER14wxCommandEvent
_ZN12wxDocManager11OnPageSetupER14wxCommandEvent
_ZN12wxDocManager11OnPageSetupER14wxCommandEvent.cold
_ZN12wxDocManager12ActivateViewEP6wxViewb
_ZN12wxDocManager12ActivateViewEP6wxViewb.localalias
_ZN12wxDocManager12FindTemplateEPK11wxClassInfo
_ZN12wxDocManager12ms_classInfoE
_ZN12wxDocManager12OnFileRevertER14wxCommandEvent
_ZN12wxDocManager12OnFileSaveAsER14wxCommandEvent
_ZN12wxDocManager12OnUpdateRedoER15wxUpdateUIEvent
_ZN12wxDocManager12OnUpdateUndoER15wxUpdateUIEvent
_ZN12wxDocManager13CloseDocumentEP10wxDocumentb
_ZN12wxDocManager13DoOpenMRUFileEj
_ZN12wxDocManager13DoOpenMRUFileEj.cold
_ZN12wxDocManager13MatchTemplateERK8wxString
_ZN12wxDocManager13sm_docManagerE
_ZN12wxDocManager13sm_eventTableE
_ZN12wxDocManager14CloseDocumentsEb
_ZN12wxDocManager14CreateDocumentERK8wxStringl
_ZN12wxDocManager14CreateDocumentERK8wxStringl.cold
_ZN12wxDocManager14DeleteTemplateEP13wxDocTemplatel
_ZN12wxDocManager14MakeFrameTitleEP10wxDocument
_ZN12wxDocManager14MakeFrameTitleEP10wxDocument.cold
_ZN12wxDocManager14OnFileCloseAllER14wxCommandEvent
_ZN12wxDocManager14RemoveDocumentEP10wxDocument
_ZN12wxDocManager14SelectViewTypeEPP13wxDocTemplateib
_ZN12wxDocManager14SelectViewTypeEPP13wxDocTemplateib.cold
_ZN12wxDocManager14wxCreateObjectEv
_ZN12wxDocManager14wxCreateObjectEv.cold
_ZN12wxDocManager15FileHistoryLoadERK12wxConfigBase
_ZN12wxDocManager15FileHistorySaveER12wxConfigBase
_ZN12wxDocManager15OnUpdateFileNewER15wxUpdateUIEvent
_ZN12wxDocManager16AddFileToHistoryERK8wxString
_ZN12wxDocManager16AddFileToHistoryERK8wxString.localalias
_ZN12wxDocManager16OnUpdateFileOpenER15wxUpdateUIEvent
_ZN12wxDocManager16OnUpdateFileSaveER15wxUpdateUIEvent
_ZN12wxDocManager17AssociateTemplateEP13wxDocTemplate
_ZN12wxDocManager17OnMRUFileNotExistEjRK8wxString
_ZN12wxDocManager17OnMRUFileNotExistEjRK8wxString.cold
_ZN12wxDocManager17OnOpenFileFailureEv
_ZN12wxDocManager17sm_eventHashTableE
_ZN12wxDocManager18CreatePreviewFrameEP18wxPrintPreviewBaseP8wxWindowRK8wxString
_ZN12wxDocManager18CreatePreviewFrameEP18wxPrintPreviewBaseP8wxWindowRK8wxString.cold
_ZN12wxDocManager18FileHistoryUseMenuEP6wxMenu
_ZN12wxDocManager18OnUpdateFileRevertER15wxUpdateUIEvent
_ZN12wxDocManager18OnUpdateFileSaveAsER15wxUpdateUIEvent
_ZN12wxDocManager18SelectDocumentPathEPP13wxDocTemplateiR8wxStringlb
_ZN12wxDocManager18SelectDocumentPathEPP13wxDocTemplateiR8wxStringlb.cold
_ZN12wxDocManager18SelectDocumentTypeEPP13wxDocTemplateib
_ZN12wxDocManager18SelectDocumentTypeEPP13wxDocTemplateib.cold
_ZN12wxDocManager19FindTemplateForPathERK8wxString
_ZN12wxDocManager19MakeNewDocumentNameEv
_ZN12wxDocManager19MakeNewDocumentNameEv.cold
_ZN12wxDocManager19OnCreateFileHistoryEv
_ZN12wxDocManager19OnCreateFileHistoryEv.cold
_ZN12wxDocManager19OnCreateFileHistoryEv.localalias
_ZN12wxDocManager20DisassociateTemplateEP13wxDocTemplate
_ZN12wxDocManager20sm_eventTableEntriesE
_ZN12wxDocManager21FileHistoryRemoveMenuEP6wxMenu
_ZN12wxDocManager21RemoveFileFromHistoryEm
_ZN12wxDocManager21RemoveFileFromHistoryEm.localalias
_ZN12wxDocManager22OnUpdateDisableIfNoDocER15wxUpdateUIEvent
_ZN12wxDocManager25FileHistoryAddFilesToMenuEP6wxMenu
_ZN12wxDocManager25FileHistoryAddFilesToMenuEv
_ZN12wxDocManager5ClearEb
_ZN12wxDocManager6OnRedoER14wxCommandEvent
_ZN12wxDocManager6OnUndoER14wxCommandEvent
_ZN12wxDocManager7OnPrintER14wxCommandEvent
_ZN12wxDocManager7OnPrintER14wxCommandEvent.cold
_ZN12wxDocManager8FlushDocEP10wxDocument
_ZN12wxDocManager9OnFileNewER14wxCommandEvent
_ZN12wxDocManager9OnFileNewER14wxCommandEvent.cold
_ZN12wxDocManager9OnMRUFileER14wxCommandEvent
_ZN12wxDocManager9OnPreviewER14wxCommandEvent
_ZN12wxDocManager9OnPreviewER14wxCommandEvent.cold
_ZN12wxDocManager9TryBeforeER7wxEvent
_ZN12wxDocManagerC1Elb
_ZN12wxDocManagerC2Elb
_ZN12wxDocManagerC2Elb.cold
_ZN12wxDocManagerD0Ev
_ZN12wxDocManagerD1Ev
_ZN12wxDocManagerD2Ev
_ZN12wxDropSource10DoDragDropEi
_ZN12wxDropSource10DoDragDropEi.cold
_ZN12wxDropSource11PrepareIconEiP15_GdkDragContext
_ZN12wxDropSource21GTKConnectDragSignalsEv
_ZN12wxDropSource24GTKDisconnectDragSignalsEv
_ZN12wxDropSource8SetIconsERK6wxIconS2_S2_
_ZN12wxDropSource8SetIconsERK6wxIconS2_S2_.cold
_ZN12wxDropSourceC1EP8wxWindowRK6wxIconS4_S4_
_ZN12wxDropSourceC1ER12wxDataObjectP8wxWindowRK6wxIconS6_S6_
_ZN12wxDropSourceC2EP8wxWindowRK6wxIconS4_S4_
_ZN12wxDropSourceC2EP8wxWindowRK6wxIconS4_S4_.cold
_ZN12wxDropSourceC2ER12wxDataObjectP8wxWindowRK6wxIconS6_S6_
_ZN12wxDropSourceC2ER12wxDataObjectP8wxWindowRK6wxIconS6_S6_.cold
_ZN12wxDropSourceD0Ev
_ZN12wxDropSourceD1Ev
_ZN12wxDropSourceD2Ev
_ZN12wxDropTarget10OnDragOverEii12wxDragResult
_ZN12wxDropTarget10OnDragOverEii12wxDragResult.localalias
_ZN12wxDropTarget15GetMatchingPairEv
_ZN12wxDropTarget17GtkRegisterWidgetEP10_GtkWidget
_ZN12wxDropTarget18GTKGetMatchingPairEb
_ZN12wxDropTarget18GTKGetMatchingPairEb.cold
_ZN12wxDropTarget19GtkUnregisterWidgetEP10_GtkWidget
_ZN12wxDropTarget27GTKFigureOutSuggestedActionEv
_ZN12wxDropTarget6OnDataEii12wxDragResult
_ZN12wxDropTarget6OnDataEii12wxDragResult.localalias
_ZN12wxDropTarget6OnDropEii
_ZN12wxDropTarget6OnDropEii.localalias
_ZN12wxDropTarget7GetDataEv
_ZN12wxDropTargetC1EP12wxDataObject
_ZN12wxDropTargetC2EP12wxDataObject
_ZN12wxDropTargetD0Ev
_ZN12wxDropTargetD1Ev
_ZN12wxDropTargetD2Ev
_ZN12wxDropTargetD5Ev
_ZN12wxEraseEvent12ms_classInfoE
_ZN12wxEraseEvent14wxCreateObjectEv
_ZN12wxEraseEvent14wxCreateObjectEv.cold
_ZN12wxEraseEventD0Ev
_ZN12wxEraseEventD1Ev
_ZN12wxEraseEventD2Ev
_ZN12wxEraseEventD5Ev
_ZN12wxEvtHandler10DoTryChainER7wxEvent
_ZN12wxEvtHandler10DoTryChainER7wxEvent.cold
_ZN12wxEvtHandler10QueueEventEP7wxEvent
_ZN12wxEvtHandler10QueueEventEP7wxEvent.cold
_ZN12wxEvtHandler11TryHereOnlyER7wxEvent
_ZN12wxEvtHandler12ms_classInfoE
_ZN12wxEvtHandler12ProcessEventER7wxEvent
_ZN12wxEvtHandler12RemoveFilterEP13wxEventFilter
_ZN12wxEvtHandler13ms_filterListE
_ZN12wxEvtHandler13OnDynamicBindER24wxDynamicEventTableEntry
_ZN12wxEvtHandler13sm_eventTableE
_ZN12wxEvtHandler14SetNextHandlerEPS_
_ZN12wxEvtHandler14wxCreateObjectEv
_ZN12wxEvtHandler14wxCreateObjectEv.cold
_ZN12wxEvtHandler15AddPendingEventERK7wxEvent
_ZN12wxEvtHandler15DoSetClientDataEPv
_ZN12wxEvtHandler15OnSinkDestroyedEPS_
_ZN12wxEvtHandler16SearchEventTableER12wxEventTableR7wxEvent
_ZN12wxEvtHandler17DoSetClientObjectEP12wxClientData
_ZN12wxEvtHandler17sm_eventHashTableE
_ZN12wxEvtHandler18ProcessThreadEventERK7wxEvent
_ZN12wxEvtHandler18SafelyProcessEventER7wxEvent
_ZN12wxEvtHandler18SafelyProcessEventER7wxEvent.cold
_ZN12wxEvtHandler18SetPreviousHandlerEPS_
_ZN12wxEvtHandler18WXConsumeExceptionEv
_ZN12wxEvtHandler18WXConsumeExceptionEv.cold
_ZN12wxEvtHandler19DeletePendingEventsEv
_ZN12wxEvtHandler19ProcessEventLocallyER7wxEvent
_ZN12wxEvtHandler20FindRefInTrackerListEPS_
_ZN12wxEvtHandler20ProcessPendingEventsEv
_ZN12wxEvtHandler20ProcessPendingEventsEv.cold
_ZN12wxEvtHandler20sm_eventTableEntriesE
_ZN12wxEvtHandler21WXReservedEvtHandler1EPv
_ZN12wxEvtHandler21WXReservedEvtHandler2EPv
_ZN12wxEvtHandler23ProcessEventIfMatchesIdERK21wxEventTableEntryBasePS_R7wxEvent
_ZN12wxEvtHandler23SearchDynamicEventTableER7wxEvent
_ZN12wxEvtHandler6DoBindEiiiP14wxEventFunctorP8wxObject
_ZN12wxEvtHandler6DoBindEiiiP14wxEventFunctorP8wxObject.cold
_ZN12wxEvtHandler6UnlinkEv
_ZN12wxEvtHandler8DoTryAppER7wxEvent
_ZN12wxEvtHandler8DoUnbindEiiiRK14wxEventFunctorP8wxObject
_ZN12wxEvtHandler8TryAfterER7wxEvent
_ZN12wxEvtHandler9AddFilterEP13wxEventFilter
_ZN12wxEvtHandler9TryBeforeER7wxEvent
_ZN12wxEvtHandler9TryBeforeER7wxEvent.localalias
_ZN12wxEvtHandlerC1Ev
_ZN12wxEvtHandlerC2Ev
_ZN12wxEvtHandlerC2Ev.cold
_ZN12wxEvtHandlerD0Ev
_ZN12wxEvtHandlerD1Ev
_ZN12wxEvtHandlerD2Ev
_ZN12wxFileButton10OnDialogOKER14wxCommandEvent
_ZN12wxFileButton10OnDialogOKER14wxCommandEvent.cold
_ZN12wxFileButton12ms_classInfoE
_ZN12wxFileButton14wxCreateObjectEv
_ZN12wxFileButton14wxCreateObjectEv.cold
_ZN12wxFileButton15GetDialogParentEv
_ZN12wxFileButton18DoApplyWidgetStyleEP11_GtkRcStyle
_ZN12wxFileButton19SetInitialDirectoryERK8wxString
_ZN12wxFileButton6CreateEP8wxWindowiRK8wxStringS4_S4_S4_RK7wxPointRK6wxSizelRK11wxValidatorS4_
_ZN12wxFileButton7SetPathERK8wxString
_ZN12wxFileButton7SetPathERK8wxString.cold
_ZN12wxFileButtonD0Ev
_ZN12wxFileButtonD1Ev
_ZN12wxFileButtonD2Ev
_ZN12wxFileConfig11DeleteEntryERK8wxStringb
_ZN12wxFileConfig11DeleteEntryERK8wxStringb.cold
_ZN12wxFileConfig11DeleteGroupERK8wxString
_ZN12wxFileConfig11DeleteGroupERK8wxString.cold
_ZN12wxFileConfig11DoWriteLongERK8wxStringl
_ZN12wxFileConfig11DoWriteLongERK8wxStringl.cold
_ZN12wxFileConfig11GetLocalDirEi
_ZN12wxFileConfig11RenameEntryERK8wxStringS2_
_ZN12wxFileConfig11RenameEntryERK8wxStringS2_.cold
_ZN12wxFileConfig11RenameGroupERK8wxStringS2_
_ZN12wxFileConfig11SetRootPathEv
_ZN12wxFileConfig12GetGlobalDirEv
_ZN12wxFileConfig12GetLocalFileERK8wxStringi
_ZN12wxFileConfig12GetLocalFileERK8wxStringi.cold
_ZN12wxFileConfig12ms_classInfoE
_ZN12wxFileConfig13DoWriteBinaryERK8wxStringRK14wxMemoryBuffer
_ZN12wxFileConfig13DoWriteBinaryERK8wxStringRK14wxMemoryBuffer.cold
_ZN12wxFileConfig13DoWriteStringERK8wxStringS2_
_ZN12wxFileConfig13DoWriteStringERK8wxStringS2_.cold
_ZN12wxFileConfig13GetGlobalFileERK8wxString
_ZN12wxFileConfig13GetGlobalFileERK8wxString.cold
_ZN12wxFileConfig14LineListAppendERK8wxString
_ZN12wxFileConfig14LineListAppendERK8wxString.cold
_ZN12wxFileConfig14LineListInsertERK8wxStringP20wxFileConfigLineList
_ZN12wxFileConfig14LineListInsertERK8wxStringP20wxFileConfigLineList.cold
_ZN12wxFileConfig14LineListRemoveEP20wxFileConfigLineList
_ZN12wxFileConfig14LineListRemoveEP20wxFileConfigLineList.cold
_ZN12wxFileConfig15LineListIsEmptyEv
_ZN12wxFileConfig4InitEv
_ZN12wxFileConfig4InitEv.cold
_ZN12wxFileConfig4SaveER14wxOutputStreamRK8wxMBConv
_ZN12wxFileConfig4SaveER14wxOutputStreamRK8wxMBConv.cold
_ZN12wxFileConfig5FlushEb
_ZN12wxFileConfig5FlushEb.cold
_ZN12wxFileConfig5ParseERK12wxTextBufferb
_ZN12wxFileConfig5ParseERK12wxTextBufferb.cold
_ZN12wxFileConfig7CleanUpEv
_ZN12wxFileConfig7SetPathERK8wxString
_ZN12wxFileConfig7SetPathERK8wxString.localalias
_ZN12wxFileConfig9DeleteAllEv
_ZN12wxFileConfig9DeleteAllEv.cold
_ZN12wxFileConfig9DoSetPathERK8wxStringb
_ZN12wxFileConfig9DoSetPathERK8wxStringb.cold
_ZN12wxFileConfigC1ER13wxInputStreamRK8wxMBConv
_ZN12wxFileConfigC1ERK8wxStringS2_S2_S2_lRK8wxMBConv
_ZN12wxFileConfigC2ER13wxInputStreamRK8wxMBConv
_ZN12wxFileConfigC2ER13wxInputStreamRK8wxMBConv.cold
_ZN12wxFileConfigC2ERK8wxStringS2_S2_S2_lRK8wxMBConv
_ZN12wxFileConfigC2ERK8wxStringS2_S2_S2_lRK8wxMBConv.cold
_ZN12wxFileConfigD0Ev
_ZN12wxFileConfigD1Ev
_ZN12wxFileConfigD2Ev
_ZN12wxFileDialog10SetMessageERK8wxString
_ZN12wxFileDialog11AddChildGTKEP8wxWindow
_ZN12wxFileDialog11AddShortcutERK8wxStringi
_ZN12wxFileDialog11AddShortcutERK8wxStringi.cold
_ZN12wxFileDialog11SetFilenameERK8wxString
_ZN12wxFileDialog11SetFilenameERK8wxString.cold
_ZN12wxFileDialog11SetWildcardERK8wxString
_ZN12wxFileDialog11SetWildcardERK8wxString.cold
_ZN12wxFileDialog12ms_classInfoE
_ZN12wxFileDialog12SetDirectoryERK8wxString
_ZN12wxFileDialog13sm_eventTableE
_ZN12wxFileDialog14SetFilterIndexEi
_ZN12wxFileDialog14wxCreateObjectEv
_ZN12wxFileDialog14wxCreateObjectEv.cold
_ZN12wxFileDialog17sm_eventHashTableE
_ZN12wxFileDialog19GTKSelectionChangedERK8wxString
_ZN12wxFileDialog20sm_eventTableEntriesE
_ZN12wxFileDialog6CreateEP8wxWindowRK8wxStringS4_S4_S4_lRK7wxPointRK6wxSizeS4_
_ZN12wxFileDialog6CreateEP8wxWindowRK8wxStringS4_S4_S4_lRK7wxPointRK6wxSizeS4_.cold
_ZN12wxFileDialog6OnSizeER11wxSizeEvent
_ZN12wxFileDialog7SetPathERK8wxString
_ZN12wxFileDialog7SetPathERK8wxString.cold
_ZN12wxFileDialog8OnFakeOkER14wxCommandEvent
_ZN12wxFileDialog8OnFakeOkER14wxCommandEvent.cold
_ZN12wxFileDialog9DoSetSizeEiiiii
_ZN12wxFileDialog9ShowModalEv
_ZN12wxFileDialog9ShowModalEv.cold
_ZN12wxFileDialogC1EP8wxWindowRK8wxStringS4_S4_S4_lRK7wxPointRK6wxSizeS4_
_ZN12wxFileDialogC2EP8wxWindowRK8wxStringS4_S4_S4_lRK7wxPointRK6wxSizeS4_
_ZN12wxFileDialogC2EP8wxWindowRK8wxStringS4_S4_S4_lRK7wxPointRK6wxSizeS4_.cold
_ZN12wxFileDialogD0Ev
_ZN12wxFileDialogD1Ev
_ZN12wxFileDialogD2Ev
_ZN12wxFileStream9OnSysSeekEl10wxSeekMode
_ZN12wxFileStreamC1ERK8wxString
_ZN12wxFileStreamC2ERK8wxString
_ZN12wxFileStreamC2ERK8wxString.cold
_ZN12wxFileStreamD0Ev
_ZN12wxFileStreamD1Ev
_ZN12wxFileStreamD2Ev
_ZN12wxFileStreamD5Ev
_ZN12wxFileSystem10AddHandlerEP19wxFileSystemHandler
_ZN12wxFileSystem10m_HandlersE
_ZN12wxFileSystem12ChangePathToERK8wxStringb
_ZN12wxFileSystem12ChangePathToERK8wxStringb.cold
_ZN12wxFileSystem12ms_classInfoE
_ZN12wxFileSystem13FileNameToURLERK10wxFileName
_ZN12wxFileSystem13RemoveHandlerEP19wxFileSystemHandler
_ZN12wxFileSystem13URLToFileNameERK8wxString
_ZN12wxFileSystem14FindFileInPathEP8wxStringRKS0_S3_
_ZN12wxFileSystem14FindFileInPathEP8wxStringRKS0_S3_.cold
_ZN12wxFileSystem14wxCreateObjectEv
_ZN12wxFileSystem14wxCreateObjectEv.cold
_ZN12wxFileSystem15CleanUpHandlersEv
_ZN12wxFileSystem17HasHandlerForPathERK8wxString
_ZN12wxFileSystem17HasHandlerForPathERK8wxString.cold
_ZN12wxFileSystem8FindNextEv
_ZN12wxFileSystem8OpenFileERK8wxStringi
_ZN12wxFileSystem8OpenFileERK8wxStringi.cold
_ZN12wxFileSystem9FindFirstERK8wxStringi
_ZN12wxFileSystem9FindFirstERK8wxStringi.cold
_ZN12wxFileSystem9MakeLocalEP19wxFileSystemHandler
_ZN12wxFileSystemD0Ev
_ZN12wxFileSystemD1Ev
_ZN12wxFileSystemD2Ev
_ZN12wxFocusEvent12ms_classInfoE
_ZN12wxFocusEvent14wxCreateObjectEv
_ZN12wxFocusEvent14wxCreateObjectEv.cold
_ZN12wxFocusEventD0Ev
_ZN12wxFocusEventD1Ev
_ZN12wxFocusEventD2Ev
_ZN12wxFocusEventD5Ev
_ZN12wxFontButton10UpdateFontEv
_ZN12wxFontButton10UpdateFontEv.cold
_ZN12wxFontButton12ms_classInfoE
_ZN12wxFontButton14wxCreateObjectEv
_ZN12wxFontButton14wxCreateObjectEv.cold
_ZN12wxFontButton17SetNativeFontInfoEPKc
_ZN12wxFontButton17SetNativeFontInfoEPKc.cold
_ZN12wxFontButton17SetSelectedColourERK8wxColour
_ZN12wxFontButton6CreateEP8wxWindowiRK6wxFontRK7wxPointRK6wxSizelRK11wxValidatorRK8wxString
_ZN12wxFontButtonD0Ev
_ZN12wxFontButtonD1Ev
_ZN12wxFontButtonD2Ev
_ZN12wxFontDialog12ms_classInfoE
_ZN12wxFontDialog14wxCreateObjectEv
_ZN12wxFontDialog14wxCreateObjectEv.cold
_ZN12wxFontDialog8DoCreateEP8wxWindow
_ZN12wxFontDialog8DoCreateEP8wxWindow.cold
_ZN12wxFontDialogD0Ev
_ZN12wxFontDialogD1Ev
_ZN12wxFontDialogD2Ev
_ZN12wxFontMapper15TestAltEncodingERK8wxString14wxFontEncodingP20wxNativeEncodingInfo
_ZN12wxFontMapper15TestAltEncodingERK8wxString14wxFontEncodingP20wxNativeEncodingInfo.cold
_ZN12wxFontMapper17CharsetToEncodingERK8wxStringb
_ZN12wxFontMapper17CharsetToEncodingERK8wxStringb.cold
_ZN12wxFontMapper17GetAltForEncodingE14wxFontEncodingP20wxNativeEncodingInfoRK8wxStringb
_ZN12wxFontMapper17GetAltForEncodingE14wxFontEncodingP20wxNativeEncodingInfoRK8wxStringb.cold
_ZN12wxFontMapper17GetAltForEncodingE14wxFontEncodingPS0_RK8wxStringb
_ZN12wxFontMapper17GetAltForEncodingE14wxFontEncodingPS0_RK8wxStringb.cold
_ZN12wxFontMapper19IsEncodingAvailableE14wxFontEncodingRK8wxString
_ZN12wxFontMapper19IsEncodingAvailableE14wxFontEncodingRK8wxString.cold
_ZN12wxFontMapper3GetEv
_ZN12wxFontMapper7IsDummyEv
_ZN12wxFontMapperC1Ev
_ZN12wxFontMapperC2Ev
_ZN12wxFontMapperD0Ev
_ZN12wxFontMapperD1Ev
_ZN12wxFontMapperD2Ev
_ZN12wxGIFDecoder4dgifER13wxInputStreamP8GIFImageii
_ZN12wxGIFDecoder4dgifER13wxInputStreamP8GIFImageii.cold
_ZN12wxGIFDecoder4LoadER13wxInputStream
_ZN12wxGIFDecoder7DestroyEv
_ZN12wxGIFDecoder7getcodeER13wxInputStreamii
_ZN12wxGIFDecoder7LoadGIFER13wxInputStream
_ZN12wxGIFDecoder7LoadGIFER13wxInputStream.cold
_ZN12wxGIFDecoderC1Ev
_ZN12wxGIFDecoderC2Ev
_ZN12wxGIFDecoderD0Ev
_ZN12wxGIFDecoderD1Ev
_ZN12wxGIFDecoderD2Ev
_ZN12wxGIFHandler10DoSaveFileERK7wxImageP14wxOutputStreambbibPK5wxRGBii
_ZN12wxGIFHandler10DoSaveFileERK7wxImageP14wxOutputStreambbibPK5wxRGBii.cold
_ZN12wxGIFHandler12CompressLineEP14wxOutputStreamPKhi
_ZN12wxGIFHandler12ms_classInfoE
_ZN12wxGIFHandler13InitHashTableEv
_ZN12wxGIFHandler13SaveAnimationERK12wxImageArrayP14wxOutputStreambi
_ZN12wxGIFHandler13SetupCompressEP14wxOutputStreami
_ZN12wxGIFHandler14ClearHashTableEv
_ZN12wxGIFHandler14CompressOutputEP14wxOutputStreami
_ZN12wxGIFHandler14wxCreateObjectEv
_ZN12wxGIFHandler14wxCreateObjectEv.cold
_ZN12wxGIFHandler15DoGetImageCountER13wxInputStream
_ZN12wxGIFHandler15DoGetImageCountER13wxInputStream.cold
_ZN12wxGIFHandler15ExistsHashTableEm
_ZN12wxGIFHandler15InsertHashTableEmi
_ZN12wxGIFHandler8LoadFileEP7wxImageR13wxInputStreambi
_ZN12wxGIFHandler8LoadFileEP7wxImageR13wxInputStreambi.cold
_ZN12wxGIFHandler8SaveFileEP7wxImageR14wxOutputStreamb
_ZN12wxGIFHandler9DoCanReadER13wxInputStream
_ZN12wxGIFHandler9DoCanReadER13wxInputStream.cold
_ZN12wxGIFHandlerD0Ev
_ZN12wxGIFHandlerD1Ev
_ZN12wxGIFHandlerD2Ev
_ZN12wxGIFHandlerD5Ev
_ZN12wxGridWindow12OnMouseEventER12wxMouseEvent
_ZN12wxGridWindow12OnMouseWheelER12wxMouseEvent
_ZN12wxGridWindow12ScrollWindowEiiPK6wxRect
_ZN12wxGridWindow13sm_eventTableE
_ZN12wxGridWindow17sm_eventHashTableE
_ZN12wxGridWindow20sm_eventTableEntriesE
_ZN12wxGridWindow6OnCharER10wxKeyEvent
_ZN12wxGridWindow7OnFocusER12wxFocusEvent
_ZN12wxGridWindow7OnKeyUpER10wxKeyEvent
_ZN12wxGridWindow7OnPaintER12wxPaintEvent
_ZN12wxGridWindow7OnPaintER12wxPaintEvent.cold
_ZN12wxGridWindow9OnKeyDownER10wxKeyEvent
_ZN12wxGridWindowC1EP6wxGridNS_16wxGridWindowTypeE
_ZN12wxGridWindowC2EP6wxGridNS_16wxGridWindowTypeE
_ZN12wxGridWindowC5EP6wxGridNS_16wxGridWindowTypeE
_ZN12wxGridWindowD0Ev
_ZN12wxGridWindowD1Ev
_ZN12wxGridWindowD2Ev
_ZN12wxGridWindowD5Ev
_ZN12wxGTKCairoDCC1EP6_cairoP8wxWindow17wxLayoutDirectioni
_ZN12wxGTKCairoDCC2EP6_cairoP8wxWindow17wxLayoutDirectioni
_ZN12wxGTKCairoDCC2EP6_cairoP8wxWindow17wxLayoutDirectioni.cold
_ZN12wxGTKCairoDCD0Ev
_ZN12wxGTKCairoDCD1Ev
_ZN12wxGTKCairoDCD2Ev
_ZN12wxGTKCairoDCD5Ev
_ZN12wxGtkPrinter10BeginPrintEP10wxPrintoutP18_GtkPrintOperationP16_GtkPrintContext
_ZN12wxGtkPrinter10BeginPrintEP10wxPrintoutP18_GtkPrintOperationP16_GtkPrintContext.cold
_ZN12wxGtkPrinter11PrintDialogEP8wxWindow
_ZN12wxGtkPrinter11PrintDialogEP8wxWindow.cold
_ZN12wxGtkPrinter12ms_classInfoE
_ZN12wxGtkPrinter5PrintEP8wxWindowP10wxPrintoutb
_ZN12wxGtkPrinter5PrintEP8wxWindowP10wxPrintoutb.cold
_ZN12wxGtkPrinter5SetupEP8wxWindow
_ZN12wxGtkPrinter8DrawPageEP10wxPrintoutP18_GtkPrintOperationP16_GtkPrintContexti
_ZN12wxGtkPrinter8DrawPageEP10wxPrintoutP18_GtkPrintOperationP16_GtkPrintContexti.cold
_ZN12wxGtkPrinterC1EP17wxPrintDialogData
_ZN12wxGtkPrinterC2EP17wxPrintDialogData
_ZN12wxGtkPrinterC2EP17wxPrintDialogData.cold
_ZN12wxGtkPrinterD0Ev
_ZN12wxGtkPrinterD1Ev
_ZN12wxGtkPrinterD2Ev
_ZN12wxGTKPrivate13GetTreeWidgetEv
_ZN12wxGTKPrivate14GetEntryWidgetEv
_ZN12wxGTKPrivate15GetButtonWidgetEv
_ZN12wxGTKPrivate17GetComboBoxWidgetEv
_ZN12wxGTKPrivate17GetNotebookWidgetEv
_ZN12wxGTKPrivate17GetSplitterWidgetE13wxOrientation
_ZN12wxGTKPrivate18GetTextEntryWidgetEv
_ZN12wxGTKPrivate20GetCheckButtonWidgetEv
_ZN12wxGTKPrivate20GetRadioButtonWidgetEv
_ZN12wxGTKPrivate20WidgetsCleanupModule12ms_classInfoE
_ZN12wxGTKPrivate20WidgetsCleanupModule14wxCreateObjectEv
_ZN12wxGTKPrivate20WidgetsCleanupModule6OnExitEv
_ZN12wxGTKPrivate20WidgetsCleanupModule6OnInitEv
_ZN12wxGTKPrivate20WidgetsCleanupModuleD0Ev
_ZN12wxGTKPrivate20WidgetsCleanupModuleD1Ev
_ZN12wxGTKPrivate20WidgetsCleanupModuleD2Ev
_ZN12wxGTKPrivate20WidgetsCleanupModuleD5Ev
_ZN12wxGTKPrivate21GetHeaderButtonWidgetEv
_ZN12wxGTKPrivate25GetHeaderButtonWidgetLastEv
_ZN12wxGTKPrivate26GetHeaderButtonWidgetFirstEv
_ZN12wxGTKPrivateL12GetContainerEv
_ZN12wxGTKPrivateL12gs_containerE
_ZN12wxGTKPrivateL13s_last_buttonE
_ZN12wxGTKPrivateL14s_first_buttonE
_ZN12wxGTKPrivateL14s_other_buttonE
_ZN12wxGTKPrivateL19CreateHeaderButtonsEv
_ZN12wxHeaderCtrl10DoSetCountEj
_ZN12wxHeaderCtrl10RefreshColEj
_ZN12wxHeaderCtrl11EndDraggingEv
_ZN12wxHeaderCtrl11EndResizingEi
_ZN12wxHeaderCtrl11EndResizingEi.cold
_ZN12wxHeaderCtrl12ClearMarkersEv
_ZN12wxHeaderCtrl12ClearMarkersEv.cold
_ZN12wxHeaderCtrl12DoScrollHorzEi
_ZN12wxHeaderCtrl13EndReorderingEi
_ZN12wxHeaderCtrl13EndReorderingEi.cold
_ZN12wxHeaderCtrl13OnCaptureLostER23wxMouseCaptureLostEvent
_ZN12wxHeaderCtrl13sm_eventTableE
_ZN12wxHeaderCtrl14CancelDraggingEv
_ZN12wxHeaderCtrl14CancelDraggingEv.cold
_ZN12wxHeaderCtrl15StartReorderingEji
_ZN12wxHeaderCtrl15StartReorderingEji.cold
_ZN12wxHeaderCtrl16RefreshColsAfterEj
_ZN12wxHeaderCtrl17DoSetColumnsOrderERK10wxArrayInt
_ZN12wxHeaderCtrl17sm_eventHashTableE
_ZN12wxHeaderCtrl19ConstrainByMinWidthEjRi
_ZN12wxHeaderCtrl19RefreshColIfNotNoneEj
_ZN12wxHeaderCtrl20sm_eventTableEntriesE
_ZN12wxHeaderCtrl22UpdateReorderingMarkerEi
_ZN12wxHeaderCtrl22UpdateReorderingMarkerEi.cold
_ZN12wxHeaderCtrl23StartOrContinueResizingEji
_ZN12wxHeaderCtrl23StartOrContinueResizingEji.cold
_ZN12wxHeaderCtrl4InitEv
_ZN12wxHeaderCtrl6CreateEP8wxWindowiRK7wxPointRK6wxSizelRK8wxString
_ZN12wxHeaderCtrl7OnMouseER12wxMouseEvent
_ZN12wxHeaderCtrl7OnMouseER12wxMouseEvent.cold
_ZN12wxHeaderCtrl7OnPaintER12wxPaintEvent
_ZN12wxHeaderCtrl7OnPaintER12wxPaintEvent.cold
_ZN12wxHeaderCtrl8DoUpdateEj
_ZN12wxHeaderCtrl9DoMoveColEjj
_ZN12wxHeaderCtrl9OnKeyDownER10wxKeyEvent
_ZN12wxHeaderCtrlD0Ev
_ZN12wxHeaderCtrlD1Ev
_ZN12wxHeaderCtrlD2Ev
_ZN12wxHtmlFilter12ms_classInfoE
_ZN12wxHtmlParser10DoneParserEv
_ZN12wxHtmlParser10DoneParserEv.localalias
_ZN12wxHtmlParser10InitParserERK8wxString
_ZN12wxHtmlParser10InitParserERK8wxString.localalias
_ZN12wxHtmlParser11StopParsingEv
_ZN12wxHtmlParser12ms_classInfoE
_ZN12wxHtmlParser12RestoreStateEv
_ZN12wxHtmlParser12RestoreStateEv.localalias
_ZN12wxHtmlParser12RestoreStateEv.part.0
_ZN12wxHtmlParser13AddTagHandlerEP16wxHtmlTagHandler
_ZN12wxHtmlParser13AddTagHandlerEP16wxHtmlTagHandler.cold
_ZN12wxHtmlParser13CreateDOMTreeEv
_ZN12wxHtmlParser13CreateDOMTreeEv.cold
_ZN12wxHtmlParser13PopTagHandlerEv
_ZN12wxHtmlParser14DestroyDOMTreeEv
_ZN12wxHtmlParser14GetInnerSourceERK9wxHtmlTag
_ZN12wxHtmlParser14PushTagHandlerEP16wxHtmlTagHandlerRK8wxString
_ZN12wxHtmlParser14PushTagHandlerEP16wxHtmlTagHandlerRK8wxString.cold
_ZN12wxHtmlParser14SkipCommentTagERN8wxString14const_iteratorES1_
_ZN12wxHtmlParser16CreateDOMSubTreeEP9wxHtmlTagRKN8wxString14const_iteratorES5_P15wxHtmlTagsCache
_ZN12wxHtmlParser16CreateDOMSubTreeEP9wxHtmlTagRKN8wxString14const_iteratorES5_P15wxHtmlTagsCache.cold
_ZN12wxHtmlParser16CreateDOMSubTreeEP9wxHtmlTagRKN8wxString14const_iteratorES5_P15wxHtmlTagsCache.localalias
_ZN12wxHtmlParser21SetSourceAndSaveStateERK8wxString
_ZN12wxHtmlParser25ExtractCharsetInformationERK8wxString
_ZN12wxHtmlParser25ExtractCharsetInformationERK8wxString.cold
_ZN12wxHtmlParser5ParseERK8wxString
_ZN12wxHtmlParser6AddTagERK9wxHtmlTag
_ZN12wxHtmlParser9DoParsingERKN8wxString14const_iteratorES3_
_ZN12wxHtmlParser9DoParsingERKN8wxString14const_iteratorES3_.cold
_ZN12wxHtmlParser9DoParsingEv
_ZN12wxHtmlParser9SetSourceERK8wxString
_ZN12wxHtmlParser9SetSourceERK8wxString.cold
_ZN12wxHtmlParserC1Ev
_ZN12wxHtmlParserC2Ev
_ZN12wxHtmlParserC2Ev.cold
_ZN12wxHtmlParserD0Ev
_ZN12wxHtmlParserD1Ev
_ZN12wxHtmlParserD2Ev
_ZN12wxHtmlWindow10OnSetTitleERK8wxString
_ZN12wxHtmlWindow10OnSetTitleERK8wxString.cold
_ZN12wxHtmlWindow10SelectLineERK7wxPoint
_ZN12wxHtmlWindow10SelectWordERK7wxPoint
_ZN12wxHtmlWindow11HistoryBackEv
_ZN12wxHtmlWindow11HistoryBackEv.cold
_ZN12wxHtmlWindow11OnMouseDownER12wxMouseEvent
_ZN12wxHtmlWindow11OnMouseMoveER12wxMouseEvent
_ZN12wxHtmlWindow12AddProcessorEP15wxHtmlProcessor
_ZN12wxHtmlWindow12AddProcessorEP15wxHtmlProcessor.cold
_ZN12wxHtmlWindow12AppendToPageERK8wxString
_ZN12wxHtmlWindow12AppendToPageERK8wxString.cold
_ZN12wxHtmlWindow12CreateLayoutEv
_ZN12wxHtmlWindow12CreateLayoutEv.cold
_ZN12wxHtmlWindow12HistoryClearEv
_ZN12wxHtmlWindow12ms_classInfoE
_ZN12wxHtmlWindow12OnDPIChangedER17wxDPIChangedEvent
_ZN12wxHtmlWindow12OnDPIChangedER17wxDPIChangedEvent.cold
_ZN12wxHtmlWindow12OnFocusEventER12wxFocusEvent
_ZN12wxHtmlWindow12OnMouseEnterER12wxMouseEvent
_ZN12wxHtmlWindow12OnMouseLeaveER12wxMouseEvent
_ZN12wxHtmlWindow12OnMouseLeaveER12wxMouseEvent.cold
_ZN12wxHtmlWindow13CopySelectionENS_13ClipboardTypeE
_ZN12wxHtmlWindow13CopySelectionENS_13ClipboardTypeE.cold
_ZN12wxHtmlWindow13GetHTMLWindowEv
_ZN12wxHtmlWindow13ms_cursorLinkE
_ZN12wxHtmlWindow13ms_cursorTextE
_ZN12wxHtmlWindow13OnDoubleClickER12wxMouseEvent
_ZN12wxHtmlWindow13OnLinkClickedERK14wxHtmlLinkInfo
_ZN12wxHtmlWindow13OnLinkClickedERK14wxHtmlLinkInfo.cold
_ZN12wxHtmlWindow13sm_eventTableE
_ZN12wxHtmlWindow14CleanUpStaticsEv
_ZN12wxHtmlWindow14HistoryCanBackEv
_ZN12wxHtmlWindow14HistoryForwardEv
_ZN12wxHtmlWindow14HistoryForwardEv.cold
_ZN12wxHtmlWindow14OnInternalIdleEv
_ZN12wxHtmlWindow14ScrollToAnchorERK8wxString
_ZN12wxHtmlWindow14ScrollToAnchorERK8wxString.cold
_ZN12wxHtmlWindow14wxCreateObjectEv
_ZN12wxHtmlWindow14wxCreateObjectEv.cold
_ZN12wxHtmlWindow15m_DefaultFilterE
_ZN12wxHtmlWindow15SetRelatedFrameEP7wxFrameRK8wxString
_ZN12wxHtmlWindow15SetRelatedFrameEP7wxFrameRK8wxString.cold
_ZN12wxHtmlWindow16GetDefaultFilterEv
_ZN12wxHtmlWindow16ms_cursorDefaultE
_ZN12wxHtmlWindow16OnClipboardEventER20wxClipboardTextEvent
_ZN12wxHtmlWindow16SetStandardFontsEiRK8wxStringS2_
_ZN12wxHtmlWindow17DoEraseBackgroundER4wxDC
_ZN12wxHtmlWindow17DoEraseBackgroundER4wxDC.cold
_ZN12wxHtmlWindow17DoSelectionToTextEP15wxHtmlSelection
_ZN12wxHtmlWindow17DoSelectionToTextEP15wxHtmlSelection.cold
_ZN12wxHtmlWindow17HistoryCanForwardEv
_ZN12wxHtmlWindow17OnEraseBackgroundER12wxEraseEvent
_ZN12wxHtmlWindow17OnHTMLLinkClickedERK14wxHtmlLinkInfo
_ZN12wxHtmlWindow17ReadCustomizationEP12wxConfigBase8wxString
_ZN12wxHtmlWindow17ReadCustomizationEP12wxConfigBase8wxString.cold
_ZN12wxHtmlWindow17SetHTMLStatusTextERK8wxString
_ZN12wxHtmlWindow17sm_eventHashTableE
_ZN12wxHtmlWindow17StopAutoScrollingEv
_ZN12wxHtmlWindow18AddGlobalProcessorEP15wxHtmlProcessor
_ZN12wxHtmlWindow18AddGlobalProcessorEP15wxHtmlProcessor.cold
_ZN12wxHtmlWindow18m_GlobalProcessorsE
_ZN12wxHtmlWindow18OnMouseCaptureLostER23wxMouseCaptureLostEvent
_ZN12wxHtmlWindow18SetHTMLWindowTitleERK8wxString
_ZN12wxHtmlWindow18WriteCustomizationEP12wxConfigBase8wxString
_ZN12wxHtmlWindow18WriteCustomizationEP12wxConfigBase8wxString.cold
_ZN12wxHtmlWindow19SetRelatedStatusBarEi
_ZN12wxHtmlWindow19SetRelatedStatusBarEP11wxStatusBari
_ZN12wxHtmlWindow20GetDefaultHTMLCursorEN21wxHtmlWindowInterface10HTMLCursorE
_ZN12wxHtmlWindow20GetDefaultHTMLCursorEN21wxHtmlWindowInterface10HTMLCursorE.cold
_ZN12wxHtmlWindow20SetDefaultHTMLCursorEN21wxHtmlWindowInterface10HTMLCursorERK8wxCursor
_ZN12wxHtmlWindow20sm_eventTableEntriesE
_ZN12wxHtmlWindow22SetHTMLBackgroundImageERK14wxBitmapBundle
_ZN12wxHtmlWindow23SetHTMLBackgroundColourERK8wxColour
_ZN12wxHtmlWindow4InitEv
_ZN12wxHtmlWindow4InitEv.cold
_ZN12wxHtmlWindow6CreateEP8wxWindowiRK7wxPointRK6wxSizelRK8wxString
_ZN12wxHtmlWindow6CreateEP8wxWindowiRK7wxPointRK6wxSizelRK8wxString.cold
_ZN12wxHtmlWindow6OnCopyER14wxCommandEvent
_ZN12wxHtmlWindow6OnSizeER11wxSizeEvent
_ZN12wxHtmlWindow6ToTextEv
_ZN12wxHtmlWindow7OnKeyUpER10wxKeyEvent
_ZN12wxHtmlWindow7OnKeyUpER10wxKeyEvent.cold
_ZN12wxHtmlWindow7OnPaintER12wxPaintEvent
_ZN12wxHtmlWindow7OnPaintER12wxPaintEvent.cold
_ZN12wxHtmlWindow7SetPageERK8wxString
_ZN12wxHtmlWindow7SetPageERK8wxString.localalias
_ZN12wxHtmlWindow8LoadFileERK10wxFileName
_ZN12wxHtmlWindow8LoadFileERK10wxFileName.cold
_ZN12wxHtmlWindow8LoadPageERK8wxString
_ZN12wxHtmlWindow8LoadPageERK8wxString.cold
_ZN12wxHtmlWindow8SetFontsERK8wxStringS2_PKi
_ZN12wxHtmlWindow9AddFilterEP12wxHtmlFilter
_ZN12wxHtmlWindow9DoSetPageERK8wxString
_ZN12wxHtmlWindow9DoSetPageERK8wxString.cold
_ZN12wxHtmlWindow9m_FiltersE
_ZN12wxHtmlWindow9OnMouseUpER12wxMouseEvent
_ZN12wxHtmlWindow9SelectAllEv
_ZN12wxHtmlWindowC1EP8wxWindowiRK7wxPointRK6wxSizelRK8wxString
_ZN12wxHtmlWindowC2EP8wxWindowiRK7wxPointRK6wxSizelRK8wxString
_ZN12wxHtmlWindowC5EP8wxWindowiRK7wxPointRK6wxSizelRK8wxString
_ZN12wxHtmlWindowD0Ev
_ZN12wxHtmlWindowD1Ev
_ZN12wxHtmlWindowD2Ev
_ZN12wxHTTPStream9OnSysReadEPvm
_ZN12wxHTTPStreamD0Ev
_ZN12wxHTTPStreamD1Ev
_ZN12wxHTTPStreamD2Ev
_ZN12wxHTTPStreamD5Ev
_ZN12wxICOHandler10DoLoadFileEP7wxImageR13wxInputStreambi
_ZN12wxICOHandler10DoLoadFileEP7wxImageR13wxInputStreambi.cold
_ZN12wxICOHandler12ms_classInfoE
_ZN12wxICOHandler14wxCreateObjectEv
_ZN12wxICOHandler14wxCreateObjectEv.cold
_ZN12wxICOHandler15DoGetImageCountER13wxInputStream
_ZN12wxICOHandler8LoadFileEP7wxImageR13wxInputStreambi
_ZN12wxICOHandler8SaveFileEP7wxImageR14wxOutputStreamb
_ZN12wxICOHandler8SaveFileEP7wxImageR14wxOutputStreamb.cold
_ZN12wxICOHandler9DoCanReadER13wxInputStream
_ZN12wxICOHandlerD0Ev
_ZN12wxICOHandlerD1Ev
_ZN12wxICOHandlerD2Ev
_ZN12wxICOHandlerD5Ev
_ZN12wxIconBundle11DeleteIconsEv
_ZN12wxIconBundle12ms_classInfoE
_ZN12wxIconBundle14wxCreateObjectEv
_ZN12wxIconBundle14wxCreateObjectEv.cold
_ZN12wxIconBundle7AddIconER13wxInputStream12wxBitmapType
_ZN12wxIconBundle7AddIconER13wxInputStream12wxBitmapType.cold
_ZN12wxIconBundle7AddIconERK6wxIcon
_ZN12wxIconBundle7AddIconERK8wxString12wxBitmapType
_ZN12wxIconBundle7AddIconERK8wxString12wxBitmapType.cold
_ZN12wxIconBundleC1ER13wxInputStream12wxBitmapType
_ZN12wxIconBundleC1ERK6wxIcon
_ZN12wxIconBundleC1ERK8wxString12wxBitmapType
_ZN12wxIconBundleC1Ev
_ZN12wxIconBundleC2ER13wxInputStream12wxBitmapType
_ZN12wxIconBundleC2ER13wxInputStream12wxBitmapType.cold
_ZN12wxIconBundleC2ERK6wxIcon
_ZN12wxIconBundleC2ERK6wxIcon.cold
_ZN12wxIconBundleC2ERK8wxString12wxBitmapType
_ZN12wxIconBundleC2ERK8wxString12wxBitmapType.cold
_ZN12wxIconBundleC2Ev
_ZN12wxIconBundleD0Ev
_ZN12wxIconBundleD1Ev
_ZN12wxIconBundleD2Ev
_ZN12wxIconBundleD5Ev
_ZN12wxIFFDecoder7CanReadEv
_ZN12wxIFFDecoder7DestroyEv
_ZN12wxIFFDecoder7ReadIFFEv
_ZN12wxIFFDecoder7ReadIFFEv.cold
_ZN12wxIFFDecoderC1EP13wxInputStream
_ZN12wxIFFDecoderC2EP13wxInputStream
_ZN12wxIFFHandler12ms_classInfoE
_ZN12wxIFFHandler14wxCreateObjectEv
_ZN12wxIFFHandler14wxCreateObjectEv.cold
_ZN12wxIFFHandler8LoadFileEP7wxImageR13wxInputStreambi
_ZN12wxIFFHandler8LoadFileEP7wxImageR13wxInputStreambi.cold
_ZN12wxIFFHandler8SaveFileEP7wxImageR14wxOutputStreamb
_ZN12wxIFFHandler8SaveFileEP7wxImageR14wxOutputStreamb.cold
_ZN12wxIFFHandler9DoCanReadER13wxInputStream
_ZN12wxIFFHandler9DoCanReadER13wxInputStream.cold
_ZN12wxIFFHandlerD0Ev
_ZN12wxIFFHandlerD1Ev
_ZN12wxIFFHandlerD2Ev
_ZN12wxIFFHandlerD5Ev
_ZN12wxMarkupText6RenderER4wxDCRK6wxRecti
_ZN12wxMarkupText6RenderER4wxDCRK6wxRecti.cold
_ZN12wxMarkupTextD0Ev
_ZN12wxMarkupTextD1Ev
_ZN12wxMarkupTextD2Ev
_ZN12wxMarkupTextD5Ev
_ZN12wxMBConvLibcD0Ev
_ZN12wxMBConvLibcD1Ev
_ZN12wxMBConvLibcD2Ev
_ZN12wxMBConvLibcD5Ev
_ZN12wxMBConvUTF7D0Ev
_ZN12wxMBConvUTF7D1Ev
_ZN12wxMBConvUTF7D2Ev
_ZN12wxMBConvUTF7D5Ev
_ZN12wxMBConvUTF8D0Ev
_ZN12wxMBConvUTF8D1Ev
_ZN12wxMBConvUTF8D2Ev
_ZN12wxMBConvUTF8D5Ev
_ZN12wxMemoryText6OnOpenERK8wxStringN12wxTextBuffer20wxTextBufferOpenModeE
_ZN12wxMemoryText6OnReadERK8wxMBConv
_ZN12wxMemoryText7OnCloseEv
_ZN12wxMemoryText7OnWriteE14wxTextFileTypeRK8wxMBConv
_ZN12wxMemoryTextD0Ev
_ZN12wxMemoryTextD1Ev
_ZN12wxMemoryTextD2Ev
_ZN12wxMemoryTextD5Ev
_ZN12wxMouseEvent12ms_classInfoE
_ZN12wxMouseEvent14wxCreateObjectEv
_ZN12wxMouseEvent14wxCreateObjectEv.cold
_ZN12wxMouseEvent6AssignERKS_
_ZN12wxMouseEventC1Ei
_ZN12wxMouseEventC2Ei
_ZN12wxMouseEventD0Ev
_ZN12wxMouseEventD1Ev
_ZN12wxMouseEventD2Ev
_ZN12wxMouseEventD5Ev
_ZN12wxMsgCatalog14CreateFromDataERK22wxScopedCharTypeBufferIcERK8wxString
_ZN12wxMsgCatalog14CreateFromDataERK22wxScopedCharTypeBufferIcERK8wxString.cold
_ZN12wxMsgCatalog14CreateFromFileERK8wxStringS2_
_ZN12wxMsgCatalog14CreateFromFileERK8wxStringS2_.cold
_ZN12wxObjectList10CreateNodeEP10wxNodeBaseS1_PvRK9wxListKey
_ZN12wxObjectListD0Ev
_ZN12wxObjectListD1Ev
_ZN12wxObjectListD2Ev
_ZN12wxObjectListD5Ev
_ZN12wxPaintEvent12ms_classInfoE
_ZN12wxPaintEvent14wxCreateObjectEv
_ZN12wxPaintEvent14wxCreateObjectEv.cold
_ZN12wxPaintEventC1EP12wxWindowBase
_ZN12wxPaintEventC2EP12wxWindowBase
_ZN12wxPaintEventD0Ev
_ZN12wxPaintEventD1Ev
_ZN12wxPaintEventD2Ev
_ZN12wxPaintEventD5Ev
_ZN12wxPCXHandler12ms_classInfoE
_ZN12wxPCXHandler14wxCreateObjectEv
_ZN12wxPCXHandler14wxCreateObjectEv.cold
_ZN12wxPCXHandler8LoadFileEP7wxImageR13wxInputStreambi
_ZN12wxPCXHandler8LoadFileEP7wxImageR13wxInputStreambi.cold
_ZN12wxPCXHandler8SaveFileEP7wxImageR14wxOutputStreamb
_ZN12wxPCXHandler8SaveFileEP7wxImageR14wxOutputStreamb.cold
_ZN12wxPCXHandler9DoCanReadER13wxInputStream
_ZN12wxPCXHandlerD0Ev
_ZN12wxPCXHandlerD1Ev
_ZN12wxPCXHandlerD2Ev
_ZN12wxPCXHandlerD5Ev
_ZN12wxPenRefDataD0Ev
_ZN12wxPenRefDataD1Ev
_ZN12wxPenRefDataD2Ev
_ZN12wxPenRefDataD5Ev
_ZN12wxPGCellDataC1Ev
_ZN12wxPGCellDataC2Ev
_ZN12wxPGCellDataC2Ev.cold
_ZN12wxPGCellDataD0Ev
_ZN12wxPGCellDataD1Ev
_ZN12wxPGCellDataD2Ev
_ZN12wxPGCellDataD5Ev
_ZN12wxPGComboBox16PositionTextCtrlEii
_ZN12wxPGComboBoxD0Ev
_ZN12wxPGComboBoxD1Ev
_ZN12wxPGComboBoxD2Ev
_ZN12wxPGComboBoxD5Ev
_ZN12wxPGProperty10ClearCellsEjb
_ZN12wxPGProperty10DoAddChildEPS_ib
_ZN12wxPGProperty10OnDetachedEP23wxPropertyGridPageStateP14wxPropertyGrid
_ZN12wxPGProperty10OnSetValueEv
_ZN12wxPGProperty10SetChoicesERK11wxPGChoices
_ZN12wxPGProperty10SetChoicesERK11wxPGChoices.cold
_ZN12wxPGProperty11EnsureCellsEj
_ZN12wxPGProperty11EnsureCellsEj.cold
_ZN12wxPGProperty11InsertChildEiPS_
_ZN12wxPGProperty11RemoveChildEj
_ZN12wxPGProperty11RemoveChildEPS_
_ZN12wxPGProperty12DeleteChoiceEi
_ZN12wxPGProperty12DeleteChoiceEi.cold
_ZN12wxPGProperty12InsertChoiceERK8wxStringii
_ZN12wxPGProperty12ms_classInfoE
_ZN12wxPGProperty12SetAttributeERK8wxString9wxVariant
_ZN12wxPGProperty12SetMaxLengthEi
_ZN12wxPGProperty12SortChildrenEPFiPPS_S1_E
_ZN12wxPGProperty13DoPreAddChildEiPS_
_ZN12wxPGProperty13OnCustomPaintER4wxDCRK6wxRectR13wxPGPaintData
_ZN12wxPGProperty13OnCustomPaintER4wxDCRK6wxRectR13wxPGPaintData.cold
_ZN12wxPGProperty13RefreshEditorEv
_ZN12wxPGProperty13SetAttributesERK20wxPGAttributeStorage
_ZN12wxPGProperty13SetAttributesERK20wxPGAttributeStorage.cold
_ZN12wxPGProperty13SetTextColourERK8wxColouri
_ZN12wxPGProperty13SetTextColourERK8wxColouri.cold
_ZN12wxPGProperty13SetValueImageERK14wxBitmapBundle
_ZN12wxPGProperty13SetValueImageERK14wxBitmapBundle.cold
_ZN12wxPGProperty13sm_wxPG_LABELE
_ZN12wxPGProperty14DeleteChildrenEv
_ZN12wxPGProperty14DoSetAttributeERK8wxStringR9wxVariant
_ZN12wxPGProperty14GetDisplayInfoEjiiP8wxStringP8wxPGCell
_ZN12wxPGProperty14GetDisplayInfoEjiiP8wxStringP8wxPGCell.cold
_ZN12wxPGProperty14GetDisplayInfoEjiiP8wxStringPPK8wxPGCell
_ZN12wxPGProperty14InitAfterAddedEP23wxPropertyGridPageStateP14wxPropertyGrid
_ZN12wxPGProperty14InitAfterAddedEP23wxPropertyGridPageStateP14wxPropertyGrid.localalias
_ZN12wxPGProperty14RecreateEditorEv
_ZN12wxPGProperty15AdaptiveSetCellEjjRK8wxPGCellS2_P12wxPGCellDatajb
_ZN12wxPGProperty15AdaptiveSetCellEjjRK8wxPGCellS2_P12wxPGCellDatajb.localalias
_ZN12wxPGProperty15AddPrivateChildEPS_
_ZN12wxPGProperty15GetOrCreateCellEj
_ZN12wxPGProperty15RefreshChildrenEv
_ZN12wxPGProperty15SetDefaultValueER9wxVariant
_ZN12wxPGProperty15SetDefaultValueER9wxVariant.cold
_ZN12wxPGProperty15SetValueFromIntEli
_ZN12wxPGProperty15SetValueFromIntEli.cold
_ZN12wxPGProperty15SubPropsChangedEi
_ZN12wxPGProperty17SetDefaultColoursEi
_ZN12wxPGProperty18SetChoiceSelectionEi
_ZN12wxPGProperty18SetChoiceSelectionEi.cold
_ZN12wxPGProperty18SetFlagRecursivelyE17wxPGPropertyFlagsb
_ZN12wxPGProperty18SetFlagRecursivelyE17wxPGPropertyFlagsb.localalias
_ZN12wxPGProperty18SetFlagsFromStringERK8wxString
_ZN12wxPGProperty18SetFlagsFromStringERK8wxString.cold
_ZN12wxPGProperty18SetValueFromStringERK8wxStringi
_ZN12wxPGProperty18SetValueFromStringERK8wxStringi.cold
_ZN12wxPGProperty18UpdateParentValuesEv
_ZN12wxPGProperty18UpdateParentValuesEv.cold
_ZN12wxPGProperty18UpdateParentValuesEv.localalias
_ZN12wxPGProperty19OnValidationFailureER9wxVariant
_ZN12wxPGProperty19SetBackgroundColourERK8wxColouri
_ZN12wxPGProperty19SetBackgroundColourERK8wxColouri.cold
_ZN12wxPGProperty20FixIndicesOfChildrenEj
_ZN12wxPGProperty4HideEbi
_ZN12wxPGProperty4HideEbi.cold
_ZN12wxPGProperty4InitERK8wxStringS2_
_ZN12wxPGProperty4InitEv
_ZN12wxPGProperty5EmptyEv
_ZN12wxPGProperty6DoHideEbi
_ZN12wxPGProperty6DoHideEbi.localalias
_ZN12wxPGProperty6EnableEb
_ZN12wxPGProperty6EnableEb.cold
_ZN12wxPGProperty7OnEventEP14wxPropertyGridP8wxWindowR7wxEvent
_ZN12wxPGProperty7SetCellEiRK8wxPGCell
_ZN12wxPGProperty7SetNameERK8wxString
_ZN12wxPGProperty7SetNameERK8wxString.cold
_ZN12wxPGProperty8DoEnableEb
_ZN12wxPGProperty8DoEnableEb.localalias
_ZN12wxPGProperty8SetLabelERK8wxString
_ZN12wxPGProperty8SetValueE9wxVariantPS0_i
_ZN12wxPGProperty8SetValueE9wxVariantPS0_i.cold
_ZN12wxPGProperty8SetValueE9wxVariantPS0_i.localalias
_ZN12wxPGProperty9SetEditorERK8wxString
_ZN12wxPGPropertyC1ERK8wxStringS2_
_ZN12wxPGPropertyC1Ev
_ZN12wxPGPropertyC2ERK8wxStringS2_
_ZN12wxPGPropertyC2ERK8wxStringS2_.cold
_ZN12wxPGPropertyC2Ev
_ZN12wxPGPropertyC2Ev.cold
_ZN12wxPGPropertyD0Ev
_ZN12wxPGPropertyD1Ev
_ZN12wxPGPropertyD2Ev
_ZN12wxPickerBase10CreateBaseEP8wxWindowiRK8wxStringRK7wxPointRK6wxSizelRK11wxValidatorS4_
_ZN12wxPickerBase10CreateBaseEP8wxWindowiRK8wxStringRK7wxPointRK6wxSizelRK11wxValidatorS4_.cold
_ZN12wxPickerBase12DoSetToolTipEP9wxToolTip
_ZN12wxPickerBase12DoSetToolTipEP9wxToolTip.cold
_ZN12wxPickerBase12ms_classInfoE
_ZN12wxPickerBase12PostCreationEv
_ZN12wxPickerBase12PostCreationEv.cold
_ZN12wxPickerBase16OnTextCtrlDeleteER20wxWindowDestroyEvent
_ZN12wxPickerBase16OnTextCtrlUpdateER14wxCommandEvent
_ZN12wxPickerBase19OnTextCtrlKillFocusER12wxFocusEvent
_ZN12wxPickerBase20DoSetGrowableFlagForEP11wxSizerItemb
_ZN12wxPNGHandler12ms_classInfoE
_ZN12wxPNGHandler14wxCreateObjectEv
_ZN12wxPNGHandler14wxCreateObjectEv.cold
_ZN12wxPNGHandler21GetLibraryVersionInfoEv
_ZN12wxPNGHandler21GetLibraryVersionInfoEv.cold
_ZN12wxPNGHandler8LoadFileEP7wxImageR13wxInputStreambi
_ZN12wxPNGHandler8LoadFileEP7wxImageR13wxInputStreambi.cold
_ZN12wxPNGHandler8SaveFileEP7wxImageR14wxOutputStreamb
_ZN12wxPNGHandler8SaveFileEP7wxImageR14wxOutputStreamb.cold
_ZN12wxPNGHandler9DoCanReadER13wxInputStream
_ZN12wxPNGHandlerC1Ev
_ZN12wxPNGHandlerC2Ev
_ZN12wxPNGHandlerC5Ev
_ZN12wxPNGHandlerD0Ev
_ZN12wxPNGHandlerD1Ev
_ZN12wxPNGHandlerD2Ev
_ZN12wxPNGHandlerD5Ev
_ZN12wxPNMHandler12ms_classInfoE
_ZN12wxPNMHandler14wxCreateObjectEv
_ZN12wxPNMHandler14wxCreateObjectEv.cold
_ZN12wxPNMHandler8LoadFileEP7wxImageR13wxInputStreambi
_ZN12wxPNMHandler8LoadFileEP7wxImageR13wxInputStreambi.cold
_ZN12wxPNMHandler8SaveFileEP7wxImageR14wxOutputStreamb
_ZN12wxPNMHandler8SaveFileEP7wxImageR14wxOutputStreamb.cold
_ZN12wxPNMHandler9DoCanReadER13wxInputStream
_ZN12wxPNMHandlerC1Ev
_ZN12wxPNMHandlerC2Ev
_ZN12wxPNMHandlerC5Ev
_ZN12wxPNMHandlerD0Ev
_ZN12wxPNMHandlerD1Ev
_ZN12wxPNMHandlerD2Ev
_ZN12wxPNMHandlerD5Ev
_ZN12wxPoint2DInt14SetVectorAngleEd
_ZN12wxPoint2DInt8ReadFromER17wxDataInputStream
_ZN12wxRefCounter6DecRefEv
_ZN12wxRefCounterD0Ev
_ZN12wxRefCounterD1Ev
_ZN12wxRefCounterD2Ev
_ZN12wxRefCounterD5Ev
_ZN12wxRegionBase5UnionERK8wxBitmap
_ZN12wxRegionBase5UnionERK8wxBitmap.cold
_ZN12wxRegionBase5UnionERK8wxBitmapRK8wxColouri
_ZN12wxRegionBase5UnionERK8wxBitmapRK8wxColouri.cold
_ZN12wxRibbonPage10CommonInitERK8wxStringRK8wxBitmap
_ZN12wxRibbonPage11RemoveChildEP12wxWindowBase
_ZN12wxRibbonPage11ScrollLinesEi
_ZN12wxRibbonPage12ExpandPanelsE13wxOrientationi
_ZN12wxRibbonPage12ms_classInfoE
_ZN12wxRibbonPage12ScrollPixelsEi
_ZN12wxRibbonPage13sm_eventTableE
_ZN12wxRibbonPage14CollapsePanelsE13wxOrientationi
_ZN12wxRibbonPage14DoActualLayoutEv
_ZN12wxRibbonPage14HideIfExpandedEv
_ZN12wxRibbonPage14ScrollSectionsEi
_ZN12wxRibbonPage14SetArtProviderEP19wxRibbonArtProvider
_ZN12wxRibbonPage17HideScrollButtonsEv
_ZN12wxRibbonPage17OnEraseBackgroundER12wxEraseEvent
_ZN12wxRibbonPage17ShowScrollButtonsEv
_ZN12wxRibbonPage17ShowScrollButtonsEv.cold
_ZN12wxRibbonPage17sm_eventHashTableE
_ZN12wxRibbonPage20DismissExpandedPanelEv
_ZN12wxRibbonPage20sm_eventTableEntriesE
_ZN12wxRibbonPage21PopulateSizeCalcArrayEM8wxWindowKF6wxSizevE
_ZN12wxRibbonPage21PopulateSizeCalcArrayEM8wxWindowKF6wxSizevE.cold
_ZN12wxRibbonPage33SetSizeWithScrollButtonAdjustmentEiiii
_ZN12wxRibbonPage4ShowEb
_ZN12wxRibbonPage6CreateEP11wxRibbonBariRK8wxStringRK8wxBitmapl
_ZN12wxRibbonPage6CreateEP11wxRibbonBariRK8wxStringRK8wxBitmapl.cold
_ZN12wxRibbonPage6LayoutEv
_ZN12wxRibbonPage6LayoutEv.localalias
_ZN12wxRibbonPage6OnSizeER11wxSizeEvent
_ZN12wxRibbonPage6OnSizeER11wxSizeEvent.cold
_ZN12wxRibbonPage7OnPaintER12wxPaintEvent
_ZN12wxRibbonPage7OnPaintER12wxPaintEvent.cold
_ZN12wxRibbonPage7RealizeEv
_ZN12wxRibbonPage9DoSetSizeEiiiii
_ZN12wxRibbonPageC1EP11wxRibbonBariRK8wxStringRK8wxBitmapl
_ZN12wxRibbonPageC1Ev
_ZN12wxRibbonPageC2EP11wxRibbonBariRK8wxStringRK8wxBitmapl
_ZN12wxRibbonPageC2EP11wxRibbonBariRK8wxStringRK8wxBitmapl.cold
_ZN12wxRibbonPageC2Ev
_ZN12wxRibbonPageD0Ev
_ZN12wxRibbonPageD1Ev
_ZN12wxRibbonPageD2Ev
_ZN12wxSashWindow10DrawSashesER4wxDC
_ZN12wxSashWindow11DrawBordersER4wxDC
_ZN12wxSashWindow11DrawBordersER4wxDC.cold
_ZN12wxSashWindow11InitColoursEv
_ZN12wxSashWindow11InitColoursEv.cold
_ZN12wxSashWindow11SashHitTestEiii
_ZN12wxSashWindow11SizeWindowsEv
_ZN12wxSashWindow11SizeWindowsEv.cold
_ZN12wxSashWindow12ms_classInfoE
_ZN12wxSashWindow12OnMouseEventER12wxMouseEvent
_ZN12wxSashWindow12OnMouseEventER12wxMouseEvent.cold
_ZN12wxSashWindow13sm_eventTableE
_ZN12wxSashWindow14SetSashVisibleE18wxSashEdgePositionb
_ZN12wxSashWindow14wxCreateObjectEv
_ZN12wxSashWindow14wxCreateObjectEv.cold
_ZN12wxSashWindow15DrawSashTrackerE18wxSashEdgePositionii
_ZN12wxSashWindow15DrawSashTrackerE18wxSashEdgePositionii.cold
_ZN12wxSashWindow15SetMaximumSizeXEi
_ZN12wxSashWindow15SetMaximumSizeYEi
_ZN12wxSashWindow15SetMinimumSizeXEi
_ZN12wxSashWindow15SetMinimumSizeYEi
_ZN12wxSashWindow17sm_eventHashTableE
_ZN12wxSashWindow20sm_eventTableEntriesE
_ZN12wxSashWindow4InitEv
_ZN12wxSashWindow4InitEv.cold
_ZN12wxSashWindow6CreateEP8wxWindowiRK7wxPointRK6wxSizelRK8wxString
_ZN12wxSashWindow6OnSizeER11wxSizeEvent
_ZN12wxSashWindow7OnPaintER12wxPaintEvent
_ZN12wxSashWindow7OnPaintER12wxPaintEvent.cold
_ZN12wxSashWindow8DrawSashE18wxSashEdgePositionR4wxDC
_ZN12wxSashWindow8DrawSashE18wxSashEdgePositionR4wxDC.cold
_ZN12wxSashWindowD0Ev
_ZN12wxSashWindowD1Ev
_ZN12wxSashWindowD2Ev
_ZN12wxSearchCtrl11OnTextEnterER14wxCommandEvent
_ZN12wxSearchCtrl11OnTextEnterER14wxCommandEvent.cold
_ZN12wxSearchCtrl12ms_classInfoE
_ZN12wxSearchCtrl13sm_eventTableE
_ZN12wxSearchCtrl14wxCreateObjectEv
_ZN12wxSearchCtrl14wxCreateObjectEv.cold
_ZN12wxSearchCtrl15PopupSearchMenuEv
_ZN12wxSearchCtrl16ShowCancelButtonEb
_ZN12wxSearchCtrl16ShowSearchButtonEb
_ZN12wxSearchCtrl17sm_eventHashTableE
_ZN12wxSearchCtrl18SetDescriptiveTextERK8wxString
_ZN12wxSearchCtrl20sm_eventTableEntriesE
_ZN12wxSearchCtrl26GTKCreateSearchEntryWidgetEv
_ZN12wxSearchCtrl4InitEv
_ZN12wxSearchCtrl5ClearEv
_ZN12wxSearchCtrl6CreateEP8wxWindowiRK8wxStringRK7wxPointRK6wxSizelRK11wxValidatorS4_
_ZN12wxSearchCtrl6CreateEP8wxWindowiRK8wxStringRK7wxPointRK6wxSizelRK11wxValidatorS4_.cold
_ZN12wxSearchCtrl6OnCharER10wxKeyEvent
_ZN12wxSearchCtrl6OnCharER10wxKeyEvent.cold
_ZN12wxSearchCtrl6OnTextER14wxCommandEvent
_ZN12wxSearchCtrl7GetMenuEv
_ZN12wxSearchCtrl7SetMenuEP6wxMenu
_ZN12wxSearchCtrlD0Ev
_ZN12wxSearchCtrlD1Ev
_ZN12wxSearchCtrlD2Ev
_ZN12wxSelectSets11ms_handlersE
_ZN12wxSelectSets5SetFDEii
_ZN12wxSelectSets6SelectEiP7timeval
_ZN12wxSelectSets8ms_flagsE
_ZN12wxSelectSets8ms_namesE
_ZN12wxSelectSetsC1Ev
_ZN12wxSelectSetsC2Ev
_ZN12wxServerBase12ms_classInfoE
_ZN12wxSimplebook10DoShowPageEP8wxWindowb
_ZN12wxSimplebook10InsertPageEmP8wxWindowRK8wxStringbi
_ZN12wxSimplebook11SetPageTextEmRK8wxString
_ZN12wxSimplebook12DoRemovePageEm
_ZN12wxSimplebook12SetPageImageEmi
_ZN12wxSimplebook12SetSelectionEm
_ZN12wxSimplebook15ChangeSelectionEm
_ZN12wxSimplebook16MakeChangedEventER15wxBookCtrlEvent
_ZN12wxSimplebook18UpdateSelectedPageEm
_ZN12wxSimplebook6DoSizeEv
_ZN12wxSimplebook8SetFocusEv
_ZN12wxSimplebookD0Ev
_ZN12wxSimplebookD1Ev
_ZN12wxSimplebookD2Ev
_ZN12wxSimplebookD5Ev
_ZN12wxSizerFlags24DisableConsistencyChecksEv
_ZN12wxSliderBase12SetSelectionEii
_ZN12wxSliderBase8ClearSelEv
_ZN12wxSocketBase10InitializeEv
_ZN12wxSocketBase10SetTimeoutEl
_ZN12wxSocketBase11GetPushbackEPvjb
_ZN12wxSocketBase11WaitForLostEll
_ZN12wxSocketBase11WaitForReadEll
_ZN12wxSocketBase12ms_classInfoE
_ZN12wxSocketBase12RestoreStateEv
_ZN12wxSocketBase12WaitForWriteEll
_ZN12wxSocketBase13IsInitializedEv
_ZN12wxSocketBase14ShutdownOutputEv
_ZN12wxSocketBase15SetEventHandlerER12wxEvtHandleri
_ZN12wxSocketBase23GetBlockingFlagIfNeededEv
_ZN12wxSocketBase4InitEv
_ZN12wxSocketBase4InitEv.cold
_ZN12wxSocketBase4PeekEPvj
_ZN12wxSocketBase4PeekEPvj.cold
_ZN12wxSocketBase4ReadEPvj
_ZN12wxSocketBase4ReadEPvj.cold
_ZN12wxSocketBase4WaitEll
_ZN12wxSocketBase5CloseEv
_ZN12wxSocketBase5CloseEv.localalias
_ZN12wxSocketBase5WriteEPKvj
_ZN12wxSocketBase5WriteEPKvj.cold
_ZN12wxSocketBase6DoReadEPvj
_ZN12wxSocketBase6DoWaitEli
_ZN12wxSocketBase6DoWaitElli
_ZN12wxSocketBase6NotifyEb
_ZN12wxSocketBase6UnreadEPKvj
_ZN12wxSocketBase7DestroyEv
_ZN12wxSocketBase7DiscardEv
_ZN12wxSocketBase7DiscardEv.cold
_ZN12wxSocketBase7DoWriteEPKvj
_ZN12wxSocketBase7ReadMsgEPvj
_ZN12wxSocketBase7ReadMsgEPvj.cold
_ZN12wxSocketBase8PushbackEPKvj
_ZN12wxSocketBase8SetErrorE13wxSocketError
_ZN12wxSocketBase8SetFlagsEi
_ZN12wxSocketBase8SetLocalERK13wxIPV4address
_ZN12wxSocketBase8ShutdownEv
_ZN12wxSocketBase8WriteMsgEPKvj
_ZN12wxSocketBase8WriteMsgEPKvj.cold
_ZN12wxSocketBase9GetOptionEiiPvPi
_ZN12wxSocketBase9OnRequestE14wxSocketNotify
_ZN12wxSocketBase9OnRequestE14wxSocketNotify.cold
_ZN12wxSocketBase9SaveStateEv
_ZN12wxSocketBase9SetNotifyEi
_ZN12wxSocketBase9SetOptionEiiPKvi
_ZN12wxSocketBaseC1Ei12wxSocketType
_ZN12wxSocketBaseC1Ev
_ZN12wxSocketBaseC2Ei12wxSocketType
_ZN12wxSocketBaseC2Ei12wxSocketType.cold
_ZN12wxSocketBaseC2Ev
_ZN12wxSocketBaseC2Ev.cold
_ZN12wxSocketBaseD0Ev
_ZN12wxSocketBaseD1Ev
_ZN12wxSocketBaseD2Ev
_ZN12wxSocketImpl10RecvStreamEPvi
_ZN12wxSocketImpl10SendStreamEPKvi
_ZN12wxSocketImpl10SetTimeoutEm
_ZN12wxSocketImpl12CreateClientEb
_ZN12wxSocketImpl12CreateServerEv
_ZN12wxSocketImpl12PostCreationEv
_ZN12wxSocketImpl14PreCreateCheckERK17wxSockAddressImpl
_ZN12wxSocketImpl18UpdateLocalAddressEv
_ZN12wxSocketImpl19NotifyOnStateChangeE14wxSocketNotify
_ZN12wxSocketImpl4ReadEPvi
_ZN12wxSocketImpl5CloseEv
_ZN12wxSocketImpl5WriteEPKvi
_ZN12wxSocketImpl6AcceptER12wxSocketBase
_ZN12wxSocketImpl6AcceptER12wxSocketBase.cold
_ZN12wxSocketImpl6SelectEiP7timeval
_ZN12wxSocketImpl7SetPeerERK17wxSockAddressImpl
_ZN12wxSocketImpl8GetLocalEv
_ZN12wxSocketImpl8SetLocalERK17wxSockAddressImpl
_ZN12wxSocketImpl8ShutdownEv
_ZN12wxSocketImpl9CreateUDPEv
_ZN12wxSocketImpl9RecvDgramEPvi
_ZN12wxSocketImpl9SendDgramEPKvi
_ZN12wxSocketImplC1ER12wxSocketBase
_ZN12wxSocketImplC2ER12wxSocketBase
_ZN12wxSocketImplC2ER12wxSocketBase.cold
_ZN12wxSocketImplD0Ev
_ZN12wxSocketImplD1Ev
_ZN12wxSocketImplD2Ev
_ZN12wxSpinButton12ms_classInfoE
_ZN12wxSpinButton14wxCreateObjectEv
_ZN12wxSpinButton14wxCreateObjectEv.cold
_ZN12wxSpinButton25GetClassDefaultAttributesE15wxWindowVariant
_ZN12wxSpinButton6CreateEP8wxWindowiRK7wxPointRK6wxSizelRK8wxString
_ZN12wxSpinButton8DoEnableEb
_ZN12wxSpinButton8SetRangeEii
_ZN12wxSpinButton8SetValueEi
_ZN12wxSpinButtonC1Ev
_ZN12wxSpinButtonC2Ev
_ZN12wxSpinButtonD0Ev
_ZN12wxSpinButtonD1Ev
_ZN12wxSpinButtonD2Ev
_ZN12wxSpinButtonD5Ev
_ZN12wxStackFrame9OnGetNameEv
_ZN12wxStackFrame9OnGetNameEv.cold
_ZN12wxStackFrameD0Ev
_ZN12wxStackFrameD1Ev
_ZN12wxStackFrameD2Ev
_ZN12wxStackFrameD5Ev
_ZN12wxStaticLine12ms_classInfoE
_ZN12wxStaticLine14wxCreateObjectEv
_ZN12wxStaticLine14wxCreateObjectEv.cold
_ZN12wxStaticLine25GetClassDefaultAttributesE15wxWindowVariant
_ZN12wxStaticLine6CreateEP8wxWindowiRK7wxPointRK6wxSizelRK8wxString
_ZN12wxStaticLineC1EP8wxWindowiRK7wxPointRK6wxSizelRK8wxString
_ZN12wxStaticLineC1Ev
_ZN12wxStaticLineC2EP8wxWindowiRK7wxPointRK6wxSizelRK8wxString
_ZN12wxStaticLineC2EP8wxWindowiRK7wxPointRK6wxSizelRK8wxString.cold
_ZN12wxStaticLineC2Ev
_ZN12wxStaticLineD0Ev
_ZN12wxStaticLineD1Ev
_ZN12wxStaticLineD2Ev
_ZN12wxStaticLineD5Ev
_ZN12wxStaticText12ms_classInfoE
_ZN12wxStaticText13GTKDoSetLabelEMS_FvP9_GtkLabelRK8wxStringES4_
_ZN12wxStaticText14wxCreateObjectEv
_ZN12wxStaticText14wxCreateObjectEv.cold
_ZN12wxStaticText16DoSetLabelMarkupERK8wxString
_ZN12wxStaticText16DoSetLabelMarkupERK8wxString.cold
_ZN12wxStaticText17WXSetVisibleLabelERK8wxString
_ZN12wxStaticText22GTKWidgetDoSetMnemonicEP10_GtkWidget
_ZN12wxStaticText25GetClassDefaultAttributesE15wxWindowVariant
_ZN12wxStaticText6CreateEP8wxWindowiRK8wxStringRK7wxPointRK6wxSizelS4_
_ZN12wxStaticText7SetFontERK6wxFont
_ZN12wxStaticText7SetFontERK6wxFont.cold
_ZN12wxStaticText8SetLabelERK8wxString
_ZN12wxStaticTextC1EP8wxWindowiRK8wxStringRK7wxPointRK6wxSizelS4_
_ZN12wxStaticTextC1Ev
_ZN12wxStaticTextC2EP8wxWindowiRK8wxStringRK7wxPointRK6wxSizelS4_
_ZN12wxStaticTextC2EP8wxWindowiRK8wxStringRK7wxPointRK6wxSizelS4_.cold
_ZN12wxStaticTextC2Ev
_ZN12wxStaticTextD0Ev
_ZN12wxStaticTextD1Ev
_ZN12wxStaticTextD2Ev
_ZN12wxStaticTextD5Ev
_ZN12wxSTCCallTip10OnLeftDownER12wxMouseEvent
_ZN12wxSTCCallTip6OnSizeER11wxSizeEvent
_ZN12wxSTCCallTip7OnPaintER12wxPaintEvent
_ZN12wxSTCCallTip7RefreshEbPK6wxRect
_ZN12wxSTCCallTip8DrawBackERK6wxSize
_ZN12wxSTCCallTipC1EP8wxWindowP7CallTipP11ScintillaWX
_ZN12wxSTCCallTipC2EP8wxWindowP7CallTipP11ScintillaWX
_ZN12wxSTCCallTipC5EP8wxWindowP7CallTipP11ScintillaWX
_ZN12wxSTCCallTipD0Ev
_ZN12wxSTCCallTipD1Ev
_ZN12wxSTCCallTipD2Ev
_ZN12wxSTCCallTipD5Ev
_ZN12wxSTCListBox11OnSelectionER14wxCommandEvent
_ZN12wxSTCListBox12AppendHelperERK8wxStringi
_ZN12wxSTCListBox12OnDPIChangedER17wxDPIChangedEvent
_ZN12wxSTCListBox12OnDPIChangedER17wxDPIChangedEvent.cold
_ZN12wxSTCListBox12SelectHelperEi
_ZN12wxSTCListBox12SelectHelperEi.cold
_ZN12wxSTCListBox13OnMouseMotionER12wxMouseEvent
_ZN12wxSTCListBox14SetListBoxFontER4Font
_ZN12wxSTCListBox14SetListBoxFontER4Font.cold
_ZN12wxSTCListBox18OnMouseLeaveWindowER12wxMouseEvent
_ZN12wxSTCListBox18OnSysColourChangedER23wxSysColourChangedEvent
_ZN12wxSTCListBox19SetAverageCharWidthEi
_ZN12wxSTCListBox20SetDoubleClickActionEPFvPvES0_
_ZN12wxSTCListBox21RecalculateItemHeightEv
_ZN12wxSTCListBox22SetContainerBorderSizeEi
_ZN12wxSTCListBox5ClearEv
_ZN12wxSTCListBox6AppendEPci
_ZN12wxSTCListBox6AppendEPci.cold
_ZN12wxSTCListBox6SelectEi
_ZN12wxSTCListBox7SetListEPKccc
_ZN12wxSTCListBox7SetListEPKccc.cold
_ZN12wxSTCListBox8OnDClickER14wxCommandEvent
_ZN12wxSTCListBox8SetFocusEv
_ZN12wxSTCListBoxC1EP8wxWindowP22wxSTCListBoxVisualDatai
_ZN12wxSTCListBoxC2EP8wxWindowP22wxSTCListBoxVisualDatai
_ZN12wxSTCListBoxC2EP8wxWindowP22wxSTCListBoxVisualDatai.cold
_ZN12wxSTCListBoxD0Ev
_ZN12wxSTCListBoxD1Ev
_ZN12wxSTCListBoxD2Ev
_ZN12wxSTCListBoxD5Ev
_ZN12wxStreamBase12ms_classInfoE
_ZN12wxStreamBase9OnSysSeekEl10wxSeekMode
_ZN12wxStreamBaseC1Ev
_ZN12wxStreamBaseC2Ev
_ZN12wxStreamBaseD0Ev
_ZN12wxStreamBaseD1Ev
_ZN12wxStreamBaseD2Ev
_ZN12wxStringHash10stringHashEPKc
_ZN12wxStringHash10stringHashEPKw
_ZN12wxStringList3AddEPKw
_ZN12wxStringList3AddEPKw.cold
_ZN12wxStringList4SortEv
_ZN12wxStringList4SortEv.cold
_ZN12wxStringList6DeleteEPKw
_ZN12wxStringList6DoCopyERKS_
_ZN12wxStringList7PrependEPKw
_ZN12wxStringList7PrependEPKw.cold
_ZN12wxStringListC1EPKwz
_ZN12wxStringListC1Ev
_ZN12wxStringListC2EPKwz
_ZN12wxStringListC2EPKwz.cold
_ZN12wxStringListC2Ev
_ZN12wxStringListD0Ev
_ZN12wxStringListD1Ev
_ZN12wxStringListD2Ev
_ZN12wxStringListD5Ev
_ZN12wxTextBuffer11typeDefaultE
_ZN12wxTextBuffer4OpenERK8wxMBConv
_ZN12wxTextBuffer4OpenERK8wxStringRK8wxMBConv
_ZN12wxTextBuffer5CloseEv
_ZN12wxTextBuffer5WriteE14wxTextFileTypeRK8wxMBConv
_ZN12wxTextBuffer6CreateERK8wxString
_ZN12wxTextBuffer6CreateEv
_ZN12wxTextBuffer6GetEOLE14wxTextFileType
_ZN12wxTextBuffer6ms_eofE
_ZN12wxTextBuffer9TranslateERK8wxString14wxTextFileType
_ZN12wxTextBuffer9TranslateERK8wxString14wxTextFileType.cold
_ZN12wxTextBufferC1ERK8wxString
_ZN12wxTextBufferC2ERK8wxString
_ZN12wxTextBufferC2ERK8wxString.cold
_ZN12wxTextBufferD0Ev
_ZN12wxTextBufferD1Ev
_ZN12wxTextBufferD2Ev
_ZN12wxTGAHandler12ms_classInfoE
_ZN12wxTGAHandler14wxCreateObjectEv
_ZN12wxTGAHandler14wxCreateObjectEv.cold
_ZN12wxTGAHandler8LoadFileEP7wxImageR13wxInputStreambi
_ZN12wxTGAHandler8LoadFileEP7wxImageR13wxInputStreambi.cold
_ZN12wxTGAHandler8SaveFileEP7wxImageR14wxOutputStreamb
_ZN12wxTGAHandler8SaveFileEP7wxImageR14wxOutputStreamb.cold
_ZN12wxTGAHandler9DoCanReadER13wxInputStream
_ZN12wxTGAHandlerD0Ev
_ZN12wxTGAHandlerD1Ev
_ZN12wxTGAHandlerD2Ev
_ZN12wxTGAHandlerD5Ev
_ZN12wxTimerEvent12ms_classInfoE
_ZN12wxTimerEventD0Ev
_ZN12wxTimerEventD1Ev
_ZN12wxTimerEventD2Ev
_ZN12wxTimerEventD5Ev
_ZN12wxWakeUpPipe12WakeUpNoLockEv
_ZN12wxWakeUpPipe13OnReadWaitingEv
_ZN12wxWakeUpPipe13OnReadWaitingEv.cold
_ZN12wxWakeUpPipe14OnWriteWaitingEv
_ZN12wxWakeUpPipe18OnExceptionWaitingEv
_ZN12wxWakeUpPipeC1Ev
_ZN12wxWakeUpPipeC2Ev
_ZN12wxWakeUpPipeC2Ev.cold
_ZN12wxWakeUpPipeD0Ev
_ZN12wxWakeUpPipeD1Ev
_ZN12wxWakeUpPipeD2Ev
_ZN12wxWakeUpPipeD5Ev
_ZN12wxWindowBase10CreateBaseEPS_iRK7wxPointRK6wxSizelRK11wxValidatorRK8wxString
_ZN12wxWindowBase10CreateBaseEPS_iRK7wxPointRK6wxSizelRK8wxString
_ZN12wxWindowBase10GetCaptureEv
_ZN12wxWindowBase10InitDialogEv
_ZN12wxWindowBase10InitDialogEv.cold
_ZN12wxWindowBase10SetMaxSizeERK6wxSize
_ZN12wxWindowBase10SetMinSizeERK6wxSize
_ZN12wxWindowBase10SetPaletteERK9wxPalette
_ZN12wxWindowBase10SetPaletteERK9wxPalette.cold
_ZN12wxWindowBase10SetToolTipERK8wxString
_ZN12wxWindowBase11CopyToolTipEP9wxToolTip
_ZN12wxWindowBase11CopyToolTipEP9wxToolTip.cold
_ZN12wxWindowBase11DoFindFocusEv
_ZN12wxWindowBase11RemoveChildEPS_
_ZN12wxWindowBase11ScrollLinesEi
_ZN12wxWindowBase11ScrollPagesEi
_ZN12wxWindowBase11SetCanFocusEb
_ZN12wxWindowBase11SetHelpTextERK8wxString
_ZN12wxWindowBase12CaptureMouseEv
_ZN12wxWindowBase12CaptureMouseEv.cold
_ZN12wxWindowBase12DoNavigateInEi
_ZN12wxWindowBase12DoSetToolTipEP9wxToolTip
_ZN12wxWindowBase12GetValidatorEv
_ZN12wxWindowBase12LayoutPhase1EPi
_ZN12wxWindowBase12LayoutPhase1EPi.localalias
_ZN12wxWindowBase12LayoutPhase2EPi
_ZN12wxWindowBase12LayoutPhase2EPi.localalias
_ZN12wxWindowBase12ms_classInfoE
_ZN12wxWindowBase12OnInitDialogER17wxInitDialogEvent
_ZN12wxWindowBase12ReleaseMouseEv
_ZN12wxWindowBase12ReleaseMouseEv.cold
_ZN12wxWindowBase12SetSizeHintsEiiiiii
_ZN12wxWindowBase12SetValidatorERK11wxValidator
_ZN12wxWindowBase13OnMiddleClickER12wxMouseEvent
_ZN12wxWindowBase13SendSizeEventEi
_ZN12wxWindowBase13SendSizeEventEi.cold
_ZN12wxWindowBase13SetExtraStyleEl
_ZN12wxWindowBase13sm_eventTableE
_ZN12wxWindowBase14DoSetSizeHintsEiiiiii
_ZN12wxWindowBase14FindWindowByIdElPK8wxWindow
_ZN12wxWindowBase14FindWindowByIdElPK8wxWindow.cold
_ZN12wxWindowBase14HideWithEffectE12wxShowEffectj
_ZN12wxWindowBase14InternalOnSizeER11wxSizeEvent
_ZN12wxWindowBase14MoveConstraintEii
_ZN12wxWindowBase14OnInternalIdleEv
_ZN12wxWindowBase14SendIdleEventsER11wxIdleEvent
_ZN12wxWindowBase14SetConstraintsEP19wxLayoutConstraints
_ZN12wxWindowBase14SetInitialSizeERK6wxSize
_ZN12wxWindowBase14SetNextHandlerEP12wxEvtHandler
_ZN12wxWindowBase14SetSizerAndFitEP7wxSizerb
_ZN12wxWindowBase14SetTransparentEh
_ZN12wxWindowBase14ShowWithEffectE12wxShowEffectj
_ZN12wxWindowBase14UpdateWindowUIEl
_ZN12wxWindowBase14UpdateWindowUIEl.cold
_ZN12wxWindowBase15AssociateHandleEP10_GtkWidget
_ZN12wxWindowBase15ClearBackgroundEv
_ZN12wxWindowBase15DestroyChildrenEv
_ZN12wxWindowBase15DragAcceptFilesEb
_ZN12wxWindowBase15DragAcceptFilesEb.cold
_ZN12wxWindowBase15PopEventHandlerEb
_ZN12wxWindowBase15SetEventHandlerEP12wxEvtHandler
_ZN12wxWindowBase15SetFocusFromKbdEv
_ZN12wxWindowBase15SetThemeEnabledEb
_ZN12wxWindowBase16DissociateHandleEv
_ZN12wxWindowBase16DoMoveInTabOrderEP8wxWindowNS_11WindowOrderE
_ZN12wxWindowBase16DoSetToolTipTextERK8wxString
_ZN12wxWindowBase16DoSetToolTipTextERK8wxString.cold
_ZN12wxWindowBase16DoSetVirtualSizeEii
_ZN12wxWindowBase16DoUpdateWindowUIER15wxUpdateUIEvent
_ZN12wxWindowBase16FindWindowByNameERK8wxStringPK8wxWindow
_ZN12wxWindowBase16PushEventHandlerEP12wxEvtHandler
_ZN12wxWindowBase16PushEventHandlerEP12wxEvtHandler.cold
_ZN12wxWindowBase16ResetConstraintsEv
_ZN12wxWindowBase16ResetConstraintsEv.localalias
_ZN12wxWindowBase16SendDestroyEventEv
_ZN12wxWindowBase16SendDestroyEventEv.cold
_ZN12wxWindowBase16SetMaxClientSizeERK6wxSize
_ZN12wxWindowBase16SetMinClientSizeERK6wxSize
_ZN12wxWindowBase16SetWindowVariantE15wxWindowVariant
_ZN12wxWindowBase16UnsetConstraintsEP19wxLayoutConstraints
_ZN12wxWindowBase17CanSetTransparentEv
_ZN12wxWindowBase17EnableTouchEventsEi
_ZN12wxWindowBase17FindWindowByLabelERK8wxStringPK8wxWindow
_ZN12wxWindowBase17InheritAttributesEv
_ZN12wxWindowBase17InheritAttributesEv.cold
_ZN12wxWindowBase17NotifyCaptureLostEv
_ZN12wxWindowBase17NotifyCaptureLostEv.cold
_ZN12wxWindowBase17SetDoubleBufferedEb
_ZN12wxWindowBase17SetSizeConstraintEiiii
_ZN12wxWindowBase17sm_eventHashTableE
_ZN12wxWindowBase17ToggleWindowStyleEi
_ZN12wxWindowBase17WXReservedWindow1EPv
_ZN12wxWindowBase17WXReservedWindow2EPv
_ZN12wxWindowBase17WXReservedWindow3EPv
_ZN12wxWindowBase18DoSetWindowVariantE15wxWindowVariant
_ZN12wxWindowBase18DoSetWindowVariantE15wxWindowVariant.cold
_ZN12wxWindowBase18EnableVisibleFocusEb
_ZN12wxWindowBase18InvalidateBestSizeEv
_ZN12wxWindowBase18OnSysColourChangedER23wxSysColourChangedEvent
_ZN12wxWindowBase18OnSysColourChangedER23wxSysColourChangedEvent.cold
_ZN12wxWindowBase18RemoveEventHandlerEP12wxEvtHandler
_ZN12wxWindowBase18SatisfyConstraintsEv
_ZN12wxWindowBase18SetBackgroundStyleE17wxBackgroundStyle
_ZN12wxWindowBase18SetConstraintSizesEb
_ZN12wxWindowBase18SetConstraintSizesEb.cold
_ZN12wxWindowBase18SetContainingSizerEP7wxSizer
_ZN12wxWindowBase18SetLayoutDirectionE17wxLayoutDirection
_ZN12wxWindowBase18SetPreviousHandlerEP12wxEvtHandler
_ZN12wxWindowBase18SetWindowStyleFlagEl
_ZN12wxWindowBase19InternalOnPopupMenuER14wxCommandEvent
_ZN12wxWindowBase19SetAcceleratorTableERK18wxAcceleratorTable
_ZN12wxWindowBase19SetBackgroundColourERK8wxColour
_ZN12wxWindowBase19SetForegroundColourERK8wxColour
_ZN12wxWindowBase20AlwaysShowScrollbarsEbb
_ZN12wxWindowBase20InformFirstDirectionEiii
_ZN12wxWindowBase20sm_eventTableEntriesE
_ZN12wxWindowBase20TransferDataToWindowEv
_ZN12wxWindowBase20TransferDataToWindowEv.localalias
_ZN12wxWindowBase21HandleAsNavigationKeyERK10wxKeyEvent
_ZN12wxWindowBase21SendSizeEventToParentEi
_ZN12wxWindowBase22AddConstraintReferenceEPS_
_ZN12wxWindowBase22AddConstraintReferenceEPS_.cold
_ZN12wxWindowBase22TransferDataFromWindowEv
_ZN12wxWindowBase22TransferDataFromWindowEv.localalias
_ZN12wxWindowBase22WXSendContextMenuEventERK7wxPoint
_ZN12wxWindowBase22WXSendContextMenuEventERK7wxPoint.cold
_ZN12wxWindowBase24DeleteRelatedConstraintsEv
_ZN12wxWindowBase24EndRepositioningChildrenEv
_ZN12wxWindowBase24HasTransparentBackgroundEv
_ZN12wxWindowBase25GetClassDefaultAttributesE15wxWindowVariant
_ZN12wxWindowBase25GetClassDefaultAttributesE15wxWindowVariant.cold
_ZN12wxWindowBase25InternalOnPopupMenuUpdateER15wxUpdateUIEvent
_ZN12wxWindowBase25RemoveConstraintReferenceEPS_
_ZN12wxWindowBase26BeginRepositioningChildrenEv
_ZN12wxWindowBase26NotifyWindowOnEnableChangeEb
_ZN12wxWindowBase29WXSetInitialFittingClientSizeEiP7wxSizer
_ZN12wxWindowBase31DoGetPopupMenuSelectionFromUserER6wxMenuii
_ZN12wxWindowBase31DoGetPopupMenuSelectionFromUserER6wxMenuii.cold
_ZN12wxWindowBase31GetMainWindowOfCompositeControlEv
_ZN12wxWindowBase3FitEv
_ZN12wxWindowBase4ShowEb
_ZN12wxWindowBase4ThawEv
_ZN12wxWindowBase4ThawEv.localalias
_ZN12wxWindowBase5CloseEb
_ZN12wxWindowBase5CloseEb.cold
_ZN12wxWindowBase5SetIdEi
_ZN12wxWindowBase6DoThawEv
_ZN12wxWindowBase6EnableEb
_ZN12wxWindowBase6FreezeEv
_ZN12wxWindowBase6LayoutEv
_ZN12wxWindowBase6OnHelpER11wxHelpEvent
_ZN12wxWindowBase6ToPhysE6wxSizePKS_
_ZN12wxWindowBase6UpdateEv
_ZN12wxWindowBase7DestroyEv
_ZN12wxWindowBase7DoPhaseEi
_ZN12wxWindowBase7DoPhaseEi.cold
_ZN12wxWindowBase7SetFontERK6wxFont
_ZN12wxWindowBase7SetNameERK8wxString
_ZN12wxWindowBase8AddChildEPS_
_ZN12wxWindowBase8DoCentreEi
_ZN12wxWindowBase8DoEnableEb
_ZN12wxWindowBase8DoFreezeEv
_ZN12wxWindowBase8FromPhysE6wxSizePKS_
_ZN12wxWindowBase8ReparentEPS_
_ZN12wxWindowBase8SetCaretEP7wxCaret
_ZN12wxWindowBase8SetSizerEP7wxSizerb
_ZN12wxWindowBase8TryAfterER7wxEvent
_ZN12wxWindowBase8TryAfterER7wxEvent.cold
_ZN12wxWindowBase8ValidateEv
_ZN12wxWindowBase8ValidateEv.localalias
_ZN12wxWindowBase9FindFocusEv
_ZN12wxWindowBase9FitInsideEv
_ZN12wxWindowBase9PopupMenuEP6wxMenuii
_ZN12wxWindowBase9PopupMenuEP6wxMenuii.cold
_ZN12wxWindowBase9PrepareDCER4wxDC
_ZN12wxWindowBase9SetCursorERK8wxCursor
_ZN12wxWindowBase9SetParentEPS_
_ZN12wxWindowBase9TryBeforeER7wxEvent
_ZN12wxWindowBaseC1Ev
_ZN12wxWindowBaseC2Ev
_ZN12wxWindowBaseC2Ev.cold
_ZN12wxWindowBaseD0Ev
_ZN12wxWindowBaseD1Ev
_ZN12wxWindowBaseD2Ev
_ZN12wxWindowList10CreateNodeEP10wxNodeBaseS1_PvRK9wxListKey
_ZN12wxWindowListD0Ev
_ZN12wxWindowListD1Ev
_ZN12wxWindowListD2Ev
_ZN12wxWindowListD5Ev
_ZN12wxWithImages12SetImageListEP11wxImageList
_ZN12wxWithImages15OnImagesChangedEv
_ZN12wxWithImages18WXHandleDPIChangedER17wxDPIChangedEvent
_ZN12wxWithImagesD0Ev
_ZN12wxWithImagesD1Ev
_ZN12wxWithImagesD2Ev
_ZN12wxWithImagesD5Ev
_ZN12wxWizardBase11HasNextPageEP12wxWizardPage
_ZN12wxWizardBase11HasPrevPageEP12wxWizardPage
_ZN12wxWizardBase20TransferDataToWindowEv
_ZN12wxWizardBase22TransferDataFromWindowEv
_ZN12wxWizardBase8ValidateEv
_ZN12wxWizardPage12ms_classInfoE
_ZN12wxWizardPage20TransferDataToWindowEv
_ZN12wxWizardPage22TransferDataFromWindowEv
_ZN12wxWizardPage4InitEv
_ZN12wxWizardPage4InitEv.cold
_ZN12wxWizardPage6CreateEP8wxWizardRK14wxBitmapBundle
_ZN12wxWizardPage6CreateEP8wxWizardRK14wxBitmapBundle.cold
_ZN12wxWizardPage8ValidateEv
_ZN12wxWizardPageC1EP8wxWizardRK14wxBitmapBundle
_ZN12wxWizardPageC2EP8wxWizardRK14wxBitmapBundle
_ZN12wxWizardPageC2EP8wxWizardRK14wxBitmapBundle.cold
_ZN12wxXmlDoctype5ClearEv
_ZN12wxXmlDoctypeD1Ev
_ZN12wxXmlDoctypeD2Ev
_ZN12wxXmlDoctypeD5Ev
_ZN12wxXPMDecoder7CanReadER13wxInputStream
_ZN12wxXPMDecoder8ReadDataEPKPKc
_ZN12wxXPMDecoder8ReadDataEPKPKc.cold
_ZN12wxXPMDecoder8ReadFileER13wxInputStream
_ZN12wxXPMDecoder8ReadFileER13wxInputStream.cold
_ZN12wxXPMHandler12ms_classInfoE
_ZN12wxXPMHandler14wxCreateObjectEv
_ZN12wxXPMHandler14wxCreateObjectEv.cold
_ZN12wxXPMHandler8LoadFileEP7wxImageR13wxInputStreambi
_ZN12wxXPMHandler8LoadFileEP7wxImageR13wxInputStreambi.cold
_ZN12wxXPMHandler8SaveFileEP7wxImageR14wxOutputStreamb
_ZN12wxXPMHandler8SaveFileEP7wxImageR14wxOutputStreamb.cold
_ZN12wxXPMHandler9DoCanReadER13wxInputStream
_ZN12wxXPMHandlerD0Ev
_ZN12wxXPMHandlerD1Ev
_ZN12wxXPMHandlerD2Ev
_ZN12wxXPMHandlerD5Ev
_ZN13HP_TagHandler16GetSupportedTagsEv
_ZN13HP_TagHandler9HandleTagERK9wxHtmlTag
_ZN13HP_TagHandler9HandleTagERK9wxHtmlTag.cold
_ZN13HP_TagHandlerD0Ev
_ZN13HP_TagHandlerD1Ev
_ZN13HP_TagHandlerD2Ev
_ZN13HP_TagHandlerD5Ev
_ZN13wxArrayString3AddERK8wxStringm
_ZN13wxArrayString3AddERK8wxStringm.cold
_ZN13wxArrayString4CopyERKS_
_ZN13wxArrayString4GrowEm
_ZN13wxArrayString4InitEb
_ZN13wxArrayString4SortEb
_ZN13wxArrayString4SortEPFiP8wxStringS1_E
_ZN13wxArrayString4SortEPFiRK8wxStringS2_E
_ZN13wxArrayString5AllocEm
_ZN13wxArrayString5ClearEv
_ZN13wxArrayString5EmptyEv
_ZN13wxArrayString6insertEP8wxStringPKS0_S3_
_ZN13wxArrayString6insertEP8wxStringPKS0_S3_.cold
_ZN13wxArrayString6InsertERK8wxStringmm
_ZN13wxArrayString6InsertERK8wxStringmm.cold
_ZN13wxArrayString6RemoveERK8wxString
_ZN13wxArrayString6resizeEm8wxString
_ZN13wxArrayString6ShrinkEv
_ZN13wxArrayString7reserveEm
_ZN13wxArrayString8RemoveAtEmm
_ZN13wxArrayString8SetCountEm
_ZN13wxArrayString8SetCountEm.cold
_ZN13wxArrayStringaSERKS_
_ZN13wxArrayStringC1EmPK8wxString
_ZN13wxArrayStringC1EmPPKc
_ZN13wxArrayStringC1EmPPKw
_ZN13wxArrayStringC1ERKS_
_ZN13wxArrayStringC2EmPK8wxString
_ZN13wxArrayStringC2EmPPKc
_ZN13wxArrayStringC2EmPPKc.cold
_ZN13wxArrayStringC2EmPPKw
_ZN13wxArrayStringC2EmPPKw.cold
_ZN13wxArrayStringC2ERKS_
_ZN13wxArrayStringD1Ev
_ZN13wxArrayStringD2Ev
_ZN13wxArrayThreadD1Ev
_ZN13wxArrayThreadD2Ev
_ZN13wxArrayThreadD5Ev
_ZN13wxArtProvider11GetSizeHintERK8wxStringb
_ZN13wxArtProvider11GetSizeHintERK8wxStringP8wxWindow
_ZN13wxArtProvider12CreateBitmapERK8wxStringS2_RK6wxSize
_ZN13wxArtProvider12ms_classInfoE
_ZN13wxArtProvider12sm_providersE
_ZN13wxArtProvider13DoGetSizeHintERK8wxString
_ZN13wxArtProvider13DoGetSizeHintERK8wxString.localalias
_ZN13wxArtProvider13GetIconBundleERK8wxStringS2_
_ZN13wxArtProvider13GetIconBundleERK8wxStringS2_.cold
_ZN13wxArtProvider13RescaleBitmapER8wxBitmapRK6wxSize
_ZN13wxArtProvider14GetDIPSizeHintERK8wxString
_ZN13wxArtProvider15DoGetIconBundleERK8wxStringS2_
_ZN13wxArtProvider15DoGetIconBundleERK8wxStringS2_.cold
_ZN13wxArtProvider15GetBitmapBundleERK8wxStringS2_RK6wxSize
_ZN13wxArtProvider15GetBitmapBundleERK8wxStringS2_RK6wxSize.cold
_ZN13wxArtProvider15InitStdProviderEv
_ZN13wxArtProvider16CleanUpProvidersEv
_ZN13wxArtProvider16CreateIconBundleERK8wxStringS2_
_ZN13wxArtProvider17GetNativeSizeHintERK8wxStringP8wxWindow
_ZN13wxArtProvider17HasNativeProviderEv
_ZN13wxArtProvider18CreateBitmapBundleERK8wxStringS2_RK6wxSize
_ZN13wxArtProvider18InitNativeProviderEv
_ZN13wxArtProvider19GetMessageBoxIconIdEi
_ZN13wxArtProvider20CommonAddingProviderEv
_ZN13wxArtProvider20CommonAddingProviderEv.cold
_ZN13wxArtProvider20GetNativeDIPSizeHintERK8wxString
_ZN13wxArtProvider23RescaleOrResizeIfNeededER8wxBitmapRK6wxSize
_ZN13wxArtProvider3PopEv
_ZN13wxArtProvider4PushEPS_
_ZN13wxArtProvider6DeleteEPS_
_ZN13wxArtProvider6RemoveEPS_
_ZN13wxArtProvider7GetIconERK8wxStringS2_RK6wxSize
_ZN13wxArtProvider7GetIconERK8wxStringS2_RK6wxSize.cold
_ZN13wxArtProvider8PushBackEPS_
_ZN13wxArtProvider8sm_cacheE
_ZN13wxArtProvider9GetBitmapERK8wxStringS2_RK6wxSize
_ZN13wxArtProvider9GetBitmapERK8wxStringS2_RK6wxSize.cold
_ZN13wxArtProviderD0Ev
_ZN13wxArtProviderD0Ev.localalias
_ZN13wxArtProviderD1Ev
_ZN13wxArtProviderD2Ev
_ZN13wxAuiDockInfoD1Ev
_ZN13wxAuiDockInfoD2Ev
_ZN13wxAuiDockInfoD5Ev
_ZN13wxAuiNotebook10DeletePageEm
_ZN13wxAuiNotebook10InsertPageEmP8wxWindowRK8wxStringbi
_ZN13wxAuiNotebook10InsertPageEmP8wxWindowRK8wxStringbi.cold
_ZN13wxAuiNotebook10InsertPageEmP8wxWindowRK8wxStringbRK14wxBitmapBundle
_ZN13wxAuiNotebook10InsertPageEmP8wxWindowRK8wxStringbRK14wxBitmapBundle.cold
_ZN13wxAuiNotebook10RemovePageEm
_ZN13wxAuiNotebook11OnTabButtonER18wxAuiNotebookEvent
_ZN13wxAuiNotebook11OnTabButtonER18wxAuiNotebookEvent.cold
_ZN13wxAuiNotebook11SetPageSizeERK6wxSize
_ZN13wxAuiNotebook11SetPageTextEmRK8wxString
_ZN13wxAuiNotebook12DoRemovePageEm
_ZN13wxAuiNotebook12InitNotebookEl
_ZN13wxAuiNotebook12InitNotebookEl.cold
_ZN13wxAuiNotebook12ms_classInfoE
_ZN13wxAuiNotebook12OnTabClickedER18wxAuiNotebookEvent
_ZN13wxAuiNotebook12OnTabEndDragER18wxAuiNotebookEvent
_ZN13wxAuiNotebook12OnTabEndDragER18wxAuiNotebookEvent.cold
_ZN13wxAuiNotebook12OnTabRightUpER18wxAuiNotebookEvent
_ZN13wxAuiNotebook12OnTabRightUpER18wxAuiNotebookEvent.cold
_ZN13wxAuiNotebook12SetPageImageEmi
_ZN13wxAuiNotebook12SetPageImageEmi.cold
_ZN13wxAuiNotebook12SetSelectionEm
_ZN13wxAuiNotebook12SetSelectionEm.localalias
_ZN13wxAuiNotebook13OnTabBgDClickER18wxAuiNotebookEvent
_ZN13wxAuiNotebook13OnTabBgDClickER18wxAuiNotebookEvent.cold
_ZN13wxAuiNotebook13OnTabMiddleUpER18wxAuiNotebookEvent
_ZN13wxAuiNotebook13OnTabMiddleUpER18wxAuiNotebookEvent.cold
_ZN13wxAuiNotebook13SetNormalFontERK6wxFont
_ZN13wxAuiNotebook13SetPageBitmapEmRK14wxBitmapBundle
_ZN13wxAuiNotebook13sm_eventTableE
_ZN13wxAuiNotebook14DeleteAllPagesEv
_ZN13wxAuiNotebook14OnTabBeginDragER18wxAuiNotebookEvent
_ZN13wxAuiNotebook14OnTabRightDownER18wxAuiNotebookEvent
_ZN13wxAuiNotebook14OnTabRightDownER18wxAuiNotebookEvent.cold
_ZN13wxAuiNotebook14SetArtProviderEP11wxAuiTabArt
_ZN13wxAuiNotebook14SetPageToolTipEmRK8wxString
_ZN13wxAuiNotebook14ShowWindowMenuEv
_ZN13wxAuiNotebook14ShowWindowMenuEv.cold
_ZN13wxAuiNotebook15ChangeSelectionEm
_ZN13wxAuiNotebook15OnTabCancelDragER18wxAuiNotebookEvent
_ZN13wxAuiNotebook15OnTabCancelDragER18wxAuiNotebookEvent.cold
_ZN13wxAuiNotebook15OnTabDragMotionER18wxAuiNotebookEvent
_ZN13wxAuiNotebook15OnTabDragMotionER18wxAuiNotebookEvent.cold
_ZN13wxAuiNotebook15OnTabMiddleDownER18wxAuiNotebookEvent
_ZN13wxAuiNotebook15OnTabMiddleDownER18wxAuiNotebookEvent.cold
_ZN13wxAuiNotebook15SetSelectedFontERK6wxFont
_ZN13wxAuiNotebook16GetActiveTabCtrlEv
_ZN13wxAuiNotebook16GetActiveTabCtrlEv.cold
_ZN13wxAuiNotebook16SetMeasuringFontERK6wxFont
_ZN13wxAuiNotebook16SetTabCtrlHeightEi
_ZN13wxAuiNotebook17DoModifySelectionEmb
_ZN13wxAuiNotebook17DoModifySelectionEmb.cold
_ZN13wxAuiNotebook17sm_eventHashTableE
_ZN13wxAuiNotebook18OnSysColourChangedER23wxSysColourChangedEvent
_ZN13wxAuiNotebook18SetWindowStyleFlagEl
_ZN13wxAuiNotebook19GetTabCtrlFromPointERK7wxPoint
_ZN13wxAuiNotebook19UpdateTabCtrlHeightEv
_ZN13wxAuiNotebook20OnChildFocusNotebookER17wxChildFocusEvent
_ZN13wxAuiNotebook20RemoveEmptyTabFramesEv
_ZN13wxAuiNotebook20RemoveEmptyTabFramesEv.cold
_ZN13wxAuiNotebook20SetSelectionToWindowEP8wxWindow
_ZN13wxAuiNotebook20SetSelectionToWindowEP8wxWindow.cold
_ZN13wxAuiNotebook20SetUniformBitmapSizeERK6wxSize
_ZN13wxAuiNotebook20sm_eventTableEntriesE
_ZN13wxAuiNotebook20UpdateHintWindowSizeEv
_ZN13wxAuiNotebook20UpdateHintWindowSizeEv.cold
_ZN13wxAuiNotebook21CalculateNewSplitSizeEv
_ZN13wxAuiNotebook22CalculateTabCtrlHeightEv
_ZN13wxAuiNotebook22GetHeightForPageHeightEi
_ZN13wxAuiNotebook22GetTabFrameFromTabCtrlEP8wxWindow
_ZN13wxAuiNotebook23OnNavigationKeyNotebookER20wxNavigationKeyEvent
_ZN13wxAuiNotebook4InitEv
_ZN13wxAuiNotebook5SplitEmi
_ZN13wxAuiNotebook5SplitEmi.cold
_ZN13wxAuiNotebook6CreateEP8wxWindowiRK7wxPointRK6wxSizel
_ZN13wxAuiNotebook6CreateEP8wxWindowiRK7wxPointRK6wxSizel.cold
_ZN13wxAuiNotebook6DoThawEv
_ZN13wxAuiNotebook6OnSizeER11wxSizeEvent
_ZN13wxAuiNotebook7AddPageEP8wxWindowRK8wxStringbi
_ZN13wxAuiNotebook7AddPageEP8wxWindowRK8wxStringbi.cold
_ZN13wxAuiNotebook7AddPageEP8wxWindowRK8wxStringbRK14wxBitmapBundle
_ZN13wxAuiNotebook7FindTabEP8wxWindowPP12wxAuiTabCtrlPi
_ZN13wxAuiNotebook7SetFontERK6wxFont
_ZN13wxAuiNotebook7SetFontERK6wxFont.cold
_ZN13wxAuiNotebook8DoSizingEv
_ZN13wxAuiNotebookC1Ev
_ZN13wxAuiNotebookC2Ev
_ZN13wxAuiNotebookC5Ev
_ZN13wxAuiNotebookD0Ev
_ZN13wxAuiNotebookD1Ev
_ZN13wxAuiNotebookD2Ev
_ZN13wxAuiPaneInfo11DefaultPaneEv
_ZN13wxAuiPaneInfo7SetFlagEib
_ZN13wxAuiPaneInfoC1ERKS_
_ZN13wxAuiPaneInfoC1Ev
_ZN13wxAuiPaneInfoC2ERKS_
_ZN13wxAuiPaneInfoC2Ev
_ZN13wxAuiPaneInfoC5ERKS_
_ZN13wxAuiPaneInfoC5Ev
_ZN13wxAuiPaneInfoD1Ev
_ZN13wxAuiPaneInfoD2Ev
_ZN13wxAuiPaneInfoD5Ev
_ZN13wxBackingFileaSERKS_
_ZN13wxBackingFileC1EP13wxInputStreammRK8wxString
_ZN13wxBackingFileC1ERKS_
_ZN13wxBackingFileC2EP13wxInputStreammRK8wxString
_ZN13wxBackingFileC2EP13wxInputStreammRK8wxString.cold
_ZN13wxBackingFileC2ERKS_
_ZN13wxBackingFileD1Ev
_ZN13wxBackingFileD2Ev
_ZN13wxCmdLineArgs14const_iteratormmEi
_ZN13wxCmdLineArgs14const_iteratormmEv
_ZN13wxCmdLineArgs14const_iteratorppEi
_ZN13wxCmdLineArgs14const_iteratorppEv
_ZN13wxContextHelp12ms_classInfoE
_ZN13wxContextHelp13DispatchEventEP8wxWindowRK7wxPoint
_ZN13wxContextHelp13DispatchEventEP8wxWindowRK7wxPoint.cold
_ZN13wxContextHelp14EndContextHelpEv
_ZN13wxContextHelp14wxCreateObjectEv
_ZN13wxContextHelp14wxCreateObjectEv.cold
_ZN13wxContextHelp16BeginContextHelpEP8wxWindow
_ZN13wxContextHelp16BeginContextHelpEP8wxWindow.cold
_ZN13wxContextHelp9EventLoopEv
_ZN13wxContextHelpC1EP8wxWindowb
_ZN13wxContextHelpC2EP8wxWindowb
_ZN13wxContextHelpC2EP8wxWindowb.cold
_ZN13wxContextHelpD0Ev
_ZN13wxContextHelpD1Ev
_ZN13wxContextHelpD2Ev
_ZN13wxControlBase12GetLabelTextERK8wxString
_ZN13wxControlBase12RemoveMarkupERK8wxString
_ZN13wxControlBase12SetLabelTextERK8wxString
_ZN13wxControlBase13CreateControlEP12wxWindowBaseiRK7wxPointRK6wxSizelRK11wxValidatorRK8wxString
_ZN13wxControlBase14FindAccelIndexERK8wxStringPS0_
_ZN13wxControlBase15EscapeMnemonicsERK8wxString
_ZN13wxControlBase15EscapeMnemonicsERK8wxString.cold
_ZN13wxControlBase15RemoveMnemonicsERK8wxString
_ZN13wxControlBase16DoSetLabelMarkupERK8wxString
_ZN13wxControlBase16DoSetLabelMarkupERK8wxString.cold
_ZN13wxControlBase16DoUpdateWindowUIER15wxUpdateUIEvent
_ZN13wxControlBase16DoUpdateWindowUIER15wxUpdateUIEvent.cold
_ZN13wxControlBase37GetCompositeControlsDefaultAttributesE15wxWindowVariant
_ZN13wxControlBase37GetCompositeControlsDefaultAttributesE15wxWindowVariant.cold
_ZN13wxControlBase6CreateEP8wxWindowiRK7wxPointRK6wxSizelRK11wxValidatorRK8wxString
_ZN13wxControlBase7CommandER14wxCommandEvent
_ZN13wxControlBase7SetFontERK6wxFont
_ZN13wxControlBase8SetLabelERK8wxString
_ZN13wxControlBase9EllipsizeERK8wxStringRK4wxDC15wxEllipsizeModeii
_ZN13wxControlBase9EllipsizeERK8wxStringRK4wxDC15wxEllipsizeModeii.cold
_ZN13wxControlBaseD0Ev
_ZN13wxControlBaseD1Ev
_ZN13wxControlBaseD2Ev
_ZN13wxDebugReport10AddContextENS_7ContextE
_ZN13wxDebugReport10AddContextENS_7ContextE.cold
_ZN13wxDebugReport10RemoveFileERK8wxString
_ZN13wxDebugReport10RemoveFileERK8wxString.cold
_ZN13wxDebugReport15DoAddSystemInfoEP9wxXmlNode
_ZN13wxDebugReport15DoAddSystemInfoEP9wxXmlNode.cold
_ZN13wxDebugReport18DoAddCustomContextEP9wxXmlNode
_ZN13wxDebugReport18DoAddExceptionInfoEP9wxXmlNode
_ZN13wxDebugReport18DoAddExceptionInfoEP9wxXmlNode.localalias
_ZN13wxDebugReport18DoAddLoadedModulesEP9wxXmlNode
_ZN13wxDebugReport18DoAddLoadedModulesEP9wxXmlNode.cold
_ZN13wxDebugReport6AddAllENS_7ContextE
_ZN13wxDebugReport7AddFileERK8wxStringS2_
_ZN13wxDebugReport7AddFileERK8wxStringS2_.cold
_ZN13wxDebugReport7AddTextERK8wxStringS2_S2_
_ZN13wxDebugReport7AddTextERK8wxStringS2_S2_.cold
_ZN13wxDebugReport7ProcessEv
_ZN13wxDebugReport7ProcessEv.cold
_ZN13wxDebugReport9DoProcessEv
_ZN13wxDebugReport9DoProcessEv.cold
_ZN13wxDebugReportC1Ev
_ZN13wxDebugReportC2Ev
_ZN13wxDebugReportC2Ev.cold
_ZN13wxDebugReportD0Ev
_ZN13wxDebugReportD1Ev
_ZN13wxDebugReportD2Ev
_ZN13wxDebugReportD2Ev.cold
_ZN13wxDialProcess11OnTerminateEii
_ZN13wxDialProcessD0Ev
_ZN13wxDialProcessD1Ev
_ZN13wxDialProcessD2Ev
_ZN13wxDialProcessD5Ev
_ZN13wxDialUpEventD0Ev
_ZN13wxDialUpEventD1Ev
_ZN13wxDialUpEventD2Ev
_ZN13wxDialUpEventD5Ev
_ZN13wxDirItemData13SetNewDirNameERK8wxString
_ZN13wxDirItemData13SetNewDirNameERK8wxString.cold
_ZN13wxDirItemDataC1ERK8wxStringS2_b
_ZN13wxDirItemDataC2ERK8wxStringS2_b
_ZN13wxDirItemDataC2ERK8wxStringS2_b.cold
_ZN13wxDirItemDataD0Ev
_ZN13wxDirItemDataD1Ev
_ZN13wxDirItemDataD2Ev
_ZN13wxDirItemDataD5Ev
_ZN13wxDirProperty12ms_classInfoE
_ZN13wxDirProperty14DoSetAttributeERK8wxStringR9wxVariant
_ZN13wxDirProperty14DoSetAttributeERK8wxStringR9wxVariant.cold
_ZN13wxDirProperty14wxCreateObjectEv
_ZN13wxDirProperty14wxCreateObjectEv.cold
_ZN13wxDirProperty19DisplayEditorDialogEP14wxPropertyGridR9wxVariant
_ZN13wxDirProperty19DisplayEditorDialogEP14wxPropertyGridR9wxVariant.cold
_ZN13wxDirPropertyC1ERK8wxStringS2_S2_
_ZN13wxDirPropertyC2ERK8wxStringS2_S2_
_ZN13wxDirPropertyC2ERK8wxStringS2_S2_.cold
_ZN13wxDirPropertyD0Ev
_ZN13wxDirPropertyD1Ev
_ZN13wxDirPropertyD2Ev
_ZN13wxDocPrintout11GetPageInfoEPiS0_S0_S0_
_ZN13wxDocPrintout11OnPrintPageEi
_ZN13wxDocPrintout12ms_classInfoE
_ZN13wxDocPrintout14wxCreateObjectEv
_ZN13wxDocPrintout14wxCreateObjectEv.cold
_ZN13wxDocPrintout15OnBeginDocumentEii
_ZN13wxDocPrintout7GetViewEv
_ZN13wxDocPrintout7HasPageEi
_ZN13wxDocPrintoutC1EP6wxViewRK8wxString
_ZN13wxDocPrintoutC2EP6wxViewRK8wxString
_ZN13wxDocPrintoutC2EP6wxViewRK8wxString.cold
_ZN13wxDocPrintoutD0Ev
_ZN13wxDocPrintoutD1Ev
_ZN13wxDocPrintoutD2Ev
_ZN13wxDocPrintoutD5Ev
_ZN13wxDocTemplate10CreateViewEP10wxDocumentl
_ZN13wxDocTemplate10CreateViewEP10wxDocumentl.cold
_ZN13wxDocTemplate12DoCreateViewEv
_ZN13wxDocTemplate12DoCreateViewEv.localalias
_ZN13wxDocTemplate12InitDocumentEP10wxDocumentRK8wxStringl
_ZN13wxDocTemplate12InitDocumentEP10wxDocumentRK8wxStringl.cold
_ZN13wxDocTemplate12ms_classInfoE
_ZN13wxDocTemplate14CreateDocumentERK8wxStringl
_ZN13wxDocTemplate16DoCreateDocumentEv
_ZN13wxDocTemplate16DoCreateDocumentEv.localalias
_ZN13wxDocTemplate19FileMatchesTemplateERK8wxString
_ZN13wxDocTemplate19FileMatchesTemplateERK8wxString.cold
_ZN13wxDocTemplateC1EP12wxDocManagerRK8wxStringS4_S4_S4_S4_S4_P11wxClassInfoS6_l
_ZN13wxDocTemplateC2EP12wxDocManagerRK8wxStringS4_S4_S4_S4_S4_P11wxClassInfoS6_l
_ZN13wxDocTemplateC2EP12wxDocManagerRK8wxStringS4_S4_S4_S4_S4_P11wxClassInfoS6_l.cold
_ZN13wxDocTemplateD0Ev
_ZN13wxDocTemplateD0Ev.localalias
_ZN13wxDocTemplateD1Ev
_ZN13wxDocTemplateD2Ev
_ZN13wxEventFilterD0Ev
_ZN13wxEventFilterD1Ev
_ZN13wxEventFilterD2Ev
_ZN13wxEventFilterD5Ev
_ZN13wxExecuteData17ms_childProcessesE
_ZN13wxExecuteData17OnSomeChildExitedEi
_ZN13wxExecuteData17OnSomeChildExitedEi.cold
_ZN13wxExecuteData18ChildProcessesDataD1Ev
_ZN13wxExecuteData18ChildProcessesDataD2Ev
_ZN13wxExecuteData18ChildProcessesDataD5Ev
_ZN13wxExecuteData45ChildProcessesData_wxImplementation_HashTable10DeleteNodeEP21_wxHashTable_NodeBase
_ZN13wxExecuteData45ChildProcessesData_wxImplementation_HashTable16GetBucketForNodeEPS0_PNS0_4NodeE
_ZN13wxExecuteData45ChildProcessesData_wxImplementation_HashTable8CopyNodeEPNS0_4NodeE
_ZN13wxExecuteData6OnExitEi
_ZN13wxExecuteData6OnExitEi.cold
_ZN13wxExecuteData7OnStartEi
_ZN13wxFFileStream9OnSysSeekEl10wxSeekMode
_ZN13wxFFileStreamC1ERK8wxStringS2_
_ZN13wxFFileStreamC2ERK8wxStringS2_
_ZN13wxFFileStreamC2ERK8wxStringS2_.cold
_ZN13wxFFileStreamD0Ev
_ZN13wxFFileStreamD1Ev
_ZN13wxFFileStreamD2Ev
_ZN13wxFFileStreamD5Ev
_ZN13wxFileHistory12ms_classInfoE
_ZN13wxFileHistory14wxCreateObjectEv
_ZN13wxFileHistory14wxCreateObjectEv.cold
_ZN13wxFileHistory16AddFileToHistoryERK8wxString
_ZN13wxFileHistory16AddFileToHistoryERK8wxString.cold
_ZN13wxFileHistoryD0Ev
_ZN13wxFileHistoryD1Ev
_ZN13wxFileHistoryD2Ev
_ZN13wxFileHistoryD5Ev
_ZN13wxFontRefData11SetEncodingE14wxFontEncoding
_ZN13wxFontRefData11SetFaceNameERK8wxString
_ZN13wxFontRefData13SetUnderlinedEb
_ZN13wxFontRefData14InitFromNativeEv
_ZN13wxFontRefData16SetNumericWeightEi
_ZN13wxFontRefData16SetStrikethroughEb
_ZN13wxFontRefData17SetNativeFontInfoERK16wxNativeFontInfo
_ZN13wxFontRefData22SetFractionalPointSizeEd
_ZN13wxFontRefData8SetStyleE11wxFontStyle
_ZN13wxFontRefData9SetFamilyE12wxFontFamily
_ZN13wxFontRefData9SetWeightE12wxFontWeight
_ZN13wxFontRefDataC1ERK10wxFontInfo
_ZN13wxFontRefDataC1ERK8wxString
_ZN13wxFontRefDataC1ERKS_
_ZN13wxFontRefDataC2ERK10wxFontInfo
_ZN13wxFontRefDataC2ERK10wxFontInfo.cold
_ZN13wxFontRefDataC2ERK8wxString
_ZN13wxFontRefDataC2ERK8wxString.cold
_ZN13wxFontRefDataC2ERKS_
_ZN13wxFontRefDataD0Ev
_ZN13wxFontRefDataD1Ev
_ZN13wxFontRefDataD2Ev
_ZN13wxFontRefDataD5Ev
_ZN13wxGBSizerItem10IntersectsERK12wxGBPositionRK8wxGBSpan
_ZN13wxGBSizerItem10IntersectsERKS_
_ZN13wxGBSizerItem12ms_classInfoE
_ZN13wxGBSizerItem14wxCreateObjectEv
_ZN13wxGBSizerItem14wxCreateObjectEv.cold
_ZN13wxGBSizerItem6SetPosERK12wxGBPosition
_ZN13wxGBSizerItem7SetSpanERK8wxGBSpan
_ZN13wxGBSizerItem9GetEndPosERiS0_
_ZN13wxGBSizerItemC1EiiRK12wxGBPositionRK8wxGBSpaniiP8wxObject
_ZN13wxGBSizerItemC1EP7wxSizerRK12wxGBPositionRK8wxGBSpaniiP8wxObject
_ZN13wxGBSizerItemC1EP8wxWindowRK12wxGBPositionRK8wxGBSpaniiP8wxObject
_ZN13wxGBSizerItemC1Ev
_ZN13wxGBSizerItemC2EiiRK12wxGBPositionRK8wxGBSpaniiP8wxObject
_ZN13wxGBSizerItemC2EP7wxSizerRK12wxGBPositionRK8wxGBSpaniiP8wxObject
_ZN13wxGBSizerItemC2EP8wxWindowRK12wxGBPositionRK8wxGBSpaniiP8wxObject
_ZN13wxGBSizerItemC2Ev
_ZN13wxGBSizerItemD0Ev
_ZN13wxGBSizerItemD1Ev
_ZN13wxGBSizerItemD2Ev
_ZN13wxGBSizerItemD5Ev
_ZN13wxGraphicsPen12ms_classInfoE
_ZN13wxGraphicsPen14wxCreateObjectEv
_ZN13wxGraphicsPen14wxCreateObjectEv.cold
_ZN13wxGraphicsPenD0Ev
_ZN13wxGraphicsPenD1Ev
_ZN13wxGraphicsPenD2Ev
_ZN13wxGraphicsPenD5Ev
_ZN13wxGridPrivate17TryGetValueAsDateER10wxDateTimeRKNS_15DateParseParamsERK6wxGridii
_ZN13wxGridPrivate17TryGetValueAsDateER10wxDateTimeRKNS_15DateParseParamsERK6wxGridii.cold
_ZN13wxGtkFileCtrl10ShowHiddenEb
_ZN13wxGtkFileCtrl11SetFilenameERK8wxString
_ZN13wxGtkFileCtrl11SetFilenameERK8wxString.cold
_ZN13wxGtkFileCtrl11SetWildcardERK8wxString
_ZN13wxGtkFileCtrl12ms_classInfoE
_ZN13wxGtkFileCtrl12SetDirectoryERK8wxString
_ZN13wxGtkFileCtrl14SetFilterIndexEi
_ZN13wxGtkFileCtrl14wxCreateObjectEv
_ZN13wxGtkFileCtrl14wxCreateObjectEv.cold
_ZN13wxGtkFileCtrl4InitEv
_ZN13wxGtkFileCtrl6CreateEP8wxWindowiRK8wxStringS4_S4_lRK7wxPointRK6wxSizeS4_
_ZN13wxGtkFileCtrl6CreateEP8wxWindowiRK8wxStringS4_S4_lRK7wxPointRK6wxSizeS4_.cold
_ZN13wxGtkFileCtrl7SetPathERK8wxString
_ZN13wxGtkFileCtrlD0Ev
_ZN13wxGtkFileCtrlD1Ev
_ZN13wxGtkFileCtrlD2Ev
_ZN13wxHtmlListBox10OnLeftDownER12wxMouseEvent
_ZN13wxHtmlListBox10RefreshAllEv
_ZN13wxHtmlListBox10RefreshRowEm
_ZN13wxHtmlListBox11OnMouseMoveER12wxMouseEvent
_ZN13wxHtmlListBox11RefreshRowsEmm
_ZN13wxHtmlListBox12ms_classInfoE
_ZN13wxHtmlListBox12SetItemCountEm
_ZN13wxHtmlListBox13GetHTMLWindowEv
_ZN13wxHtmlListBox13OnLinkClickedEmRK14wxHtmlLinkInfo
_ZN13wxHtmlListBox13OnLinkClickedEmRK14wxHtmlLinkInfo.cold
_ZN13wxHtmlListBox13sm_eventTableE
_ZN13wxHtmlListBox14OnInternalIdleEv
_ZN13wxHtmlListBox17OnHTMLLinkClickedERK14wxHtmlLinkInfo
_ZN13wxHtmlListBox17SetHTMLStatusTextERK8wxString
_ZN13wxHtmlListBox17sm_eventHashTableE
_ZN13wxHtmlListBox18SetHTMLWindowTitleERK8wxString
_ZN13wxHtmlListBox20sm_eventTableEntriesE
_ZN13wxHtmlListBox22SetHTMLBackgroundImageERK14wxBitmapBundle
_ZN13wxHtmlListBox23SetHTMLBackgroundColourERK8wxColour
_ZN13wxHtmlListBox4InitEv
_ZN13wxHtmlListBox6CreateEP8wxWindowiRK7wxPointRK6wxSizelRK8wxString
_ZN13wxHtmlListBox6OnSizeER11wxSizeEvent
_ZN13wxHtmlListBoxC1EP8wxWindowiRK7wxPointRK6wxSizelRK8wxString
_ZN13wxHtmlListBoxC1Ev
_ZN13wxHtmlListBoxC2EP8wxWindowiRK7wxPointRK6wxSizelRK8wxString
_ZN13wxHtmlListBoxC2EP8wxWindowiRK7wxPointRK6wxSizelRK8wxString.cold
_ZN13wxHtmlListBoxC2Ev
_ZN13wxHtmlListBoxC2Ev.cold
_ZN13wxHtmlListBoxD0Ev
_ZN13wxHtmlListBoxD1Ev
_ZN13wxHtmlListBoxD2Ev
_ZN13wxImageModule12ms_classInfoE
_ZN13wxImageModule14wxCreateObjectEv
_ZN13wxImageModule6OnExitEv
_ZN13wxImageModule6OnInitEv
_ZN13wxImageModuleD0Ev
_ZN13wxImageModuleD1Ev
_ZN13wxImageModuleD2Ev
_ZN13wxImageModuleD5Ev
_ZN13wxInputStream12ms_classInfoE
_ZN13wxInputStream15AllocSpaceWBackEm
_ZN13wxInputStream4GetCEv
_ZN13wxInputStream4PeekEv
_ZN13wxInputStream4ReadEPvm
_ZN13wxInputStream4ReadER14wxOutputStream
_ZN13wxInputStream5SeekIEl10wxSeekMode
_ZN13wxInputStream5SeekIEl10wxSeekMode.cold
_ZN13wxInputStream7ReadAllEPvm
_ZN13wxInputStream7UngetchEc
_ZN13wxInputStream7UngetchEPKvm
_ZN13wxInputStream8GetWBackEPvm
_ZN13wxInputStreamC1Ev
_ZN13wxInputStreamC2Ev
_ZN13wxInputStreamD0Ev
_ZN13wxInputStreamD1Ev
_ZN13wxInputStreamD2Ev
_ZN13wxIntProperty12DoValidationEPK17wxNumericPropertyR16wxLongLongNativeP18wxPGValidationInfoi
_ZN13wxIntProperty12DoValidationEPK17wxNumericPropertyRlP18wxPGValidationInfoi
_ZN13wxIntProperty12DoValidationEPK17wxNumericPropertyRxP18wxPGValidationInfoi
_ZN13wxIntProperty12ms_classInfoE
_ZN13wxIntProperty14wxCreateObjectEv
_ZN13wxIntProperty14wxCreateObjectEv.cold
_ZN13wxIntProperty17GetClassValidatorEv
_ZN13wxIntProperty17GetClassValidatorEv.cold
_ZN13wxIntPropertyC1ERK8wxStringS2_l
_ZN13wxIntPropertyC1ERK8wxStringS2_RK16wxLongLongNative
_ZN13wxIntPropertyC2ERK8wxStringS2_l
_ZN13wxIntPropertyC2ERK8wxStringS2_l.cold
_ZN13wxIntPropertyC2ERK8wxStringS2_RK16wxLongLongNative
_ZN13wxIntPropertyC2ERK8wxStringS2_RK16wxLongLongNative.cold
_ZN13wxIntPropertyD0Ev
_ZN13wxIntPropertyD1Ev
_ZN13wxIntPropertyD2Ev
_ZN13wxIPV4address10DoInitImplEv
_ZN13wxIPV4address12ms_classInfoE
_ZN13wxIPV4address14wxCreateObjectEv
_ZN13wxIPV4address14wxCreateObjectEv.cold
_ZN13wxIPV4address16BroadcastAddressEv
_ZN13wxIPV4address4TypeEv
_ZN13wxIPV4address8HostnameEm
_ZN13wxIPV4address8HostnameEm.cold
_ZN13wxIPV4addressD0Ev
_ZN13wxIPV4addressD1Ev
_ZN13wxIPV4addressD2Ev
_ZN13wxIPV4addressD5Ev
_ZN13wxIPV6address10DoInitImplEv
_ZN13wxIPV6address12ms_classInfoE
_ZN13wxIPV6address14wxCreateObjectEv
_ZN13wxIPV6address14wxCreateObjectEv.cold
_ZN13wxIPV6address4TypeEv
_ZN13wxIPV6address8HostnameEPh
_ZN13wxIPV6address8HostnameEPh.cold
_ZN13wxIPV6addressD0Ev
_ZN13wxIPV6addressD1Ev
_ZN13wxIPV6addressD2Ev
_ZN13wxIPV6addressD5Ev
_ZN13wxJPEGHandler12ms_classInfoE
_ZN13wxJPEGHandler14wxCreateObjectEv
_ZN13wxJPEGHandler14wxCreateObjectEv.cold
_ZN13wxJPEGHandler21GetLibraryVersionInfoEv
_ZN13wxJPEGHandler21GetLibraryVersionInfoEv.cold
_ZN13wxJPEGHandler8LoadFileEP7wxImageR13wxInputStreambi
_ZN13wxJPEGHandler8LoadFileEP7wxImageR13wxInputStreambi.cold
_ZN13wxJPEGHandler8SaveFileEP7wxImageR14wxOutputStreamb
_ZN13wxJPEGHandler8SaveFileEP7wxImageR14wxOutputStreamb.cold
_ZN13wxJPEGHandler9DoCanReadER13wxInputStream
_ZN13wxJPEGHandlerC1Ev
_ZN13wxJPEGHandlerC2Ev
_ZN13wxJPEGHandlerC5Ev
_ZN13wxJPEGHandlerD0Ev
_ZN13wxJPEGHandlerD1Ev
_ZN13wxJPEGHandlerD2Ev
_ZN13wxJPEGHandlerD5Ev
_ZN13wxListBoxBase11DeselectAllEi
_ZN13wxListBoxBase11DeselectAllEi.cold
_ZN13wxListBoxBase12SetFirstItemERK8wxString
_ZN13wxListBoxBase12SetSelectionEi
_ZN13wxListBoxBase13EnsureVisibleEi
_ZN13wxListBoxBase16CalcAndSendEventEv
_ZN13wxListBoxBase16CalcAndSendEventEv.cold
_ZN13wxListBoxBase18SetStringSelectionERK8wxString
_ZN13wxListBoxBase18SetStringSelectionERK8wxStringb
_ZN13wxListBoxBase18SetStringSelectionERK8wxStringb.localalias
_ZN13wxListBoxBase19UpdateOldSelectionsEv
_ZN13wxListBoxBase22AppendAndEnsureVisibleERK8wxString
_ZN13wxListBoxBase23DoChangeSingleSelectionEi
_ZN13wxListBoxBase7CommandER14wxCommandEvent
_ZN13wxListBoxBase9SendEventEiib
_ZN13wxListBoxBase9SendEventEiib.cold
_ZN13wxListBoxBaseD0Ev
_ZN13wxListBoxBaseD1Ev
_ZN13wxListBoxBaseD2Ev
_ZN13wxLocaleIdent6RegionERK8wxString
_ZN13wxLocaleIdent6RegionERK8wxString.cold
_ZN13wxLocaleIdent6ScriptERK8wxString
_ZN13wxLocaleIdent6ScriptERK8wxString.cold
_ZN13wxLocaleIdent7CharsetERK8wxString
_ZN13wxLocaleIdent7CharsetERK8wxString.cold
_ZN13wxLocaleIdent7FromTagERK8wxString
_ZN13wxLocaleIdent7FromTagERK8wxString.cold
_ZN13wxLocaleIdent8LanguageERK8wxString
_ZN13wxLocaleIdent8LanguageERK8wxString.cold
_ZN13wxLocaleIdent8ModifierERK8wxString
_ZN13wxLocaleIdent8ModifierERK8wxString.cold
_ZN13wxLocaleIdent9ExtensionERK8wxString
_ZN13wxLocaleIdent9ExtensionERK8wxString.cold
_ZN13wxLocaleIdent9SortOrderERK8wxString
_ZN13wxLocaleIdent9SortOrderERK8wxString.cold
_ZN13wxLocaleIdentC1EOS_
_ZN13wxLocaleIdentC1ERKS_
_ZN13wxLocaleIdentC2EOS_
_ZN13wxLocaleIdentC2ERKS_
_ZN13wxLocaleIdentC5EOS_
_ZN13wxLocaleIdentC5ERKS_
_ZN13wxLocaleIdentD1Ev
_ZN13wxLocaleIdentD2Ev
_ZN13wxLocaleIdentD5Ev
_ZN13wxLogTextCtrl9DoLogTextERK8wxString
_ZN13wxLogTextCtrl9DoLogTextERK8wxString.cold
_ZN13wxLogTextCtrlC1EP10wxTextCtrl
_ZN13wxLogTextCtrlC2EP10wxTextCtrl
_ZN13wxLogTextCtrlD0Ev
_ZN13wxLogTextCtrlD1Ev
_ZN13wxLogTextCtrlD2Ev
_ZN13wxLogTextCtrlD5Ev
_ZN13wxMenuBarBase11UpdateMenusEv
_ZN13wxMenuBarBase13SetHelpStringEiRK8wxString
_ZN13wxMenuBarBase5CheckEib
_ZN13wxMenuBarBase6AppendEP6wxMenuRK8wxString
_ZN13wxMenuBarBase6AttachEP7wxFrame
_ZN13wxMenuBarBase6DetachEv
_ZN13wxMenuBarBase6EnableEb
_ZN13wxMenuBarBase6EnableEib
_ZN13wxMenuBarBase6InsertEmP6wxMenuRK8wxString
_ZN13wxMenuBarBase6RemoveEm
_ZN13wxMenuBarBase7ReplaceEmP6wxMenuRK8wxString
_ZN13wxMenuBarBase8SetLabelEiRK8wxString
_ZN13wxMenuBarBase8SetLabelERK8wxString
_ZN13wxMenuBarBaseC1Ev
_ZN13wxMenuBarBaseC2Ev
_ZN13wxMenuBarBaseC2Ev.cold
_ZN13wxMenuBarBaseD0Ev
_ZN13wxMenuBarBaseD1Ev
_ZN13wxMenuBarBaseD2Ev
_ZN13wxNotifyEvent12ms_classInfoE
_ZN13wxNotifyEvent14wxCreateObjectEv
_ZN13wxNotifyEvent14wxCreateObjectEv.cold
_ZN13wxNotifyEventD0Ev
_ZN13wxNotifyEventD1Ev
_ZN13wxNotifyEventD2Ev
_ZN13wxNotifyEventD5Ev
_ZN13wxOverlayImpl10EndDrawingEP4wxDC
_ZN13wxOverlayImpl12BeginDrawingEP4wxDC
_ZN13wxOverlayImpl15PositionOverlayEP10_GtkWidget
_ZN13wxOverlayImpl4InitEP4wxDCiiii
_ZN13wxOverlayImpl4IsOkEv
_ZN13wxOverlayImpl5ClearEP4wxDC
_ZN13wxOverlayImpl5ResetEv
_ZN13wxOverlayImplC1Ev
_ZN13wxOverlayImplC2Ev
_ZN13wxOverlayImplD0Ev
_ZN13wxOverlayImplD1Ev
_ZN13wxOverlayImplD2Ev
_ZN13wxPaintDCImpl21DestroyClippingRegionEv
_ZN13wxPaintDCImplC1EP9wxPaintDCP8wxWindow
_ZN13wxPaintDCImplC2EP9wxPaintDCP8wxWindow
_ZN13wxPaintDCImplC2EP9wxPaintDCP8wxWindow.cold
_ZN13wxPaintDCImplD0Ev
_ZN13wxPaintDCImplD1Ev
_ZN13wxPaintDCImplD2Ev
_ZN13wxPaintDCImplD5Ev
_ZN13wxPopupWindow12DoMoveWindowEiiii
_ZN13wxPopupWindow12ms_classInfoE
_ZN13wxPopupWindow14wxCreateObjectEv
_ZN13wxPopupWindow14wxCreateObjectEv.cold
_ZN13wxPopupWindow4ShowEb
_ZN13wxPopupWindow4ShowEb.cold
_ZN13wxPopupWindow6CreateEP8wxWindowi
_ZN13wxPopupWindow6CreateEP8wxWindowi.cold
_ZN13wxPopupWindow8SetFocusEv
_ZN13wxPopupWindow9DoSetSizeEiiiii
_ZN13wxPopupWindow9DoSetSizeEiiiii.cold
_ZN13wxPopupWindowD0Ev
_ZN13wxPopupWindowD1Ev
_ZN13wxPopupWindowD2Ev
_ZN13wxPrintDialog10GetPrintDCEv
_ZN13wxPrintDialog12GetPrintDataEv
_ZN13wxPrintDialog12ms_classInfoE
_ZN13wxPrintDialog18GetPrintDialogDataEv
_ZN13wxPrintDialog9ShowModalEv
_ZN13wxPrintDialogC1EP8wxWindowP11wxPrintData
_ZN13wxPrintDialogC1EP8wxWindowP17wxPrintDialogData
_ZN13wxPrintDialogC2EP8wxWindowP11wxPrintData
_ZN13wxPrintDialogC2EP8wxWindowP11wxPrintData.cold
_ZN13wxPrintDialogC2EP8wxWindowP17wxPrintDialogData
_ZN13wxPrintDialogC2EP8wxWindowP17wxPrintDialogData.cold
_ZN13wxPrintDialogD0Ev
_ZN13wxPrintDialogD1Ev
_ZN13wxPrintDialogD2Ev
_ZN13wxPrinterBase10sm_abortItE
_ZN13wxPrinterBase11ReportErrorEP8wxWindowP10wxPrintoutRK8wxString
_ZN13wxPrinterBase11ReportErrorEP8wxWindowP10wxPrintoutRK8wxString.cold
_ZN13wxPrinterBase12ms_classInfoE
_ZN13wxPrinterBase12sm_lastErrorE
_ZN13wxPrinterBase14sm_abortWindowE
_ZN13wxPrinterBase17CreateAbortWindowEP8wxWindowP10wxPrintout
_ZN13wxPrinterBase17CreateAbortWindowEP8wxWindowP10wxPrintout.cold
_ZN13wxPrinterBaseC1EP17wxPrintDialogData
_ZN13wxPrinterBaseC2EP17wxPrintDialogData
_ZN13wxPrinterBaseC2EP17wxPrintDialogData.cold
_ZN13wxPrinterBaseD0Ev
_ZN13wxPrinterBaseD1Ev
_ZN13wxPrinterBaseD2Ev
_ZN13wxProtocolLog10LogRequestERK8wxString
_ZN13wxProtocolLog11DoLogStringERK8wxString
_ZN13wxProtocolLog11DoLogStringERK8wxString.cold
_ZN13wxProtocolLog11LogResponseERK8wxString
_ZN13wxProtocolLogD0Ev
_ZN13wxProtocolLogD1Ev
_ZN13wxProtocolLogD2Ev
_ZN13wxProtocolLogD5Ev
_ZN13wxRadioButton12ms_classInfoE
_ZN13wxRadioButton14wxCreateObjectEv
_ZN13wxRadioButton14wxCreateObjectEv.cold
_ZN13wxRadioButton18DoApplyWidgetStyleEP11_GtkRcStyle
_ZN13wxRadioButton25GetClassDefaultAttributesE15wxWindowVariant
_ZN13wxRadioButton6CreateEP8wxWindowiRK8wxStringRK7wxPointRK6wxSizelRK11wxValidatorS4_
_ZN13wxRadioButton6CreateEP8wxWindowiRK8wxStringRK7wxPointRK6wxSizelRK11wxValidatorS4_.cold
_ZN13wxRadioButton8DoEnableEb
_ZN13wxRadioButton8SetLabelERK8wxString
_ZN13wxRadioButton8SetValueEb
_ZN13wxRadioButtonD0Ev
_ZN13wxRadioButtonD1Ev
_ZN13wxRadioButtonD2Ev
_ZN13wxRadioButtonD5Ev
_ZN13wxRendererGTK10DrawChoiceEP8wxWindowR4wxDCRK6wxRecti
_ZN13wxRendererGTK12DrawCheckBoxEP8wxWindowR4wxDCRK6wxRecti
_ZN13wxRendererGTK12DrawCheckBoxEP8wxWindowR4wxDCRK6wxRecti.cold
_ZN13wxRendererGTK12DrawComboBoxEP8wxWindowR4wxDCRK6wxRecti
_ZN13wxRendererGTK12DrawTextCtrlEP8wxWindowR4wxDCRK6wxRecti
_ZN13wxRendererGTK12DrawTextCtrlEP8wxWindowR4wxDCRK6wxRecti.cold
_ZN13wxRendererGTK13DrawDropArrowEP8wxWindowR4wxDCRK6wxRecti
_ZN13wxRendererGTK13DrawDropArrowEP8wxWindowR4wxDCRK6wxRecti.cold
_ZN13wxRendererGTK13DrawFocusRectEP8wxWindowR4wxDCRK6wxRecti
_ZN13wxRendererGTK14DrawPushButtonEP8wxWindowR4wxDCRK6wxRecti
_ZN13wxRendererGTK15DrawRadioBitmapEP8wxWindowR4wxDCRK6wxRecti
_ZN13wxRendererGTK15DrawRadioBitmapEP8wxWindowR4wxDCRK6wxRecti.cold
_ZN13wxRendererGTK15GetCheckBoxSizeEP8wxWindowi
_ZN13wxRendererGTK15GetCheckBoxSizeEP8wxWindowi.cold
_ZN13wxRendererGTK16DrawHeaderButtonEP8wxWindowR4wxDCRK6wxRecti20wxHeaderSortIconTypeP20wxHeaderButtonParams
_ZN13wxRendererGTK16DrawHeaderButtonEP8wxWindowR4wxDCRK6wxRecti20wxHeaderSortIconTypeP20wxHeaderButtonParams.cold
_ZN13wxRendererGTK16DrawSplitterSashEP8wxWindowR4wxDCRK6wxSizei13wxOrientationi
_ZN13wxRendererGTK16DrawSplitterSashEP8wxWindowR4wxDCRK6wxSizei13wxOrientationi.cold
_ZN13wxRendererGTK17GetSplitterParamsEPK8wxWindow
_ZN13wxRendererGTK18DrawSplitterBorderEP8wxWindowR4wxDCRK6wxRecti
_ZN13wxRendererGTK18DrawTreeItemButtonEP8wxWindowR4wxDCRK6wxRecti
_ZN13wxRendererGTK21DrawItemSelectionRectEP8wxWindowR4wxDCRK6wxRecti
_ZN13wxRendererGTK21GetHeaderButtonHeightEP8wxWindow
_ZN13wxRendererGTK21GetHeaderButtonMarginEP8wxWindow
_ZN13wxRendererGTK22DrawComboBoxDropButtonEP8wxWindowR4wxDCRK6wxRecti
_ZN13wxRendererGTKD0Ev
_ZN13wxRendererGTKD1Ev
_ZN13wxRendererGTKD2Ev
_ZN13wxRendererGTKD5Ev
_ZN13wxRendererPtr3GetEv
_ZN13wxRendererPtrD1Ev
_ZN13wxRendererPtrD2Ev
_ZN13wxRendererPtrD5Ev
_ZN13wxRibbonPanel10CommonInitERK8wxStringRK8wxBitmapl
_ZN13wxRibbonPanel11OnKillFocusER12wxFocusEvent
_ZN13wxRibbonPanel11RemoveChildEP12wxWindowBase
_ZN13wxRibbonPanel11RemoveChildEP12wxWindowBase.cold
_ZN13wxRibbonPanel12HideExpandedEv
_ZN13wxRibbonPanel12ms_classInfoE
_ZN13wxRibbonPanel12OnMouseClickER12wxMouseEvent
_ZN13wxRibbonPanel12OnMouseClickER12wxMouseEvent.cold
_ZN13wxRibbonPanel12OnMouseEnterER12wxMouseEvent
_ZN13wxRibbonPanel12OnMouseLeaveER12wxMouseEvent
_ZN13wxRibbonPanel12ShowExpandedEv
_ZN13wxRibbonPanel12ShowExpandedEv.cold
_ZN13wxRibbonPanel13sm_eventTableE
_ZN13wxRibbonPanel14HideIfExpandedEv
_ZN13wxRibbonPanel14SetArtProviderEP19wxRibbonArtProvider
_ZN13wxRibbonPanel16GetExpandedDummyEv
_ZN13wxRibbonPanel16GetExpandedPanelEv
_ZN13wxRibbonPanel16OnChildKillFocusER12wxFocusEvent
_ZN13wxRibbonPanel16OnChildKillFocusER12wxFocusEvent.cold
_ZN13wxRibbonPanel17OnEraseBackgroundER12wxEraseEvent
_ZN13wxRibbonPanel17OnMouseEnterChildER12wxMouseEvent
_ZN13wxRibbonPanel17OnMouseEnterChildER12wxMouseEvent.localalias
_ZN13wxRibbonPanel17OnMouseLeaveChildER12wxMouseEvent
_ZN13wxRibbonPanel17sm_eventHashTableE
_ZN13wxRibbonPanel19GetExpandedPositionE6wxRect6wxSize11wxDirection
_ZN13wxRibbonPanel20sm_eventTableEntriesE
_ZN13wxRibbonPanel20TestPositionForHoverERK7wxPoint
_ZN13wxRibbonPanel22ShouldSendEventToDummyER7wxEvent
_ZN13wxRibbonPanel6CreateEP8wxWindowiRK8wxStringRK8wxBitmapRK7wxPointRK6wxSizel
_ZN13wxRibbonPanel6CreateEP8wxWindowiRK8wxStringRK8wxBitmapRK7wxPointRK6wxSizel.cold
_ZN13wxRibbonPanel6LayoutEv
_ZN13wxRibbonPanel6LayoutEv.cold
_ZN13wxRibbonPanel6OnSizeER11wxSizeEvent
_ZN13wxRibbonPanel7OnPaintER12wxPaintEvent
_ZN13wxRibbonPanel7OnPaintER12wxPaintEvent.cold
_ZN13wxRibbonPanel7RealizeEv
_ZN13wxRibbonPanel7RealizeEv.cold
_ZN13wxRibbonPanel8AddChildEP12wxWindowBase
_ZN13wxRibbonPanel8OnMotionER12wxMouseEvent
_ZN13wxRibbonPanel8TryAfterER7wxEvent
_ZN13wxRibbonPanel8TryAfterER7wxEvent.cold
_ZN13wxRibbonPanel9DoSetSizeEiiiii
_ZN13wxRibbonPanelC1EP8wxWindowiRK8wxStringRK8wxBitmapRK7wxPointRK6wxSizel
_ZN13wxRibbonPanelC1Ev
_ZN13wxRibbonPanelC2EP8wxWindowiRK8wxStringRK8wxBitmapRK7wxPointRK6wxSizel
_ZN13wxRibbonPanelC2EP8wxWindowiRK8wxStringRK8wxBitmapRK7wxPointRK6wxSizel.cold
_ZN13wxRibbonPanelC2Ev
_ZN13wxRibbonPanelD0Ev
_ZN13wxRibbonPanelD1Ev
_ZN13wxRibbonPanelD2Ev
_ZN13wxRichTextBox12ms_classInfoE
_ZN13wxRichTextBox14EditPropertiesEP8wxWindowP16wxRichTextBuffer
_ZN13wxRichTextBox14EditPropertiesEP8wxWindowP16wxRichTextBuffer.cold
_ZN13wxRichTextBox14wxCreateObjectEv
_ZN13wxRichTextBox14wxCreateObjectEv.cold
_ZN13wxRichTextBox4CopyERKS_
_ZN13wxRichTextBox4DrawER4wxDCR24wxRichTextDrawingContextRK15wxRichTextRangeRK19wxRichTextSelectionRK6wxRectii
_ZN13wxRichTextBoxC1EP16wxRichTextObject
_ZN13wxRichTextBoxC2EP16wxRichTextObject
_ZN13wxRichTextBoxD0Ev
_ZN13wxRichTextBoxD1Ev
_ZN13wxRichTextBoxD2Ev
_ZN13wxRichTextBoxD5Ev
_ZN13wxRichToolTip10SetTimeoutEjj
_ZN13wxRichToolTip10SetTipKindE9wxTipKind
_ZN13wxRichToolTip12SetTitleFontERK6wxFont
_ZN13wxRichToolTip19SetBackgroundColourERK8wxColourS2_
_ZN13wxRichToolTip7SetIconEi
_ZN13wxRichToolTip7SetIconERK14wxBitmapBundle
_ZN13wxRichToolTip7ShowForEP8wxWindowPK6wxRect
_ZN13wxRichToolTipC1ERK8wxStringS2_
_ZN13wxRichToolTipC2ERK8wxStringS2_
_ZN13wxRichToolTipD1Ev
_ZN13wxRichToolTipD2Ev
_ZN13wxScopedArrayI8wxStringED1Ev
_ZN13wxScopedArrayI8wxStringED2Ev
_ZN13wxScopedArrayI8wxStringED5Ev
_ZN13wxScrollEvent12ms_classInfoE
_ZN13wxScrollEvent14wxCreateObjectEv
_ZN13wxScrollEvent14wxCreateObjectEv.cold
_ZN13wxScrollEventC1Eiiii
_ZN13wxScrollEventC2Eiiii
_ZN13wxScrollEventD0Ev
_ZN13wxScrollEventD1Ev
_ZN13wxScrollEventD2Ev
_ZN13wxScrollEventD5Ev
_ZN13wxSecretValueC1ERK8wxString
_ZN13wxSecretValueC2ERK8wxString
_ZN13wxSecretValueC5ERK8wxString
_ZN13wxSockAddress10SetAddressERK17wxSockAddressImpl
_ZN13wxSockAddress12ms_classInfoE
_ZN13wxSockAddress4InitEv
_ZN13wxSockAddress5ClearEv
_ZN13wxSockAddressaSERKS_
_ZN13wxSockAddressC1ERKS_
_ZN13wxSockAddressC1Ev
_ZN13wxSockAddressC2ERKS_
_ZN13wxSockAddressC2ERKS_.cold
_ZN13wxSockAddressC2Ev
_ZN13wxSockAddressC2Ev.cold
_ZN13wxSockAddressD0Ev
_ZN13wxSockAddressD1Ev
_ZN13wxSockAddressD2Ev
_ZN13wxSocketEvent12ms_classInfoE
_ZN13wxSocketEvent14wxCreateObjectEv
_ZN13wxSocketEvent14wxCreateObjectEv.cold
_ZN13wxSocketEventD0Ev
_ZN13wxSocketEventD1Ev
_ZN13wxSocketEventD2Ev
_ZN13wxSocketEventD5Ev
_ZN13wxSocketStateD0Ev
_ZN13wxSocketStateD1Ev
_ZN13wxSocketStateD2Ev
_ZN13wxSocketStateD5Ev
_ZN13wxStackWalker10InitFramesEP12wxStackFramemPPvPPc
_ZN13wxStackWalker10InitFramesEP12wxStackFramemPPvPPc.cold
_ZN13wxStackWalker10ms_exepathE
_ZN13wxStackWalker10ms_symbolsE
_ZN13wxStackWalker12ms_addressesE
_ZN13wxStackWalker13ProcessFramesEm
_ZN13wxStackWalker13ProcessFramesEm.cold
_ZN13wxStackWalker17WalkFromExceptionEm
_ZN13wxStackWalker4WalkEmm
_ZN13wxStackWalker4WalkEmm.localalias
_ZN13wxStackWalker7m_depthE
_ZN13wxStackWalker9FreeStackEv
_ZN13wxStackWalker9SaveStackEm
_ZN13wxTarEntryPtr5resetEP10wxTarEntry
_ZN13wxTarEntryPtrD1Ev
_ZN13wxTarEntryPtrD2Ev
_ZN13wxTaskBarIcon10RemoveIconEv
_ZN13wxTaskBarIcon10RemoveIconEv.cold
_ZN13wxTaskBarIcon12ms_classInfoE
_ZN13wxTaskBarIcon14wxCreateObjectEv
_ZN13wxTaskBarIcon14wxCreateObjectEv.cold
_ZN13wxTaskBarIcon7Private7SetIconEv
_ZN13wxTaskBarIcon7Private7SetIconEv.cold
_ZN13wxTaskBarIcon7PrivateC1EPS_
_ZN13wxTaskBarIcon7PrivateC2EPS_
_ZN13wxTaskBarIcon7PrivateD1Ev
_ZN13wxTaskBarIcon7PrivateD2Ev
_ZN13wxTaskBarIcon7SetIconERK14wxBitmapBundleRK8wxString
_ZN13wxTaskBarIcon9PopupMenuEP6wxMenu
_ZN13wxTaskBarIcon9PopupMenuEP6wxMenu.cold
_ZN13wxTaskBarIconC1E17wxTaskBarIconType
_ZN13wxTaskBarIconC2E17wxTaskBarIconType
_ZN13wxTaskBarIconC2E17wxTaskBarIconType.cold
_ZN13wxTaskBarIconD0Ev
_ZN13wxTaskBarIconD1Ev
_ZN13wxTaskBarIconD2Ev
_ZN13wxTextBoxAttr11RemoveStyleERKS_
_ZN13wxTextBoxAttr11RemoveStyleERKS_.cold
_ZN13wxTextBoxAttr23CollectCommonAttributesERKS_RS_S2_
_ZN13wxTextBoxAttr5ApplyERKS_PS0_
_ZN13wxTextBoxAttr5ResetEv
_ZN13wxTextMeasure12EndMeasuringEv
_ZN13wxTextMeasure14BeginMeasuringEv
_ZN13wxTextMeasure14BeginMeasuringEv.cold
_ZN13wxTextMeasure15DoGetTextExtentERK8wxStringPiS3_S3_S3_
_ZN13wxTextMeasure15DoGetTextExtentERK8wxStringPiS3_S3_S3_.cold
_ZN13wxTextMeasure23DoGetPartialTextExtentsERK8wxStringR10wxArrayIntd
_ZN13wxTextMeasure23DoGetPartialTextExtentsERK8wxStringR10wxArrayIntd.cold
_ZN13wxTextMeasure4InitEv
_ZN13wxTextMeasureD0Ev
_ZN13wxTextMeasureD1Ev
_ZN13wxTextMeasureD2Ev
_ZN13wxTextMeasureD5Ev
_ZN13wxTextWrapper4WrapEP8wxWindowRK8wxStringi
_ZN13wxTextWrapper4WrapEP8wxWindowRK8wxStringi.cold
_ZN13wxTextWrapper9OnNewLineEv
_ZN13wxThreadEvent12ms_classInfoE
_ZN13wxThreadEvent14wxCreateObjectEv
_ZN13wxThreadEvent14wxCreateObjectEv.cold
_ZN13wxThreadEventC1ERKS_
_ZN13wxThreadEventC2ERKS_
_ZN13wxThreadEventC5ERKS_
_ZN13wxThreadEventD0Ev
_ZN13wxThreadEventD1Ev
_ZN13wxThreadEventD2Ev
_ZN13wxThreadEventD5Ev
_ZN13wxTIFFHandler12ms_classInfoE
_ZN13wxTIFFHandler14wxCreateObjectEv
_ZN13wxTIFFHandler14wxCreateObjectEv.cold
_ZN13wxTIFFHandler15DoGetImageCountER13wxInputStream
_ZN13wxTIFFHandler21GetLibraryVersionInfoEv
_ZN13wxTIFFHandler21GetLibraryVersionInfoEv.cold
_ZN13wxTIFFHandler8LoadFileEP7wxImageR13wxInputStreambi
_ZN13wxTIFFHandler8LoadFileEP7wxImageR13wxInputStreambi.cold
_ZN13wxTIFFHandler8SaveFileEP7wxImageR14wxOutputStreamb
_ZN13wxTIFFHandler8SaveFileEP7wxImageR14wxOutputStreamb.cold
_ZN13wxTIFFHandler9DoCanReadER13wxInputStream
_ZN13wxTIFFHandlerC1Ev
_ZN13wxTIFFHandlerC2Ev
_ZN13wxTIFFHandlerC2Ev.cold
_ZN13wxTIFFHandlerD0Ev
_ZN13wxTIFFHandlerD1Ev
_ZN13wxTIFFHandlerD2Ev
_ZN13wxTIFFHandlerD5Ev
_ZN13wxTLWGeometry7ApplyToEP16wxTopLevelWindow
_ZN13wxTLWGeometry7GetFromEPK16wxTopLevelWindow
_ZN13wxTLWGeometry7RestoreERN20wxTopLevelWindowBase18GeometrySerializerE
_ZN13wxTLWGeometryD0Ev
_ZN13wxTLWGeometryD1Ev
_ZN13wxTLWGeometryD2Ev
_ZN13wxTLWGeometryD5Ev
_ZN13wxToolBarBase10AddControlEP9wxControlRK8wxString
_ZN13wxToolBarBase10ClearToolsEv
_ZN13wxToolBarBase10DeleteToolEi
_ZN13wxToolBarBase10EnableToolEib
_ZN13wxToolBarBase10FixupStyleEv
_ZN13wxToolBarBase10InsertToolEmiRK8wxStringRK14wxBitmapBundleS5_10wxItemKindS2_S2_P8wxObject
_ZN13wxToolBarBase10InsertToolEmP17wxToolBarToolBase
_ZN13wxToolBarBase10RemoveToolEi
_ZN13wxToolBarBase10SetMarginsEii
_ZN13wxToolBarBase10ToggleToolEib
_ZN13wxToolBarBase11FindControlEi
_ZN13wxToolBarBase11OnLeftClickEib
_ZN13wxToolBarBase11OnLeftClickEib.cold
_ZN13wxToolBarBase12AddSeparatorEv
_ZN13wxToolBarBase12OnMouseEnterEi
_ZN13wxToolBarBase12OnMouseEnterEi.cold
_ZN13wxToolBarBase12OnRightClickEill
_ZN13wxToolBarBase12OnRightClickEill.cold
_ZN13wxToolBarBase13InsertControlEmP9wxControlRK8wxString
_ZN13wxToolBarBase13sm_eventTableE
_ZN13wxToolBarBase14SetToolPackingEi
_ZN13wxToolBarBase14UpdateWindowUIEl
_ZN13wxToolBarBase14UpdateWindowUIEl.cold
_ZN13wxToolBarBase15CreateSeparatorEv
_ZN13wxToolBarBase15DeleteToolByPosEm
_ZN13wxToolBarBase15InsertSeparatorEm
_ZN13wxToolBarBase15InsertSeparatorEm.localalias
_ZN13wxToolBarBase15SetDropdownMenuEiP6wxMenu
_ZN13wxToolBarBase15SetToolLongHelpEiRK8wxString
_ZN13wxToolBarBase16SetToolShortHelpEiRK8wxString
_ZN13wxToolBarBase17SetToolBitmapSizeERK6wxSize
_ZN13wxToolBarBase17SetToolClientDataEiP8wxObject
_ZN13wxToolBarBase17SetToolSeparationEi
_ZN13wxToolBarBase17sm_eventHashTableE
_ZN13wxToolBarBase18UnToggleRadioGroupEP17wxToolBarToolBase
_ZN13wxToolBarBase19AddStretchableSpaceEv
_ZN13wxToolBarBase19DoSetToolBitmapSizeERK6wxSize
_ZN13wxToolBarBase19DoSetToolBitmapSizeERK6wxSize.localalias
_ZN13wxToolBarBase19SetToolNormalBitmapEiRK14wxBitmapBundle
_ZN13wxToolBarBase20AdjustToolBitmapSizeEv
_ZN13wxToolBarBase20AdjustToolBitmapSizeEv.cold
_ZN13wxToolBarBase20sm_eventTableEntriesE
_ZN13wxToolBarBase21SetToolDisabledBitmapEiRK14wxBitmapBundle
_ZN13wxToolBarBase22InsertStretchableSpaceEm
_ZN13wxToolBarBase7AddToolEiRK8wxStringRK14wxBitmapBundleS2_10wxItemKind
_ZN13wxToolBarBase7AddToolEP17wxToolBarToolBase
_ZN13wxToolBarBase7RealizeEv
_ZN13wxToolBarBase7SetRowsEi
_ZN13wxToolBarBase9DoAddToolEiRK8wxStringRK14wxBitmapBundleS5_10wxItemKindS2_S2_P8wxObjectii
_ZN13wxToolBarBase9SetToggleEib
_ZN13wxToolBarBaseC1Ev
_ZN13wxToolBarBaseC2Ev
_ZN13wxToolBarBaseC2Ev.cold
_ZN13wxToolBarBaseD0Ev
_ZN13wxToolBarBaseD1Ev
_ZN13wxToolBarBaseD2Ev
_ZN13wxToolBarTool12ShowDropdownEP16_GtkToggleButton
_ZN13wxToolBarTool12ShowDropdownEP16_GtkToggleButton.cold
_ZN13wxToolBarTool14CreateDropDownEv
_ZN13wxToolBarTool8SetImageEv
_ZN13wxToolBarTool8SetImageEv.cold
_ZN13wxToolBarTool8SetLabelERK8wxString
_ZN13wxToolBarTool8SetLabelERK8wxString.cold
_ZN13wxToolBarToolD0Ev
_ZN13wxToolBarToolD1Ev
_ZN13wxToolBarToolD2Ev
_ZN13wxToolBarToolD5Ev
_ZN13wxTrackerNode17ToEventConnectionEv
_ZN13wxUNIXaddress12ms_classInfoE
_ZN13wxUNIXaddress14wxCreateObjectEv
_ZN13wxUNIXaddress14wxCreateObjectEv.cold
_ZN13wxUNIXaddress4TypeEv
_ZN13wxUNIXaddress7GetUNIXEv
_ZN13wxUNIXaddress8FilenameERK8wxString
_ZN13wxUNIXaddressD0Ev
_ZN13wxUNIXaddressD1Ev
_ZN13wxUNIXaddressD2Ev
_ZN13wxUNIXaddressD5Ev
_ZN13wxVariantData17GetValueClassInfoEv
_ZN13wxVariantData4ReadER8wxString
_ZN13wxVariantData4ReadERSi
_ZN13wxVariantList10CreateNodeEP10wxNodeBaseS1_PvRK9wxListKey
_ZN13wxVariantListD0Ev
_ZN13wxVariantListD1Ev
_ZN13wxVariantListD2Ev
_ZN13wxVariantListD5Ev
_ZN13wxVersionInfoD1Ev
_ZN13wxVersionInfoD2Ev
_ZN13wxVersionInfoD5Ev
_ZN13wxWCharBufferD1Ev
_ZN13wxWCharBufferD2Ev
_ZN13wxWCharBufferD5Ev
_ZN13wxWindowIDRefD1Ev
_ZN13wxWindowIDRefD2Ev
_ZN13wxWindowIDRefD5Ev
_ZN13wxWizardEvent12ms_classInfoE
_ZN13wxWizardEvent14wxCreateObjectEv
_ZN13wxWizardEvent14wxCreateObjectEv.cold
_ZN13wxWizardEventC1EiibP12wxWizardPage
_ZN13wxWizardEventC2EiibP12wxWizardPage
_ZN13wxWizardEventD0Ev
_ZN13wxWizardEventD1Ev
_ZN13wxWizardEventD2Ev
_ZN13wxWizardEventD5Ev
_ZN13wxWizardSizer11RecalcSizesEv
_ZN13wxWizardSizer11SiblingSizeEP11wxSizerItem
_ZN13wxWizardSizer15GetMaxChildSizeEv
_ZN13wxWizardSizer6InsertEmP11wxSizerItem
_ZN13wxWizardSizer7CalcMinEv
_ZN13wxWizardSizer9HidePagesEv
_ZN13wxWizardSizerC1EP8wxWizard
_ZN13wxWizardSizerC2EP8wxWizard
_ZN13wxWizardSizerC2EP8wxWizard.cold
_ZN13wxWizardSizerD0Ev
_ZN13wxWizardSizerD1Ev
_ZN13wxWizardSizerD2Ev
_ZN13wxWizardSizerD5Ev
_ZN13wxXmlDocument10DetachRootEv
_ZN13wxXmlDocument11SetFileTypeE14wxTextFileType
_ZN13wxXmlDocument12ms_classInfoE
_ZN13wxXmlDocument14AppendToPrologEP9wxXmlNode
_ZN13wxXmlDocument14AppendToPrologEP9wxXmlNode.cold
_ZN13wxXmlDocument21GetLibraryVersionInfoEv
_ZN13wxXmlDocument21GetLibraryVersionInfoEv.cold
_ZN13wxXmlDocument4LoadER13wxInputStreamRK8wxStringi
_ZN13wxXmlDocument4LoadER13wxInputStreamRK8wxStringi.cold
_ZN13wxXmlDocument4LoadERK8wxStringS2_i
_ZN13wxXmlDocument4LoadERK8wxStringS2_i.cold
_ZN13wxXmlDocument6DoCopyERKS_
_ZN13wxXmlDocument6DoCopyERKS_.cold
_ZN13wxXmlDocument7SetRootEP9wxXmlNode
_ZN13wxXmlDocument7SetRootEP9wxXmlNode.cold
_ZN13wxXmlDocumentaSERKS_
_ZN13wxXmlDocumentC1ER13wxInputStreamRK8wxString
_ZN13wxXmlDocumentC1ERK8wxStringS2_
_ZN13wxXmlDocumentC1ERKS_
_ZN13wxXmlDocumentC1Ev
_ZN13wxXmlDocumentC2ER13wxInputStreamRK8wxString
_ZN13wxXmlDocumentC2ER13wxInputStreamRK8wxString.cold
_ZN13wxXmlDocumentC2ERK8wxStringS2_
_ZN13wxXmlDocumentC2ERK8wxStringS2_.cold
_ZN13wxXmlDocumentC2ERKS_
_ZN13wxXmlDocumentC2ERKS_.cold
_ZN13wxXmlDocumentC2Ev
_ZN13wxXmlDocumentC2Ev.cold
_ZN13wxXmlDocumentD0Ev
_ZN13wxXmlDocumentD1Ev
_ZN13wxXmlDocumentD2Ev
_ZN13wxXmlDocumentD5Ev
_ZN13wxXmlResource10AddHandlerEP20wxXmlResourceHandler
_ZN13wxXmlResource10AddHandlerEP20wxXmlResourceHandler.cold
_ZN13wxXmlResource10DoGetXRCIDEPKci
_ZN13wxXmlResource10DoLoadFileERK8wxString
_ZN13wxXmlResource10DoLoadFileERK8wxString.cold
_ZN13wxXmlResource10LoadBitmapERK8wxString
_ZN13wxXmlResource10LoadBitmapERK8wxString.cold
_ZN13wxXmlResource10LoadDialogEP8wxDialogP8wxWindowRK8wxString
_ZN13wxXmlResource10LoadDialogEP8wxDialogP8wxWindowRK8wxString.cold
_ZN13wxXmlResource10LoadDialogEP8wxWindowRK8wxString
_ZN13wxXmlResource10LoadDialogEP8wxWindowRK8wxString.cold
_ZN13wxXmlResource11LoadMenuBarEP8wxWindowRK8wxString
_ZN13wxXmlResource11LoadMenuBarEP8wxWindowRK8wxString.cold
_ZN13wxXmlResource11LoadToolBarEP8wxWindowRK8wxString
_ZN13wxXmlResource11LoadToolBarEP8wxWindowRK8wxString.cold
_ZN13wxXmlResource11ms_instanceE
_ZN13wxXmlResource11ReportErrorEPK9wxXmlNodeRK8wxString
_ZN13wxXmlResource11ReportErrorEPK9wxXmlNodeRK8wxString.cold
_ZN13wxXmlResource12DoLoadObjectEP8wxObjectP8wxWindowRK8wxStringS6_b
_ZN13wxXmlResource12DoLoadObjectEP8wxWindowRK8wxStringS4_b
_ZN13wxXmlResource12FindResourceERK8wxStringS2_b
_ZN13wxXmlResource12FindResourceERK8wxStringS2_b.cold
_ZN13wxXmlResource12LoadAllFilesERK8wxString
_ZN13wxXmlResource12LoadAllFilesERK8wxString.cold
_ZN13wxXmlResource12LoadDocumentEP13wxXmlDocumentRK8wxString
_ZN13wxXmlResource12LoadDocumentEP13wxXmlDocumentRK8wxString.cold
_ZN13wxXmlResource13ClearHandlersEv
_ZN13wxXmlResource13DoReportErrorERK8wxStringPK9wxXmlNodeS2_
_ZN13wxXmlResource13DoReportErrorERK8wxStringPK9wxXmlNodeS2_.cold
_ZN13wxXmlResource13FindXRCIDByIdEi
_ZN13wxXmlResource13InsertHandlerEP20wxXmlResourceHandler
_ZN13wxXmlResource13InsertHandlerEP20wxXmlResourceHandler.cold
_ZN13wxXmlResource14DoLoadDocumentERK13wxXmlDocument
_ZN13wxXmlResource14DoLoadDocumentERK13wxXmlDocument.cold
_ZN13wxXmlResource15InitAllHandlersEv
_ZN13wxXmlResource15InitAllHandlersEv.cold
_ZN13wxXmlResource15UpdateResourcesEv
_ZN13wxXmlResource18AddSubclassFactoryEP20wxXmlSubclassFactory
_ZN13wxXmlResource19DoCreateResFromNodeER9wxXmlNodeP8wxObjectS3_P20wxXmlResourceHandler
_ZN13wxXmlResource19DoCreateResFromNodeER9wxXmlNodeP8wxObjectS3_P20wxXmlResourceHandler.cold
_ZN13wxXmlResource19DoCreateResFromNodeER9wxXmlNodeP8wxObjectS3_P20wxXmlResourceHandler.localalias
_ZN13wxXmlResource20AttachUnknownControlERK8wxStringP8wxWindowS4_
_ZN13wxXmlResource20AttachUnknownControlERK8wxStringP8wxWindowS4_.cold
_ZN13wxXmlResource20ConvertFileNameToURLERK8wxString
_ZN13wxXmlResource20ConvertFileNameToURLERK8wxString.cold
_ZN13wxXmlResource20ms_subclassFactoriesE
_ZN13wxXmlResource3GetEv
_ZN13wxXmlResource3GetEv.cold
_ZN13wxXmlResource3SetEPS_
_ZN13wxXmlResource4LoadERK8wxString
_ZN13wxXmlResource4LoadERK8wxString.cold
_ZN13wxXmlResource4LoadERK8wxString.localalias
_ZN13wxXmlResource6UnloadERK8wxString
_ZN13wxXmlResource6UnloadERK8wxString.cold
_ZN13wxXmlResource8LoadFileERK10wxFileName
_ZN13wxXmlResource8LoadFileERK10wxFileName.cold
_ZN13wxXmlResource8LoadIconERK8wxString
_ZN13wxXmlResource8LoadIconERK8wxString.cold
_ZN13wxXmlResource8LoadMenuERK8wxString
_ZN13wxXmlResource8LoadMenuERK8wxString.cold
_ZN13wxXmlResource9IsArchiveERK8wxString
_ZN13wxXmlResource9IsArchiveERK8wxString.cold
_ZN13wxXmlResource9LoadFrameEP7wxFrameP8wxWindowRK8wxString
_ZN13wxXmlResource9LoadFrameEP7wxFrameP8wxWindowRK8wxString.cold
_ZN13wxXmlResource9LoadFrameEP8wxWindowRK8wxString
_ZN13wxXmlResource9LoadFrameEP8wxWindowRK8wxString.cold
_ZN13wxXmlResource9LoadPanelEP7wxPanelP8wxWindowRK8wxString
_ZN13wxXmlResource9LoadPanelEP7wxPanelP8wxWindowRK8wxString.cold
_ZN13wxXmlResource9LoadPanelEP8wxWindowRK8wxString
_ZN13wxXmlResource9LoadPanelEP8wxWindowRK8wxString.cold
_ZN13wxXmlResource9SetDomainERK8wxString
_ZN13wxXmlResourceC1EiRK8wxString
_ZN13wxXmlResourceC1ERK8wxStringiS2_
_ZN13wxXmlResourceC2EiRK8wxString
_ZN13wxXmlResourceC2EiRK8wxString.cold
_ZN13wxXmlResourceC2ERK8wxStringiS2_
_ZN13wxXmlResourceC2ERK8wxStringiS2_.cold
_ZN13wxXmlResourceD0Ev
_ZN13wxXmlResourceD0Ev.localalias
_ZN13wxXmlResourceD1Ev
_ZN13wxXmlResourceD2Ev
_ZN14AutoCheckTimer6NotifyEv
_ZN14AutoCheckTimerD0Ev
_ZN14AutoCheckTimerD1Ev
_ZN14AutoCheckTimerD2Ev
_ZN14AutoCheckTimerD5Ev
_ZN14CleverListCtrl13sm_eventTableE
_ZN14CleverListCtrl17sm_eventHashTableE
_ZN14CleverListCtrl20sm_eventTableEntriesE
_ZN14CleverListCtrl6OnSizeER11wxSizeEvent
_ZN14CleverListCtrlD0Ev
_ZN14CleverListCtrlD1Ev
_ZN14CleverListCtrlD2Ev
_ZN14CleverListCtrlD5Ev
_ZN14DynamicLibrary4LoadEPKc
_ZN14DynamicLibrary4LoadEPKc.cold
_ZN14FontWidthCacheD1Ev
_ZN14FontWidthCacheD2Ev
_ZN14FontWidthCacheD5Ev
_ZN14GTKFDIOManager11RemoveInputEP13wxFDIOHandleriN13wxFDIOManager9DirectionE
_ZN14GTKFDIOManager8AddInputEP13wxFDIOHandleriN13wxFDIOManager9DirectionE
_ZN14GTKFDIOManagerD0Ev
_ZN14GTKFDIOManagerD1Ev
_ZN14GTKFDIOManagerD2Ev
_ZN14GTKFDIOManagerD5Ev
_ZN14wxAccelRefDataD0Ev
_ZN14wxAccelRefDataD1Ev
_ZN14wxAccelRefDataD2Ev
_ZN14wxAccelRefDataD5Ev
_ZN14wxArchiveEntry11SetNotifierER17wxArchiveNotifier
_ZN14wxArchiveEntry12ms_classInfoE
_ZN14wxArchiveEntry13UnsetNotifierEv
_ZN14wxArchiveEntryaSERKS_
_ZN14wxBannerWindow11GetBitmapBgEv
_ZN14wxBannerWindow11GetBitmapBgEv.cold
_ZN14wxBannerWindow11SetGradientERK8wxColourS2_
_ZN14wxBannerWindow13sm_eventTableE
_ZN14wxBannerWindow17sm_eventHashTableE
_ZN14wxBannerWindow18DrawBannerTextLineER4wxDCRK8wxStringRK7wxPoint
_ZN14wxBannerWindow20DrawBitmapBackgroundER4wxDC
_ZN14wxBannerWindow20DrawBitmapBackgroundER4wxDC.cold
_ZN14wxBannerWindow20sm_eventTableEntriesE
_ZN14wxBannerWindow4InitEv
_ZN14wxBannerWindow6CreateEP8wxWindowi11wxDirectionRK7wxPointRK6wxSizelRK8wxString
_ZN14wxBannerWindow6OnSizeER11wxSizeEvent
_ZN14wxBannerWindow7OnPaintER12wxPaintEvent
_ZN14wxBannerWindow7OnPaintER12wxPaintEvent.cold
_ZN14wxBannerWindow7SetTextERK8wxStringS2_
_ZN14wxBannerWindow9SetBitmapERK14wxBitmapBundle
_ZN14wxBannerWindow9SetBitmapERK14wxBitmapBundle.cold
_ZN14wxBannerWindowD0Ev
_ZN14wxBannerWindowD1Ev
_ZN14wxBannerWindowD2Ev
_ZN14wxBannerWindowD5Ev
_ZN14wxBitmapBundle11FromBitmapsERK8wxVectorI8wxBitmapE
_ZN14wxBitmapBundle11FromBitmapsERK8wxVectorI8wxBitmapE.cold
_ZN14wxBitmapBundle11FromSVGFileERK8wxStringRK6wxSize
_ZN14wxBitmapBundle11FromSVGFileERK8wxStringRK6wxSize.cold
_ZN14wxBitmapBundle13FromResourcesERK8wxString
_ZN14wxBitmapBundle14FromIconBundleERK12wxIconBundle
_ZN14wxBitmapBundle14FromIconBundleERK12wxIconBundle.cold
_ZN14wxBitmapBundle15CreateImageListEP8wxWindowRK8wxVectorIS_E
_ZN14wxBitmapBundle15CreateImageListEP8wxWindowRK8wxVectorIS_E.cold
_ZN14wxBitmapBundle15FromSVGResourceERK8wxStringRK6wxSize
_ZN14wxBitmapBundle19GetConsensusSizeForEdRK8wxVectorIS_E
_ZN14wxBitmapBundle19GetConsensusSizeForEdRK8wxVectorIS_E.cold
_ZN14wxBitmapBundle19GetConsensusSizeForEP8wxWindowRK8wxVectorIS_E
_ZN14wxBitmapBundle5ClearEv
_ZN14wxBitmapBundle7FromSVGEPcRK6wxSize
_ZN14wxBitmapBundle7FromSVGEPcRK6wxSize.cold
_ZN14wxBitmapBundle7FromSVGEPKcRK6wxSize
_ZN14wxBitmapBundle7FromSVGEPKcRK6wxSize.cold
_ZN14wxBitmapBundle7FromSVGEPKhmRK6wxSize
_ZN14wxBitmapBundle7FromSVGEPKhmRK6wxSize.cold
_ZN14wxBitmapBundle8FromImplEP18wxBitmapBundleImpl
_ZN14wxBitmapBundle9FromFilesERK8wxString
_ZN14wxBitmapBundle9FromFilesERK8wxString.cold
_ZN14wxBitmapBundle9FromFilesERK8wxStringS2_S2_
_ZN14wxBitmapBundle9FromFilesERK8wxStringS2_S2_.cold
_ZN14wxBitmapBundleaSERKS_
_ZN14wxBitmapBundleC1EP18wxBitmapBundleImpl
_ZN14wxBitmapBundleC1EPKPKc
_ZN14wxBitmapBundleC1ERK6wxIcon
_ZN14wxBitmapBundleC1ERK7wxImage
_ZN14wxBitmapBundleC1ERK8wxBitmap
_ZN14wxBitmapBundleC1ERKS_
_ZN14wxBitmapBundleC1Ev
_ZN14wxBitmapBundleC2EP18wxBitmapBundleImpl
_ZN14wxBitmapBundleC2EPKPKc
_ZN14wxBitmapBundleC2EPKPKc.cold
_ZN14wxBitmapBundleC2ERK6wxIcon
_ZN14wxBitmapBundleC2ERK6wxIcon.cold
_ZN14wxBitmapBundleC2ERK7wxImage
_ZN14wxBitmapBundleC2ERK7wxImage.cold
_ZN14wxBitmapBundleC2ERK8wxBitmap
_ZN14wxBitmapBundleC2ERK8wxBitmap.cold
_ZN14wxBitmapBundleC2ERKS_
_ZN14wxBitmapBundleC2Ev
_ZN14wxBitmapBundleD1Ev
_ZN14wxBitmapBundleD2Ev
_ZN14wxBitmapButton12ms_classInfoE
_ZN14wxBitmapButton14wxCreateObjectEv
_ZN14wxBitmapButton14wxCreateObjectEv.cold
_ZN14wxBitmapButton17CreateCloseButtonEP8wxWindowiRK8wxString
_ZN14wxBitmapButton17CreateCloseButtonEP8wxWindowiRK8wxString.cold
_ZN14wxBitmapButton6CreateEP8wxWindowiRK14wxBitmapBundleRK7wxPointRK6wxSizelRK11wxValidatorRK8wxString
_ZN14wxBitmapButton6CreateEP8wxWindowiRK14wxBitmapBundleRK7wxPointRK6wxSizelRK11wxValidatorRK8wxString.cold
_ZN14wxBitmapButtonD0Ev
_ZN14wxBitmapButtonD1Ev
_ZN14wxBitmapButtonD2Ev
_ZN14wxBitmapButtonD5Ev
_ZN14wxBookCtrlBase10DeletePageEm
_ZN14wxBookCtrlBase10DoShowPageEP8wxWindowb
_ZN14wxBookCtrlBase10InsertPageEmP8wxWindowRK8wxStringbi
_ZN14wxBookCtrlBase10RemovePageEm
_ZN14wxBookCtrlBase11SetPageSizeERK6wxSize
_ZN14wxBookCtrlBase12DoRemovePageEm
_ZN14wxBookCtrlBase12ms_classInfoE
_ZN14wxBookCtrlBase13sm_eventTableE
_ZN14wxBookCtrlBase14DeleteAllPagesEv
_ZN14wxBookCtrlBase14DoSetSelectionEmi
_ZN14wxBookCtrlBase16MakeChangedEventER15wxBookCtrlEvent
_ZN14wxBookCtrlBase17sm_eventHashTableE
_ZN14wxBookCtrlBase17TryGetNonNullPageEm
_ZN14wxBookCtrlBase18UpdateSelectedPageEm
_ZN14wxBookCtrlBase20DoInvalidateBestSizeEv
_ZN14wxBookCtrlBase20sm_eventTableEntriesE
_ZN14wxBookCtrlBase24HasTransparentBackgroundEv
_ZN14wxBookCtrlBase26DoSetSelectionAfterRemovalEm
_ZN14wxBookCtrlBase28DoSetSelectionAfterInsertionEmb
_ZN14wxBookCtrlBase4InitEv
_ZN14wxBookCtrlBase6CreateEP8wxWindowiRK7wxPointRK6wxSizelRK8wxString
_ZN14wxBookCtrlBase6DoSizeEv
_ZN14wxBookCtrlBase6OnHelpER11wxHelpEvent
_ZN14wxBookCtrlBase6OnSizeER11wxSizeEvent
_ZN14wxBookCtrlBase7AddPageEP8wxWindowRK8wxStringbi
_ZN14wxBookCtrlBaseD0Ev
_ZN14wxBookCtrlBaseD1Ev
_ZN14wxBookCtrlBaseD2Ev
_ZN14wxBookCtrlBaseD5Ev
_ZN14wxBoolProperty12ms_classInfoE
_ZN14wxBoolProperty14DoSetAttributeERK8wxStringR9wxVariant
_ZN14wxBoolProperty14wxCreateObjectEv
_ZN14wxBoolProperty14wxCreateObjectEv.cold
_ZN14wxBoolPropertyC1ERK8wxStringS2_b
_ZN14wxBoolPropertyC2ERK8wxStringS2_b
_ZN14wxBoolPropertyC2ERK8wxStringS2_b.cold
_ZN14wxBoolPropertyD0Ev
_ZN14wxBoolPropertyD1Ev
_ZN14wxBoolPropertyD2Ev
_ZN14wxBrushRefDataD0Ev
_ZN14wxBrushRefDataD1Ev
_ZN14wxBrushRefDataD2Ev
_ZN14wxBrushRefDataD5Ev
_ZN14wxCairoContext10BeginLayerEd
_ZN14wxCairoContext10DoDrawTextERK8wxStringdd
_ZN14wxCairoContext10DoDrawTextERK8wxStringdd.cold
_ZN14wxCairoContext10DrawBitmapERK16wxGraphicsBitmapdddd
_ZN14wxCairoContext10DrawBitmapERK8wxBitmapdddd
_ZN14wxCairoContext10DrawBitmapERK8wxBitmapdddd.cold
_ZN14wxCairoContext10GetClipBoxEPdS0_S0_S0_
_ZN14wxCairoContext10StrokePathERK14wxGraphicsPath
_ZN14wxCairoContext10StrokePathERK14wxGraphicsPath.cold
_ZN14wxCairoContext12SetTransformERK16wxGraphicsMatrix
_ZN14wxCairoContext13DrawRectangleEdddd
_ZN14wxCairoContext13DrawRectangleEdddd.cold
_ZN14wxCairoContext14ClearRectangleEdddd
_ZN14wxCairoContext15ConcatTransformERK16wxGraphicsMatrix
_ZN14wxCairoContext16GetNativeContextEv
_ZN14wxCairoContext16GetNativeContextEv.localalias
_ZN14wxCairoContext16SetAntialiasModeE15wxAntialiasMode
_ZN14wxCairoContext18SetCompositionModeE17wxCompositionMode
_ZN14wxCairoContext18SetCompositionModeE17wxCompositionMode.cold
_ZN14wxCairoContext20ApplyTransformFromDCERK4wxDCNS_18ApplyTransformModeE
_ZN14wxCairoContext23SetInterpolationQualityE22wxInterpolationQuality
_ZN14wxCairoContext4ClipEdddd
_ZN14wxCairoContext4ClipEdddd.cold
_ZN14wxCairoContext4ClipERK8wxRegion
_ZN14wxCairoContext4ClipERK8wxRegion.cold
_ZN14wxCairoContext4InitEP6_cairo
_ZN14wxCairoContext5FlushEv
_ZN14wxCairoContext5ScaleEdd
_ZN14wxCairoContext6RotateEd
_ZN14wxCairoContext8DrawIconERK6wxIcondddd
_ZN14wxCairoContext8EndLayerEv
_ZN14wxCairoContext8FillPathERK14wxGraphicsPath17wxPolygonFillMode
_ZN14wxCairoContext8FillPathERK14wxGraphicsPath17wxPolygonFillMode.cold
_ZN14wxCairoContext8PopStateEv
_ZN14wxCairoContext8PopStateEv.localalias
_ZN14wxCairoContext9PushStateEv
_ZN14wxCairoContext9PushStateEv.localalias
_ZN14wxCairoContext9ResetClipEv
_ZN14wxCairoContext9TranslateEdd
_ZN14wxCairoContextC1EP18wxGraphicsRenderer
_ZN14wxCairoContextC1EP18wxGraphicsRendererP10_GdkWindow
_ZN14wxCairoContextC1EP18wxGraphicsRendererP6_cairo
_ZN14wxCairoContextC1EP18wxGraphicsRendererP8wxWindow
_ZN14wxCairoContextC1EP18wxGraphicsRendererRK10wxMemoryDC
_ZN14wxCairoContextC1EP18wxGraphicsRendererRK10wxWindowDC
_ZN14wxCairoContextC1EP18wxGraphicsRendererRK11wxPrinterDC
_ZN14wxCairoContextC2EP18wxGraphicsRenderer
_ZN14wxCairoContextC2EP18wxGraphicsRenderer.cold
_ZN14wxCairoContextC2EP18wxGraphicsRendererP10_GdkWindow
_ZN14wxCairoContextC2EP18wxGraphicsRendererP10_GdkWindow.cold
_ZN14wxCairoContextC2EP18wxGraphicsRendererP6_cairo
_ZN14wxCairoContextC2EP18wxGraphicsRendererP6_cairo.cold
_ZN14wxCairoContextC2EP18wxGraphicsRendererP8wxWindow
_ZN14wxCairoContextC2EP18wxGraphicsRendererP8wxWindow.cold
_ZN14wxCairoContextC2EP18wxGraphicsRendererRK10wxMemoryDC
_ZN14wxCairoContextC2EP18wxGraphicsRendererRK10wxMemoryDC.cold
_ZN14wxCairoContextC2EP18wxGraphicsRendererRK10wxWindowDC
_ZN14wxCairoContextC2EP18wxGraphicsRendererRK10wxWindowDC.cold
_ZN14wxCairoContextC2EP18wxGraphicsRendererRK11wxPrinterDC
_ZN14wxCairoContextC2EP18wxGraphicsRendererRK11wxPrinterDC.cold
_ZN14wxCairoContextD0Ev
_ZN14wxCairoContextD1Ev
_ZN14wxCairoContextD2Ev
_ZN14wxCairoPenData4InitEv
_ZN14wxCairoPenData5ApplyEP17wxGraphicsContext
_ZN14wxCairoPenDataC1EP18wxGraphicsRendererRK17wxGraphicsPenInfo
_ZN14wxCairoPenDataC2EP18wxGraphicsRendererRK17wxGraphicsPenInfo
_ZN14wxCairoPenDataC2EP18wxGraphicsRendererRK17wxGraphicsPenInfo.cold
_ZN14wxCairoPenDataD0Ev
_ZN14wxCairoPenDataD1Ev
_ZN14wxCairoPenDataD2Ev
_ZN14wxCArrayStringD1Ev
_ZN14wxCArrayStringD2Ev
_ZN14wxCArrayStringD5Ev
_ZN14wxCheckBoxBase14Set3StateValueE15wxCheckBoxState
_ZN14wxCheckBoxBase16DoUpdateWindowUIER15wxUpdateUIEvent
_ZN14wxCheckBoxBase24HasTransparentBackgroundEv
_ZN14wxCheckBoxBase24SetTransparentPartColourERK8wxColour
_ZN14wxCheckListBox12ms_classInfoE
_ZN14wxCheckListBox14wxCreateObjectEv
_ZN14wxCheckListBox14wxCreateObjectEv.cold
_ZN14wxCheckListBox17DoCreateCheckListEv
_ZN14wxCheckListBox5CheckEjb
_ZN14wxCheckListBoxC1EP8wxWindowiRK7wxPointRK6wxSizeiPK8wxStringlRK11wxValidatorRS9_
_ZN14wxCheckListBoxC1EP8wxWindowiRK7wxPointRK6wxSizeRK13wxArrayStringlRK11wxValidatorRK8wxString
_ZN14wxCheckListBoxC1Ev
_ZN14wxCheckListBoxC2EP8wxWindowiRK7wxPointRK6wxSizeiPK8wxStringlRK11wxValidatorRS9_
_ZN14wxCheckListBoxC2EP8wxWindowiRK7wxPointRK6wxSizeiPK8wxStringlRK11wxValidatorRS9_.cold
_ZN14wxCheckListBoxC2EP8wxWindowiRK7wxPointRK6wxSizeRK13wxArrayStringlRK11wxValidatorRK8wxString
_ZN14wxCheckListBoxC2EP8wxWindowiRK7wxPointRK6wxSizeRK13wxArrayStringlRK11wxValidatorRK8wxString.cold
_ZN14wxCheckListBoxC2Ev
_ZN14wxCheckListBoxC2Ev.cold
_ZN14wxCheckListBoxD0Ev
_ZN14wxCheckListBoxD1Ev
_ZN14wxCheckListBoxD2Ev
_ZN14wxCheckListBoxD5Ev
_ZN14wxClientDCImplC1EP10wxClientDCP8wxWindow
_ZN14wxClientDCImplC2EP10wxClientDCP8wxWindow
_ZN14wxClientDCImplC2EP10wxClientDCP8wxWindow.cold
_ZN14wxClientDCImplD0Ev
_ZN14wxClientDCImplD1Ev
_ZN14wxClientDCImplD2Ev
_ZN14wxClientDCImplD5Ev
_ZN14wxColourButton12ms_classInfoE
_ZN14wxColourButton12UpdateColourEv
_ZN14wxColourButton14wxCreateObjectEv
_ZN14wxColourButton14wxCreateObjectEv.cold
_ZN14wxColourButton6CreateEP8wxWindowiRK8wxColourRK7wxPointRK6wxSizelRK11wxValidatorRK8wxString
_ZN14wxColourButtonD0Ev
_ZN14wxColourButtonD1Ev
_ZN14wxColourButtonD2Ev
_ZN14wxColourDialog12DoMoveWindowEiiii
_ZN14wxColourDialog12ms_classInfoE
_ZN14wxColourDialog14wxCreateObjectEv
_ZN14wxColourDialog14wxCreateObjectEv.cold
_ZN14wxColourDialog18ColourDataToDialogEv
_ZN14wxColourDialog18ColourDataToDialogEv.cold
_ZN14wxColourDialog18DialogToColourDataEv
_ZN14wxColourDialog18DialogToColourDataEv.cold
_ZN14wxColourDialog6CreateEP8wxWindowPK12wxColourData
_ZN14wxColourDialog6CreateEP8wxWindowPK12wxColourData.cold
_ZN14wxColourDialog9DoSetSizeEiiiii
_ZN14wxColourDialog9ShowModalEv
_ZN14wxColourDialogC1EP8wxWindowPK12wxColourData
_ZN14wxColourDialogC2EP8wxWindowPK12wxColourData
_ZN14wxColourDialogC2EP8wxWindowPK12wxColourData.cold
_ZN14wxColourDialogD0Ev
_ZN14wxColourDialogD1Ev
_ZN14wxColourDialogD2Ev
_ZN14wxColourDialogD5Ev
_ZN14wxCommandEvent12ms_classInfoE
_ZN14wxCommandEvent14wxCreateObjectEv
_ZN14wxCommandEvent14wxCreateObjectEv.cold
_ZN14wxCommandEventD0Ev
_ZN14wxCommandEventD1Ev
_ZN14wxCommandEventD2Ev
_ZN14wxCommandEventD5Ev
_ZN14wxDataViewCtrl11AddChildGTKEP8wxWindow
_ZN14wxDataViewCtrl11DoSetIndentEv
_ZN14wxDataViewCtrl11UnselectAllEv
_ZN14wxDataViewCtrl11UnselectAllEv.cold
_ZN14wxDataViewCtrl12AppendColumnEP16wxDataViewColumn
_ZN14wxDataViewCtrl12ClearColumnsEv
_ZN14wxDataViewCtrl12DeleteColumnEP16wxDataViewColumn
_ZN14wxDataViewCtrl12InsertColumnEjP16wxDataViewColumn
_ZN14wxDataViewCtrl12ms_classInfoE
_ZN14wxDataViewCtrl12SetRowHeightEi
_ZN14wxDataViewCtrl13EnsureVisibleERK14wxDataViewItemPK16wxDataViewColumn
_ZN14wxDataViewCtrl13EnsureVisibleERK14wxDataViewItemPK16wxDataViewColumn.cold
_ZN14wxDataViewCtrl13PrependColumnEP16wxDataViewColumn
_ZN14wxDataViewCtrl13SetSelectionsERK19wxDataViewItemArray
_ZN14wxDataViewCtrl13SetSelectionsERK19wxDataViewItemArray.cold
_ZN14wxDataViewCtrl14AssociateModelEP15wxDataViewModel
_ZN14wxDataViewCtrl14AssociateModelEP15wxDataViewModel.cold
_ZN14wxDataViewCtrl14OnInternalIdleEv
_ZN14wxDataViewCtrl14OnInternalIdleEv.cold
_ZN14wxDataViewCtrl14wxCreateObjectEv
_ZN14wxDataViewCtrl14wxCreateObjectEv.cold
_ZN14wxDataViewCtrl16DoSetCurrentItemERK14wxDataViewItem
_ZN14wxDataViewCtrl16DoSetCurrentItemERK14wxDataViewItem.cold
_ZN14wxDataViewCtrl16EnableDragSourceERK12wxDataFormat
_ZN14wxDataViewCtrl18DoApplyWidgetStyleEP11_GtkRcStyle
_ZN14wxDataViewCtrl18DoEnableDropTargetERK8wxVectorI12wxDataFormatE
_ZN14wxDataViewCtrl19DoSetExpanderColumnEv
_ZN14wxDataViewCtrl24GtkEnableSelectionEventsEv
_ZN14wxDataViewCtrl25GetClassDefaultAttributesE15wxWindowVariant
_ZN14wxDataViewCtrl25GtkDisableSelectionEventsEv
_ZN14wxDataViewCtrl4InitEv
_ZN14wxDataViewCtrl6CreateEP8wxWindowiRK7wxPointRK6wxSizelRK11wxValidatorRK8wxString
_ZN14wxDataViewCtrl6SelectERK14wxDataViewItem
_ZN14wxDataViewCtrl6SelectERK14wxDataViewItem.cold
_ZN14wxDataViewCtrl8CollapseERK14wxDataViewItem
_ZN14wxDataViewCtrl8CollapseERK14wxDataViewItem.cold
_ZN14wxDataViewCtrl8DoExpandERK14wxDataViewItemb
_ZN14wxDataViewCtrl8DoExpandERK14wxDataViewItemb.cold
_ZN14wxDataViewCtrl8EditItemERK14wxDataViewItemPK16wxDataViewColumn
_ZN14wxDataViewCtrl8EditItemERK14wxDataViewItemPK16wxDataViewColumn.cold
_ZN14wxDataViewCtrl8UnselectERK14wxDataViewItem
_ZN14wxDataViewCtrl8UnselectERK14wxDataViewItem.cold
_ZN14wxDataViewCtrl9SelectAllEv
_ZN14wxDataViewCtrl9SelectAllEv.cold
_ZN14wxDataViewCtrlD0Ev
_ZN14wxDataViewCtrlD1Ev
_ZN14wxDataViewCtrlD2Ev
_ZN14wxDateProperty10OnSetValueEv
_ZN14wxDateProperty10OnSetValueEv.cold
_ZN14wxDateProperty12ms_classInfoE
_ZN14wxDateProperty14DoSetAttributeERK8wxStringR9wxVariant
_ZN14wxDateProperty14DoSetAttributeERK8wxStringR9wxVariant.cold
_ZN14wxDateProperty14wxCreateObjectEv
_ZN14wxDateProperty14wxCreateObjectEv.cold
_ZN14wxDateProperty20ms_defaultDateFormatE
_ZN14wxDateProperty26DetermineDefaultDateFormatEb
_ZN14wxDateProperty26DetermineDefaultDateFormatEb.cold
_ZN14wxDatePropertyC1ERK8wxStringS2_RK10wxDateTime
_ZN14wxDatePropertyC2ERK8wxStringS2_RK10wxDateTime
_ZN14wxDatePropertyC2ERK8wxStringS2_RK10wxDateTime.cold
_ZN14wxDatePropertyD0Ev
_ZN14wxDatePropertyD1Ev
_ZN14wxDatePropertyD2Ev
_ZN14wxDCPenChangerC1ER4wxDCRK5wxPen
_ZN14wxDCPenChangerC2ER4wxDCRK5wxPen
_ZN14wxDCPenChangerC5ER4wxDCRK5wxPen
_ZN14wxDCPenChangerD1Ev
_ZN14wxDCPenChangerD2Ev
_ZN14wxDCPenChangerD5Ev
_ZN14wxDirTraverser11OnOpenErrorERK8wxString
_ZN14wxDirTraverser11OnOpenErrorERK8wxString.localalias
_ZN14wxEnumProperty10OnSetValueEv
_ZN14wxEnumProperty10OnSetValueEv.cold
_ZN14wxEnumProperty12ms_classInfoE
_ZN14wxEnumProperty14wxCreateObjectEv
_ZN14wxEnumProperty14wxCreateObjectEv.cold
_ZN14wxEnumProperty8SetIndexEi
_ZN14wxEnumPropertyC1ERK8wxStringS2_PKPKcPKlP11wxPGChoicesi
_ZN14wxEnumPropertyC1ERK8wxStringS2_PKPKwPKli
_ZN14wxEnumPropertyC1ERK8wxStringS2_R11wxPGChoicesi
_ZN14wxEnumPropertyC1ERK8wxStringS2_RK13wxArrayStringRK10wxArrayInti
_ZN14wxEnumPropertyC2ERK8wxStringS2_PKPKcPKlP11wxPGChoicesi
_ZN14wxEnumPropertyC2ERK8wxStringS2_PKPKcPKlP11wxPGChoicesi.cold
_ZN14wxEnumPropertyC2ERK8wxStringS2_PKPKwPKli
_ZN14wxEnumPropertyC2ERK8wxStringS2_PKPKwPKli.cold
_ZN14wxEnumPropertyC2ERK8wxStringS2_R11wxPGChoicesi
_ZN14wxEnumPropertyC2ERK8wxStringS2_R11wxPGChoicesi.cold
_ZN14wxEnumPropertyC2ERK8wxStringS2_RK13wxArrayStringRK10wxArrayInti
_ZN14wxEnumPropertyC2ERK8wxStringS2_RK13wxArrayStringRK10wxArrayInti.cold
_ZN14wxEnumPropertyD0Ev
_ZN14wxEnumPropertyD1Ev
_ZN14wxEnumPropertyD2Ev
_ZN14wxEventBlocker12ProcessEventER7wxEvent
_ZN14wxEventBlockerC1EP8wxWindowi
_ZN14wxEventBlockerC2EP8wxWindowi
_ZN14wxEventBlockerC2EP8wxWindowi.cold
_ZN14wxEventBlockerD0Ev
_ZN14wxEventBlockerD1Ev
_ZN14wxEventBlockerD2Ev
_ZN14wxEventFunctorD0Ev
_ZN14wxEventFunctorD1Ev
_ZN14wxEventFunctorD2Ev
_ZN14wxFileListCtrl10ShowHiddenEb
_ZN14wxFileListCtrl10ShowHiddenEb.localalias
_ZN14wxFileListCtrl10UpdateItemERK10wxListItem
_ZN14wxFileListCtrl10UpdateItemERK10wxListItem.cold
_ZN14wxFileListCtrl11GoToHomeDirEv
_ZN14wxFileListCtrl11GoToHomeDirEv.cold
_ZN14wxFileListCtrl11UpdateFilesEv
_ZN14wxFileListCtrl11UpdateFilesEv.cold
_ZN14wxFileListCtrl12FreeItemDataER10wxListItem
_ZN14wxFileListCtrl12ms_classInfoE
_ZN14wxFileListCtrl13GoToParentDirEv
_ZN14wxFileListCtrl13GoToParentDirEv.cold
_ZN14wxFileListCtrl13sm_eventTableE
_ZN14wxFileListCtrl14OnListColClickER11wxListEvent
_ZN14wxFileListCtrl14wxCreateObjectEv
_ZN14wxFileListCtrl14wxCreateObjectEv.cold
_ZN14wxFileListCtrl16ChangeToListModeEv
_ZN14wxFileListCtrl16FreeAllItemsDataEv
_ZN14wxFileListCtrl16FreeAllItemsDataEv.cold
_ZN14wxFileListCtrl16OnListDeleteItemER11wxListEvent
_ZN14wxFileListCtrl17sm_eventHashTableE
_ZN14wxFileListCtrl18ChangeToReportModeEv
_ZN14wxFileListCtrl18ChangeToReportModeEv.cold
_ZN14wxFileListCtrl18OnListEndLabelEditER11wxListEvent
_ZN14wxFileListCtrl18OnListEndLabelEditER11wxListEvent.cold
_ZN14wxFileListCtrl20OnListDeleteAllItemsER11wxListEvent
_ZN14wxFileListCtrl20sm_eventTableEntriesE
_ZN14wxFileListCtrl21ChangeToSmallIconModeEv
_ZN14wxFileListCtrl3AddEP10wxFileDataR10wxListItem
_ZN14wxFileListCtrl3AddEP10wxFileDataR10wxListItem.cold
_ZN14wxFileListCtrl6OnSizeER11wxSizeEvent
_ZN14wxFileListCtrl7GoToDirERK8wxString
_ZN14wxFileListCtrl7MakeDirEv
_ZN14wxFileListCtrl7MakeDirEv.cold
_ZN14wxFileListCtrl7SetWildERK8wxString
_ZN14wxFileListCtrl9SortItemsEN10wxFileData17fileListFieldTypeEb
_ZN14wxFileListCtrlC1EP8wxWindowiRK8wxStringbRK7wxPointRK6wxSizelRK11wxValidatorS4_
_ZN14wxFileListCtrlC1Ev
_ZN14wxFileListCtrlC2EP8wxWindowiRK8wxStringbRK7wxPointRK6wxSizelRK11wxValidatorS4_
_ZN14wxFileListCtrlC2EP8wxWindowiRK8wxStringbRK7wxPointRK6wxSizelRK11wxValidatorS4_.cold
_ZN14wxFileListCtrlC2Ev
_ZN14wxFileListCtrlC2Ev.cold
_ZN14wxFileListCtrlD0Ev
_ZN14wxFileListCtrlD1Ev
_ZN14wxFileListCtrlD2Ev
_ZN14wxFileProperty10OnSetValueEv
_ZN14wxFileProperty10OnSetValueEv.cold
_ZN14wxFileProperty12ms_classInfoE
_ZN14wxFileProperty14DoSetAttributeERK8wxStringR9wxVariant
_ZN14wxFileProperty14DoSetAttributeERK8wxStringR9wxVariant.cold
_ZN14wxFileProperty14wxCreateObjectEv
_ZN14wxFileProperty14wxCreateObjectEv.cold
_ZN14wxFileProperty17GetClassValidatorEv
_ZN14wxFileProperty17GetClassValidatorEv.cold
_ZN14wxFileProperty19DisplayEditorDialogEP14wxPropertyGridR9wxVariant
_ZN14wxFileProperty19DisplayEditorDialogEP14wxPropertyGridR9wxVariant.cold
_ZN14wxFilePropertyC1ERK8wxStringS2_S2_
_ZN14wxFilePropertyC2ERK8wxStringS2_S2_
_ZN14wxFilePropertyC2ERK8wxStringS2_S2_.cold
_ZN14wxFilePropertyD0Ev
_ZN14wxFilePropertyD1Ev
_ZN14wxFilePropertyD2Ev
_ZN14wxFileTypeImpl10SetCommandERK8wxStringS2_b
_ZN14wxFileTypeImpl10SetCommandERK8wxStringS2_b.cold
_ZN14wxFileTypeImpl13GetExtensionsER13wxArrayString
_ZN14wxFileTypeImpl13GetExtensionsER13wxArrayString.cold
_ZN14wxFileTypeImpl14SetDefaultIconERK8wxStringi
_ZN14wxFileTypeImpl14SetDefaultIconERK8wxStringi.cold
_ZN14wxFileTypeInfo10VarArgInitEPK8wxStringS2_S2_S2_z
_ZN14wxFileTypeInfo12DoVarArgInitERK8wxStringS2_S2_S2_P13__va_list_tag
_ZN14wxFileTypeInfo12DoVarArgInitERK8wxStringS2_S2_S2_P13__va_list_tag.cold
_ZN14wxFileTypeInfoC1ERK13wxArrayString
_ZN14wxFileTypeInfoC1IPKwS2_PvEERKNS_10CtorStringES6_S6_S6_T_T0_T1_
_ZN14wxFileTypeInfoC1IPKwS2_S2_S2_PvEERKNS_10CtorStringES6_S6_S6_T_T0_T1_T2_T3_
_ZN14wxFileTypeInfoC2ERK13wxArrayString
_ZN14wxFileTypeInfoC2ERK13wxArrayString.cold
_ZN14wxFileTypeInfoC2IPKwS2_PvEERKNS_10CtorStringES6_S6_S6_T_T0_T1_
_ZN14wxFileTypeInfoC2IPKwS2_S2_S2_PvEERKNS_10CtorStringES6_S6_S6_T_T0_T1_T2_T3_
_ZN14wxFileTypeInfoC5IPKwS2_PvEERKNS_10CtorStringES6_S6_S6_T_T0_T1_
_ZN14wxFileTypeInfoC5IPKwS2_S2_S2_PvEERKNS_10CtorStringES6_S6_S6_T_T0_T1_T2_T3_
_ZN14wxFileTypeInfoD1Ev
_ZN14wxFileTypeInfoD2Ev
_ZN14wxFileTypeInfoD5Ev
_ZN14wxFontProperty10OnSetValueEv
_ZN14wxFontProperty10OnSetValueEv.cold
_ZN14wxFontProperty12ms_classInfoE
_ZN14wxFontProperty14wxCreateObjectEv
_ZN14wxFontProperty14wxCreateObjectEv.cold
_ZN14wxFontProperty15RefreshChildrenEv
_ZN14wxFontProperty15RefreshChildrenEv.cold
_ZN14wxFontProperty19DisplayEditorDialogEP14wxPropertyGridR9wxVariant
_ZN14wxFontProperty19DisplayEditorDialogEP14wxPropertyGridR9wxVariant.cold
_ZN14wxFontPropertyC1ERK8wxStringS2_RK6wxFont
_ZN14wxFontPropertyC2ERK8wxStringS2_RK6wxFont
_ZN14wxFontPropertyC2ERK8wxStringS2_RK6wxFont.cold
_ZN14wxFontPropertyD0Ev
_ZN14wxFontPropertyD1Ev
_ZN14wxFontPropertyD2Ev
_ZN14wxFormatString12InputAsWCharEv
_ZN14wxFormatString12InputAsWCharEv.cold
_ZN14wxFormatString7AsWCharEv
_ZN14wxFormatString7AsWCharEv.cold
_ZN14wxFormatStringC1EPKc
_ZN14wxFormatStringC1EPKw
_ZN14wxFormatStringC1ERK8wxString
_ZN14wxFormatStringC2EPKc
_ZN14wxFormatStringC2EPKw
_ZN14wxFormatStringC2ERK8wxString
_ZN14wxFormatStringC5EPKc
_ZN14wxFormatStringC5EPKw
_ZN14wxFormatStringC5ERK8wxString
_ZN14wxFormatStringD1Ev
_ZN14wxFormatStringD2Ev
_ZN14wxFormatStringD5Ev
_ZN14wxGestureEvent12ms_classInfoE
_ZN14wxGestureEvent14wxCreateObjectEv
_ZN14wxGestureEvent14wxCreateObjectEv.cold
_ZN14wxGestureEventD0Ev
_ZN14wxGestureEventD1Ev
_ZN14wxGestureEventD2Ev
_ZN14wxGestureEventD5Ev
_ZN14wxGraphicsFont12ms_classInfoE
_ZN14wxGraphicsFont14wxCreateObjectEv
_ZN14wxGraphicsFont14wxCreateObjectEv.cold
_ZN14wxGraphicsFontD0Ev
_ZN14wxGraphicsFontD1Ev
_ZN14wxGraphicsFontD2Ev
_ZN14wxGraphicsFontD5Ev
_ZN14wxGraphicsPath10AddEllipseEdddd
_ZN14wxGraphicsPath11MoveToPointEdd
_ZN14wxGraphicsPath11MoveToPointEdd.localalias
_ZN14wxGraphicsPath11MoveToPointERK15wxPoint2DDouble
_ZN14wxGraphicsPath12AddRectangleEdddd
_ZN14wxGraphicsPath12CloseSubpathEv
_ZN14wxGraphicsPath12ms_classInfoE
_ZN14wxGraphicsPath13AddArcToPointEddddd
_ZN14wxGraphicsPath14AddLineToPointEdd
_ZN14wxGraphicsPath14AddLineToPointEdd.localalias
_ZN14wxGraphicsPath14AddLineToPointERK15wxPoint2DDouble
_ZN14wxGraphicsPath14wxCreateObjectEv
_ZN14wxGraphicsPath14wxCreateObjectEv.cold
_ZN14wxGraphicsPath15AddCurveToPointEdddddd
_ZN14wxGraphicsPath15AddCurveToPointEdddddd.localalias
_ZN14wxGraphicsPath15AddCurveToPointERK15wxPoint2DDoubleS2_S2_
_ZN14wxGraphicsPath19AddQuadCurveToPointEdddd
_ZN14wxGraphicsPath19AddRoundedRectangleEddddd
_ZN14wxGraphicsPath6AddArcEdddddb
_ZN14wxGraphicsPath6AddArcEdddddb.localalias
_ZN14wxGraphicsPath6AddArcERK15wxPoint2DDoubledddb
_ZN14wxGraphicsPath7AddPathERKS_
_ZN14wxGraphicsPath9AddCircleEddd
_ZN14wxGraphicsPath9TransformERK16wxGraphicsMatrix
_ZN14wxGraphicsPathD0Ev
_ZN14wxGraphicsPathD1Ev
_ZN14wxGraphicsPathD2Ev
_ZN14wxGraphicsPathD5Ev
_ZN14wxGridBagSizer11GetItemSpanEm
_ZN14wxGridBagSizer11GetItemSpanEP7wxSizer
_ZN14wxGridBagSizer11GetItemSpanEP8wxWindow
_ZN14wxGridBagSizer11SetItemSpanEmRK8wxGBSpan
_ZN14wxGridBagSizer11SetItemSpanEP7wxSizerRK8wxGBSpan
_ZN14wxGridBagSizer11SetItemSpanEP8wxWindowRK8wxGBSpan
_ZN14wxGridBagSizer12ms_classInfoE
_ZN14wxGridBagSizer13FindEmptyCellEv
_ZN14wxGridBagSizer15FindItemAtPointERK7wxPoint
_ZN14wxGridBagSizer15GetItemPositionEm
_ZN14wxGridBagSizer15GetItemPositionEP7wxSizer
_ZN14wxGridBagSizer15GetItemPositionEP8wxWindow
_ZN14wxGridBagSizer15SetItemPositionEmRK12wxGBPosition
_ZN14wxGridBagSizer15SetItemPositionEP7wxSizerRK12wxGBPosition
_ZN14wxGridBagSizer15SetItemPositionEP8wxWindowRK12wxGBPosition
_ZN14wxGridBagSizer16FindItemWithDataEPK8wxObject
_ZN14wxGridBagSizer17AdjustForOverflowEv
_ZN14wxGridBagSizer18FindItemAtPositionERK12wxGBPosition
_ZN14wxGridBagSizer18RepositionChildrenERK6wxSize
_ZN14wxGridBagSizer18RepositionChildrenERK6wxSize.cold
_ZN14wxGridBagSizer20CheckForIntersectionEP13wxGBSizerItemS1_
_ZN14wxGridBagSizer20CheckForIntersectionERK12wxGBPositionRK8wxGBSpanP13wxGBSizerItem
_ZN14wxGridBagSizer3AddEiiiiiP8wxObject
_ZN14wxGridBagSizer3AddEiiRK12wxGBPositionRK8wxGBSpaniiP8wxObject
_ZN14wxGridBagSizer3AddEiiRK12wxGBPositionRK8wxGBSpaniiP8wxObject.cold
_ZN14wxGridBagSizer3AddEP11wxSizerItem
_ZN14wxGridBagSizer3AddEP13wxGBSizerItem
_ZN14wxGridBagSizer3AddEP7wxSizeriiiP8wxObject
_ZN14wxGridBagSizer3AddEP7wxSizerRK12wxGBPositionRK8wxGBSpaniiP8wxObject
_ZN14wxGridBagSizer3AddEP7wxSizerRK12wxGBPositionRK8wxGBSpaniiP8wxObject.cold
_ZN14wxGridBagSizer3AddEP8wxWindowiiiP8wxObject
_ZN14wxGridBagSizer3AddEP8wxWindowRK12wxGBPositionRK8wxGBSpaniiP8wxObject
_ZN14wxGridBagSizer3AddEP8wxWindowRK12wxGBPositionRK8wxGBSpaniiP8wxObject.cold
_ZN14wxGridBagSizer6InsertEmiiiiiP8wxObject
_ZN14wxGridBagSizer6InsertEmP11wxSizerItem
_ZN14wxGridBagSizer6InsertEmP7wxSizeriiiP8wxObject
_ZN14wxGridBagSizer6InsertEmP8wxWindowiiiP8wxObject
_ZN14wxGridBagSizer7CalcMinEv
_ZN14wxGridBagSizer7PrependEiiiiiP8wxObject
_ZN14wxGridBagSizer7PrependEP11wxSizerItem
_ZN14wxGridBagSizer7PrependEP7wxSizeriiiP8wxObject
_ZN14wxGridBagSizer7PrependEP8wxWindowiiiP8wxObject
_ZN14wxGridBagSizer8FindItemEP7wxSizer
_ZN14wxGridBagSizer8FindItemEP8wxWindow
_ZN14wxGridBagSizerC1Eii
_ZN14wxGridBagSizerC2Eii
_ZN14wxGridBagSizerD0Ev
_ZN14wxGridBagSizerD1Ev
_ZN14wxGridBagSizerD2Ev
_ZN14wxGridBagSizerD5Ev
_ZN14wxGridCellAttr4InitEPS_
_ZN14wxGridCellAttr7SetSizeEii
_ZN14wxGridCellAttr9MergeWithEPS_
_ZN14wxGridCellAttrD0Ev
_ZN14wxGridCellAttrD1Ev
_ZN14wxGridCellAttrD2Ev
_ZN14wxGridCellAttrD5Ev
_ZN14wxGTKTimerImpl4StopEv
_ZN14wxGTKTimerImpl5StartEib
_ZN14wxGTKTimerImplD0Ev
_ZN14wxGTKTimerImplD1Ev
_ZN14wxGTKTimerImplD2Ev
_ZN14wxGTKTimerImplD5Ev
_ZN14wxGUIAppTraits12WaitForChildER13wxExecuteData
_ZN14wxGUIAppTraits12WaitForChildER13wxExecuteData.cold
_ZN14wxGUIAppTraits13MutexGuiEnterEv
_ZN14wxGUIAppTraits13MutexGuiLeaveEv
_ZN14wxGUIAppTraits14GetFDIOManagerEv
_ZN14wxGUIAppTraits15CreateEventLoopEv
_ZN14wxGUIAppTraits15CreateEventLoopEv.cold
_ZN14wxGUIAppTraits15CreateTimerImplEP7wxTimer
_ZN14wxGUIAppTraits15CreateTimerImplEP7wxTimer.cold
_ZN14wxGUIAppTraits16ShowAssertDialogERK8wxString
_ZN14wxGUIAppTraits16ShowAssertDialogERK8wxString.cold
_ZN14wxGUIAppTraits26GetEventLoopSourcesManagerEv
_ZN14wxGUIAppTraitsD0Ev
_ZN14wxGUIAppTraitsD1Ev
_ZN14wxGUIAppTraitsD2Ev
_ZN14wxGUIAppTraitsD5Ev
_ZN14wxGUIEventLoop10DoYieldForEl
_ZN14wxGUIEventLoop12ScheduleExitEi
_ZN14wxGUIEventLoop15DispatchTimeoutEm
_ZN14wxGUIEventLoop5DoRunEv
_ZN14wxGUIEventLoop6WakeUpEv
_ZN14wxGUIEventLoop8DispatchEv
_ZN14wxGUIEventLoopC1Ev
_ZN14wxGUIEventLoopC2Ev
_ZN14wxGUIEventLoopD0Ev
_ZN14wxGUIEventLoopD1Ev
_ZN14wxGUIEventLoopD2Ev
_ZN14wxGUIEventLoopD5Ev
_ZN14wxHelpProvider10RemoveHelpEP12wxWindowBase
_ZN14wxHelpProvider15ms_helpProviderE
_ZN14wxHelpProvider15ShowHelpAtPointEP12wxWindowBaseRK7wxPointN11wxHelpEvent6OriginE
_ZN14wxHelpProvider23GetHelpTextMaybeAtPointEP12wxWindowBase
_ZN14wxHelpProvider7AddHelpEiRK8wxString
_ZN14wxHelpProvider7AddHelpEP12wxWindowBaseRK8wxString
_ZN14wxHelpProvider8ShowHelpEP12wxWindowBase
_ZN14wxHelpProviderD0Ev
_ZN14wxHelpProviderD1Ev
_ZN14wxHelpProviderD2Ev
_ZN14wxHtmlFontCell12ms_classInfoE
_ZN14wxHtmlFontCell13DrawInvisibleER4wxDCiiR19wxHtmlRenderingInfo
_ZN14wxHtmlFontCell4DrawER4wxDCiiiiR19wxHtmlRenderingInfo
_ZN14wxHtmlFontCellD0Ev
_ZN14wxHtmlFontCellD1Ev
_ZN14wxHtmlFontCellD2Ev
_ZN14wxHtmlFontCellD5Ev
_ZN14wxHtmlHelpData10SetTempDirERK8wxString
_ZN14wxHtmlHelpData10SetTempDirERK8wxString.cold
_ZN14wxHtmlHelpData12AddBookParamERK8wxFSFile14wxFontEncodingRK8wxStringS6_S6_S6_S6_
_ZN14wxHtmlHelpData12AddBookParamERK8wxFSFile14wxFontEncodingRK8wxStringS6_S6_S6_S6_.cold
_ZN14wxHtmlHelpData12FindPageByIdEi
_ZN14wxHtmlHelpData12ms_classInfoE
_ZN14wxHtmlHelpData13LoadMSProjectEP16wxHtmlBookRecordR12wxFileSystemRK8wxStringS6_
_ZN14wxHtmlHelpData13LoadMSProjectEP16wxHtmlBookRecordR12wxFileSystemRK8wxStringS6_.cold
_ZN14wxHtmlHelpData14FindPageByNameERK8wxString
_ZN14wxHtmlHelpData14FindPageByNameERK8wxString.cold
_ZN14wxHtmlHelpData14LoadCachedBookEP16wxHtmlBookRecordP13wxInputStream
_ZN14wxHtmlHelpData14LoadCachedBookEP16wxHtmlBookRecordP13wxInputStream.cold
_ZN14wxHtmlHelpData14SaveCachedBookEP16wxHtmlBookRecordP14wxOutputStream
_ZN14wxHtmlHelpData14wxCreateObjectEv
_ZN14wxHtmlHelpData14wxCreateObjectEv.cold
_ZN14wxHtmlHelpData7AddBookERK8wxString
_ZN14wxHtmlHelpData7AddBookERK8wxString.cold
_ZN14wxHtmlHelpData7AddBookERK8wxString.localalias
_ZN14wxHtmlHelpDataC1Ev
_ZN14wxHtmlHelpDataC2Ev
_ZN14wxHtmlHelpDataD0Ev
_ZN14wxHtmlHelpDataD1Ev
_ZN14wxHtmlHelpDataD2Ev
_ZN14wxHtmlLineCell4DrawER4wxDCiiiiR19wxHtmlRenderingInfo
_ZN14wxHtmlLineCell4DrawER4wxDCiiiiR19wxHtmlRenderingInfo.cold
_ZN14wxHtmlLineCell6LayoutEi
_ZN14wxHtmlLineCellD0Ev
_ZN14wxHtmlLineCellD1Ev
_ZN14wxHtmlLineCellD2Ev
_ZN14wxHtmlLineCellD5Ev
_ZN14wxHtmlLinkInfoD0Ev
_ZN14wxHtmlLinkInfoD1Ev
_ZN14wxHtmlLinkInfoD2Ev
_ZN14wxHtmlLinkInfoD5Ev
_ZN14wxHtmlListCell11ReallocRowsEi
_ZN14wxHtmlListCell14ComputeMaxBaseEP10wxHtmlCell
_ZN14wxHtmlListCell14ComputeMaxBaseEP10wxHtmlCell.localalias
_ZN14wxHtmlListCell19ComputeMinMaxWidthsEv
_ZN14wxHtmlListCell6AddRowEP19wxHtmlContainerCellS1_
_ZN14wxHtmlListCell6LayoutEi
_ZN14wxHtmlListCellC1EP19wxHtmlContainerCell
_ZN14wxHtmlListCellC2EP19wxHtmlContainerCell
_ZN14wxHtmlListCellD0Ev
_ZN14wxHtmlListCellD1Ev
_ZN14wxHtmlListCellD2Ev
_ZN14wxHtmlPrintout10CountPagesEv
_ZN14wxHtmlPrintout10CountPagesEv.cold
_ZN14wxHtmlPrintout10RenderPageEP4wxDCi
_ZN14wxHtmlPrintout10RenderPageEP4wxDCi.cold
_ZN14wxHtmlPrintout10SetMarginsEfffff
_ZN14wxHtmlPrintout10SetMarginsERK21wxPageSetupDialogData
_ZN14wxHtmlPrintout11GetPageInfoEPiS0_S0_S0_
_ZN14wxHtmlPrintout11OnPrintPageEi
_ZN14wxHtmlPrintout11SetHtmlFileERK8wxString
_ZN14wxHtmlPrintout11SetHtmlFileERK8wxString.cold
_ZN14wxHtmlPrintout11SetHtmlTextERK8wxStringS2_b
_ZN14wxHtmlPrintout14CleanUpStaticsEv
_ZN14wxHtmlPrintout15OnBeginDocumentEii
_ZN14wxHtmlPrintout15TranslateHeaderERK8wxStringi
_ZN14wxHtmlPrintout15TranslateHeaderERK8wxStringi.cold
_ZN14wxHtmlPrintout16SetStandardFontsEiRK8wxStringS2_
_ZN14wxHtmlPrintout17OnPreparePrintingEv
_ZN14wxHtmlPrintout17OnPreparePrintingEv.cold
_ZN14wxHtmlPrintout7HasPageEi
_ZN14wxHtmlPrintout7HasPageEi.localalias
_ZN14wxHtmlPrintout8SetFontsERK8wxStringS2_PKi
_ZN14wxHtmlPrintout9AddFilterEP12wxHtmlFilter
_ZN14wxHtmlPrintout9m_FiltersE
_ZN14wxHtmlPrintout9SetFooterERK8wxStringi
_ZN14wxHtmlPrintout9SetHeaderERK8wxStringi
_ZN14wxHtmlPrintoutC1ERK8wxString
_ZN14wxHtmlPrintoutC2ERK8wxString
_ZN14wxHtmlPrintoutC2ERK8wxString.cold
_ZN14wxHtmlPrintoutD0Ev
_ZN14wxHtmlPrintoutD1Ev
_ZN14wxHtmlPrintoutD2Ev
_ZN14wxHtmlPrintoutD5Ev
_ZN14wxHtmlWordCell12ms_classInfoE
_ZN14wxHtmlWordCell15SetPreviousWordEPS_
_ZN14wxHtmlWordCell4DrawER4wxDCiiiiR19wxHtmlRenderingInfo
_ZN14wxHtmlWordCell4DrawER4wxDCiiiiR19wxHtmlRenderingInfo.cold
_ZN14wxHtmlWordCellC1ERK8wxStringRK4wxDC
_ZN14wxHtmlWordCellC2ERK8wxStringRK4wxDC
_ZN14wxHtmlWordCellC2ERK8wxStringRK4wxDC.cold
_ZN14wxHtmlWordCellD0Ev
_ZN14wxHtmlWordCellD1Ev
_ZN14wxHtmlWordCellD2Ev
_ZN14wxHtmlWordCellD5Ev
_ZN14wxIconizeEvent12ms_classInfoE
_ZN14wxIconizeEvent14wxCreateObjectEv
_ZN14wxIconizeEvent14wxCreateObjectEv.cold
_ZN14wxIconizeEventD0Ev
_ZN14wxIconizeEventD1Ev
_ZN14wxIconizeEventD2Ev
_ZN14wxIconizeEventD5Ev
_ZN14wxImageHandler12ms_classInfoE
_ZN14wxImageHandler13CallDoCanReadER13wxInputStream
_ZN14wxImageHandler13GetImageCountER13wxInputStream
_ZN14wxImageHandler15DoGetImageCountER13wxInputStream
_ZN14wxImageHandler24GetResolutionFromOptionsERK7wxImagePiS3_
_ZN14wxImageHandler24GetResolutionFromOptionsERK7wxImagePiS3_.cold
_ZN14wxImageHandler7CanReadERK8wxString
_ZN14wxImageHandler7CanReadERK8wxString.cold
_ZN14wxImageHandler8LoadFileEP7wxImageR13wxInputStreambi
_ZN14wxImageHandler8SaveFileEP7wxImageR14wxOutputStreamb
_ZN14wxImageHandlerC1Ev
_ZN14wxImageHandlerC2Ev
_ZN14wxImageHandlerC5Ev
_ZN14wxImageHandlerD0Ev
_ZN14wxImageHandlerD1Ev
_ZN14wxImageHandlerD2Ev
_ZN14wxImageHandlerD5Ev
_ZN14wxImageRefData19sm_defaultLoadFlagsE
_ZN14wxImageRefDataC1Ev
_ZN14wxImageRefDataC2Ev
_ZN14wxImageRefDataC2Ev.cold
_ZN14wxImageRefDataD0Ev
_ZN14wxImageRefDataD1Ev
_ZN14wxImageRefDataD2Ev
_ZN14wxItemListNode10DeleteDataEv
_ZN14wxItemListNodeD0Ev
_ZN14wxItemListNodeD1Ev
_ZN14wxItemListNodeD2Ev
_ZN14wxItemListNodeD5Ev
_ZN14wxLabelWrapper12OnOutputLineERK8wxString
_ZN14wxLabelWrapper9OnNewLineEv
_ZN14wxLabelWrapperD0Ev
_ZN14wxLabelWrapperD1Ev
_ZN14wxLabelWrapperD2Ev
_ZN14wxLabelWrapperD5Ev
_ZN14wxLanguageInfoD1Ev
_ZN14wxLanguageInfoD2Ev
_ZN14wxLanguageInfoD5Ev
_ZN14wxListCtrlBase12AppendColumnERK8wxString18wxListColumnFormati
_ZN14wxListCtrlBase12InsertColumnElRK10wxListItem
_ZN14wxListCtrlBase12InsertColumnElRK8wxStringii
_ZN14wxListCtrlBase12InsertColumnElRK8wxStringii.cold
_ZN14wxListCtrlBase12SetImageListEP11wxImageListi
_ZN14wxListCtrlBase13SetHeaderAttrERK10wxItemAttr
_ZN14wxListCtrlBase14SetSmallImagesERK8wxVectorI14wxBitmapBundleE
_ZN14wxListCtrlBase15AssignImageListEP11wxImageListi
_ZN14wxListCtrlBase15SetNormalImagesERK8wxVectorI14wxBitmapBundleE
_ZN14wxListCtrlBase16EnableCheckBoxesEb
_ZN14wxListCtrlBase17ShowSortIndicatorEib
_ZN14wxListCtrlBase19EnableBellOnNoMatchEb
_ZN14wxListCtrlBase19GetUpdatedImageListEi
_ZN14wxListCtrlBase21SetAlternateRowColourERK8wxColour
_ZN14wxListCtrlBase25EnableAlternateRowColoursEb
_ZN14wxListCtrlBase25EnableAlternateRowColoursEb.cold
_ZN14wxListCtrlBase29ExtendRulesAndAlternateColourEb
_ZN14wxListCtrlBase9CheckItemElb
_ZN14wxListCtrlBase9GetImagesEi
_ZN14wxListCtrlBaseD0Ev
_ZN14wxListCtrlBaseD1Ev
_ZN14wxListCtrlBaseD2Ev
_ZN14wxListCtrlBaseD5Ev
_ZN14wxListItemData11SetPositionEii
_ZN14wxListItemData4InitEv
_ZN14wxListItemData7SetItemERK10wxListItem
_ZN14wxListItemData7SetSizeEii
_ZN14wxListItemDataC1EP16wxListMainWindow
_ZN14wxListItemDataC2EP16wxListMainWindow
_ZN14wxListItemDataC2EP16wxListMainWindow.cold
_ZN14wxListItemDataD1Ev
_ZN14wxListItemDataD2Ev
_ZN14wxListLineData11SetPositionEiii
_ZN14wxListLineData13CalculateSizeEP4wxDCi
_ZN14wxListLineData13CalculateSizeEP4wxDCi.cold
_ZN14wxListLineData15ApplyAttributesEP4wxDCRK6wxRectbb
_ZN14wxListLineData15ApplyAttributesEP4wxDCRK6wxRectbb.cold
_ZN14wxListLineData16DrawInReportModeEP4wxDCRK6wxRectS4_bb
_ZN14wxListLineData16DrawInReportModeEP4wxDCRK6wxRectS4_bb.cold
_ZN14wxListLineData16ReverseHighlightEv
_ZN14wxListLineData17DrawTextFormattedEP4wxDCRK8wxStringiiii
_ZN14wxListLineData17DrawTextFormattedEP4wxDCRK8wxStringiiii.cold
_ZN14wxListLineData4DrawEP4wxDCb
_ZN14wxListLineData4DrawEP4wxDCb.cold
_ZN14wxListLineData7SetAttrEP10wxItemAttr
_ZN14wxListLineData7SetItemEiRK10wxListItem
_ZN14wxListLineData7SetTextEiRK8wxString
_ZN14wxListLineData8SetImageEii
_ZN14wxListLineData9HighlightEb
_ZN14wxListLineData9InitItemsEi
_ZN14wxListLineData9InitItemsEi.cold
_ZN14wxListLineDataC1EP16wxListMainWindow
_ZN14wxListLineDataC2EP16wxListMainWindow
_ZN14wxListLineDataC2EP16wxListMainWindow.cold
_ZN14wxLocaleModule12ms_classInfoE
_ZN14wxLocaleModule14wxCreateObjectEv
_ZN14wxLocaleModule6OnExitEv
_ZN14wxLocaleModule6OnInitEv
_ZN14wxLocaleModuleD0Ev
_ZN14wxLocaleModuleD1Ev
_ZN14wxLocaleModuleD2Ev
_ZN14wxLocaleModuleD5Ev
_ZN14wxLogFormatterD0Ev
_ZN14wxLogFormatterD1Ev
_ZN14wxLogFormatterD2Ev
_ZN14wxLogFormatterD5Ev
_ZN14wxMarkupParser10ParseAttrsE8wxStringRNS_11TagAndAttrsE
_ZN14wxMarkupParser10ParseAttrsE8wxStringRNS_11TagAndAttrsE.cold
_ZN14wxMarkupParser5ParseERK8wxString
_ZN14wxMarkupParser5ParseERK8wxString.cold
_ZN14wxMarkupParser5QuoteERK8wxString
_ZN14wxMarkupParser5QuoteERK8wxString.cold
_ZN14wxMarkupParser5StripERK8wxString
_ZN14wxMarkupParser5StripERK8wxString.cold
_ZN14wxMarkupParser9OutputTagERKNS_11TagAndAttrsEb
_ZN14wxMarkupParser9OutputTagERKNS_11TagAndAttrsEb.cold
_ZN14wxMBConv_iconv14ms_wcNeedsSwapE
_ZN14wxMBConv_iconv16ms_wcCharsetNameE
_ZN14wxMBConv_iconvC1EPKc
_ZN14wxMBConv_iconvC2EPKc
_ZN14wxMBConv_iconvC2EPKc.cold
_ZN14wxMBConv_iconvD0Ev
_ZN14wxMBConv_iconvD0Ev.localalias
_ZN14wxMBConv_iconvD1Ev
_ZN14wxMBConv_iconvD2Ev
_ZN14wxMBConv_wxwinC1E14wxFontEncoding
_ZN14wxMBConv_wxwinC2E14wxFontEncoding
_ZN14wxMBConv_wxwinC5E14wxFontEncoding
_ZN14wxMBConv_wxwinD0Ev
_ZN14wxMBConv_wxwinD1Ev
_ZN14wxMBConv_wxwinD2Ev
_ZN14wxMBConv_wxwinD5Ev
_ZN14wxMemoryConfigC1Ev
_ZN14wxMemoryConfigC2Ev
_ZN14wxMemoryConfigC5Ev
_ZN14wxMemoryConfigD0Ev
_ZN14wxMemoryConfigD1Ev
_ZN14wxMemoryConfigD2Ev
_ZN14wxMemoryConfigD5Ev
_ZN14wxMemoryDCImpl17GetSelectedBitmapEv
_ZN14wxMemoryDCImpl5SetupEv
_ZN14wxMemoryDCImpl8DoSelectERK8wxBitmap
_ZN14wxMemoryDCImplC1EP10wxMemoryDC
_ZN14wxMemoryDCImplC1EP10wxMemoryDCP4wxDC
_ZN14wxMemoryDCImplC1EP10wxMemoryDCR8wxBitmap
_ZN14wxMemoryDCImplC2EP10wxMemoryDC
_ZN14wxMemoryDCImplC2EP10wxMemoryDCP4wxDC
_ZN14wxMemoryDCImplC2EP10wxMemoryDCR8wxBitmap
_ZN14wxMemoryDCImplC2EP10wxMemoryDCR8wxBitmap.cold
_ZN14wxMemoryDCImplD0Ev
_ZN14wxMemoryDCImplD1Ev
_ZN14wxMemoryDCImplD2Ev
_ZN14wxMemoryDCImplD5Ev
_ZN14wxMemoryFSFileD0Ev
_ZN14wxMemoryFSFileD1Ev
_ZN14wxMemoryFSFileD2Ev
_ZN14wxMemoryFSFileD5Ev
_ZN14wxMemoryFSHashD1Ev
_ZN14wxMemoryFSHashD2Ev
_ZN14wxMemoryFSHashD5Ev
_ZN14wxMemoryFSHashixERK8wxString
_ZN14wxMenuItemBase12GetLabelTextERK8wxString
_ZN14wxMenuItemBase12SetCheckableEb
_ZN14wxMenuItemBase12SetItemLabelERK8wxString
_ZN14wxMenuItemBase12SetItemLabelERK8wxString.cold
_ZN14wxMenuItemBase13AddExtraAccelERK18wxAcceleratorEntry
_ZN14wxMenuItemBase16ClearExtraAccelsEv
_ZN14wxMenuItemBase3NewEP6wxMenuiRK8wxStringS4_10wxItemKindS1_
_ZN14wxMenuItemBase3NewEP6wxMenuiRK8wxStringS4_10wxItemKindS1_.cold
_ZN14wxMenuItemBase5CheckEb
_ZN14wxMenuItemBase6EnableEb
_ZN14wxMenuItemBase7SetHelpERK8wxString
_ZN14wxMenuItemBase7SetHelpERK8wxString.cold
_ZN14wxMenuItemBase8SetAccelEP18wxAcceleratorEntry
_ZN14wxMenuItemBase8SetAccelEP18wxAcceleratorEntry.cold
_ZN14wxMenuItemBase9SetBitmapERK14wxBitmapBundle
_ZN14wxMenuItemBaseC1EP6wxMenuiRK8wxStringS4_10wxItemKindS1_
_ZN14wxMenuItemBaseC2EP6wxMenuiRK8wxStringS4_10wxItemKindS1_
_ZN14wxMenuItemBaseC2EP6wxMenuiRK8wxStringS4_10wxItemKindS1_.cold
_ZN14wxMenuItemBaseD0Ev
_ZN14wxMenuItemBaseD1Ev
_ZN14wxMenuItemBaseD2Ev
_ZN14wxMenuItemList10CreateNodeEP10wxNodeBaseS1_PvRK9wxListKey
_ZN14wxMenuItemListD0Ev
_ZN14wxMenuItemListD1Ev
_ZN14wxMenuItemListD2Ev
_ZN14wxMenuItemListD5Ev
_ZN14wxMimeTextFile4OpenEv
_ZN14wxMimeTextFile6GetCmdEm
_ZN14wxMimeTextFile8pIndexOfERK8wxStringbi
_ZN14wxMirrorDCImpl10DoDrawIconERK6wxIconii
_ZN14wxMirrorDCImpl10DoDrawLineEiiii
_ZN14wxMirrorDCImpl10DoDrawTextERK8wxStringii
_ZN14wxMirrorDCImpl10SetMapModeE13wxMappingMode
_ZN14wxMirrorDCImpl10SetPaletteERK9wxPalette
_ZN14wxMirrorDCImpl11DoCrossHairEii
_ZN14wxMirrorDCImpl11DoDrawLinesEiPK7wxPointii
_ZN14wxMirrorDCImpl11DoDrawPointEii
_ZN14wxMirrorDCImpl11DoFloodFillEiiRK8wxColour16wxFloodFillStyle
_ZN14wxMirrorDCImpl12DoDrawBitmapERK8wxBitmapiib
_ZN14wxMirrorDCImpl12SetUserScaleEdd
_ZN14wxMirrorDCImpl13DoDrawEllipseEiiii
_ZN14wxMirrorDCImpl13DoDrawPolygonEiPK7wxPointii17wxPolygonFillMode
_ZN14wxMirrorDCImpl13SetBackgroundERK7wxBrush
_ZN14wxMirrorDCImpl15DoDrawCheckMarkEiiii
_ZN14wxMirrorDCImpl15DoDrawRectangleEiiii
_ZN14wxMirrorDCImpl15SetDeviceOriginEii
_ZN14wxMirrorDCImpl16SetLogicalOriginEii
_ZN14wxMirrorDCImpl17DoDrawEllipticArcEiiiidd
_ZN14wxMirrorDCImpl17DoDrawRotatedTextERK8wxStringiid
_ZN14wxMirrorDCImpl17SetBackgroundModeEi
_ZN14wxMirrorDCImpl18SetAxisOrientationEbb
_ZN14wxMirrorDCImpl18SetLogicalFunctionE21wxRasterOperationMode
_ZN14wxMirrorDCImpl19DoSetClippingRegionEiiii
_ZN14wxMirrorDCImpl21DestroyClippingRegionEv
_ZN14wxMirrorDCImpl22DoDrawRoundedRectangleEiiiid
_ZN14wxMirrorDCImpl25DoSetDeviceClippingRegionERK8wxRegion
_ZN14wxMirrorDCImpl5ClearEv
_ZN14wxMirrorDCImpl6DoBlitEiiiiP4wxDCii21wxRasterOperationModebii
_ZN14wxMirrorDCImpl6SetPenERK5wxPen
_ZN14wxMirrorDCImpl7SetFontERK6wxFont
_ZN14wxMirrorDCImpl8SetBrushERK7wxBrush
_ZN14wxMirrorDCImpl9DoDrawArcEiiiiii
_ZN14wxMirrorDCImplD0Ev
_ZN14wxMirrorDCImplD1Ev
_ZN14wxMirrorDCImplD2Ev
_ZN14wxMirrorDCImplD5Ev
_ZN14wxMouseCapture16IsInCaptureStackEP12wxWindowBase
_ZN14wxMouseCapture5stackE
_ZN14wxMouseCapture8changingE
_ZN14wxNativeWindow6CreateEP8wxWindowiP10_GtkWidget
_ZN14wxNativeWindow6CreateEP8wxWindowiP10_GtkWidget.cold
_ZN14wxNativeWindow8DoDisownEv
_ZN14wxNcPaintEvent12ms_classInfoE
_ZN14wxNcPaintEvent14wxCreateObjectEv
_ZN14wxNcPaintEvent14wxCreateObjectEv.cold
_ZN14wxNcPaintEventC1EP12wxWindowBase
_ZN14wxNcPaintEventC2EP12wxWindowBase
_ZN14wxNcPaintEventD0Ev
_ZN14wxNcPaintEventD1Ev
_ZN14wxNcPaintEventD2Ev
_ZN14wxNcPaintEventD5Ev
_ZN14wxNotebookBase20SendPageChangedEventEii
_ZN14wxNotebookBase20SendPageChangedEventEii.cold
_ZN14wxNotebookBase21SendPageChangingEventEi
_ZN14wxNotebookBase21SendPageChangingEventEi.cold
_ZN14wxOutputStream10OnSysWriteEPKvm
_ZN14wxOutputStream12ms_classInfoE
_ZN14wxOutputStream4PutCEc
_ZN14wxOutputStream4SyncEv
_ZN14wxOutputStream5CloseEv
_ZN14wxOutputStream5SeekOEl10wxSeekMode
_ZN14wxOutputStream5WriteEPKvm
_ZN14wxOutputStream5WriteER13wxInputStream
_ZN14wxOutputStream8WriteAllEPKvm
_ZN14wxOutputStreamC1Ev
_ZN14wxOutputStreamC2Ev
_ZN14wxOutputStreamD0Ev
_ZN14wxOutputStreamD1Ev
_ZN14wxOutputStreamD2Ev
_ZN14wxPGHashMapS2PixERK8wxString
_ZN14wxPGHashMapS2SixERK8wxString
_ZN14wxPGHeaderCtrl10OnResizingER17wxHeaderCtrlEvent
_ZN14wxPGHeaderCtrl11OnEndResizeER17wxHeaderCtrlEvent
_ZN14wxPGHeaderCtrl13OnBeginResizeER17wxHeaderCtrlEvent
_ZN14wxPGHeaderCtrl17EnsureColumnCountEj
_ZN14wxPGHeaderCtrl21OnColumnCountChangingEj
_ZN14wxPGHeaderCtrlC1EP21wxPropertyGridManageriRK7wxPointRK6wxSizel
_ZN14wxPGHeaderCtrlC2EP21wxPropertyGridManageriRK7wxPointRK6wxSizel
_ZN14wxPGHeaderCtrlC5EP21wxPropertyGridManageriRK7wxPointRK6wxSizel
_ZN14wxPGHeaderCtrlD0Ev
_ZN14wxPGHeaderCtrlD1Ev
_ZN14wxPGHeaderCtrlD2Ev
_ZN14wxPGHeaderCtrlD5Ev
_ZN14wxPixelDataOutI8wxBitmapE13wxPixelDataInI13wxPixelFormatIhLm24ELi0ELi1ELi2ELin1EjEED1Ev
_ZN14wxPixelDataOutI8wxBitmapE13wxPixelDataInI13wxPixelFormatIhLm24ELi0ELi1ELi2ELin1EjEED2Ev
_ZN14wxPixelDataOutI8wxBitmapE13wxPixelDataInI13wxPixelFormatIhLm24ELi0ELi1ELi2ELin1EjEED5Ev
_ZN14wxPlatformInfo13GetEndiannessERK8wxString
_ZN14wxPlatformInfo13GetEndiannessERK8wxString.cold
_ZN14wxPlatformInfo13GetPortIdNameE8wxPortIdb
_ZN14wxPlatformInfo13GetPortIdNameE8wxPortIdb.cold
_ZN14wxPlatformInfo14GetBitnessNameE9wxBitness
_ZN14wxPlatformInfo17GetEndiannessNameE12wxEndianness
_ZN14wxPlatformInfo18GetPortIdShortNameE8wxPortIdb
_ZN14wxPlatformInfo18GetPortIdShortNameE8wxPortIdb.cold
_ZN14wxPlatformInfo20GetOperatingSystemIdERK8wxString
_ZN14wxPlatformInfo20GetOperatingSystemIdERK8wxString.cold
_ZN14wxPlatformInfo22InitForCurrentPlatformEv
_ZN14wxPlatformInfo22InitForCurrentPlatformEv.cold
_ZN14wxPlatformInfo24GetOperatingSystemIdNameE19wxOperatingSystemId
_ZN14wxPlatformInfo27GetOperatingSystemDirectoryEv
_ZN14wxPlatformInfo28GetOperatingSystemFamilyNameE19wxOperatingSystemId
_ZN14wxPlatformInfo3GetEv
_ZN14wxPlatformInfo7GetArchERK8wxString
_ZN14wxPlatformInfo9GetPortIdERK8wxString
_ZN14wxPlatformInfo9GetPortIdERK8wxString.cold
_ZN14wxPlatformInfoC1E8wxPortIdii19wxOperatingSystemIdii9wxBitness12wxEndiannessb
_ZN14wxPlatformInfoC1Ev
_ZN14wxPlatformInfoC2E8wxPortIdii19wxOperatingSystemIdii9wxBitness12wxEndiannessb
_ZN14wxPlatformInfoC2Ev
_ZN14wxPlatformInfoC2Ev.cold
_ZN14wxPlatformInfoD1Ev
_ZN14wxPlatformInfoD2Ev
_ZN14wxPlatformInfoD5Ev
_ZN14wxPostScriptDC12ms_classInfoE
_ZN14wxPostScriptDC14wxCreateObjectEv
_ZN14wxPostScriptDC14wxCreateObjectEv.cold
_ZN14wxPostScriptDCC1ERK11wxPrintData
_ZN14wxPostScriptDCC1Ev
_ZN14wxPostScriptDCC2ERK11wxPrintData
_ZN14wxPostScriptDCC2ERK11wxPrintData.cold
_ZN14wxPostScriptDCC2Ev
_ZN14wxPostScriptDCC2Ev.cold
_ZN14wxPostScriptDCD0Ev
_ZN14wxPostScriptDCD1Ev
_ZN14wxPostScriptDCD2Ev
_ZN14wxPostScriptDCD5Ev
_ZN14wxPreviewFrame10InitializeEv
_ZN14wxPreviewFrame12CreateCanvasEv
_ZN14wxPreviewFrame12CreateCanvasEv.cold
_ZN14wxPreviewFrame12ms_classInfoE
_ZN14wxPreviewFrame13OnCloseWindowER12wxCloseEvent
_ZN14wxPreviewFrame13sm_eventTableE
_ZN14wxPreviewFrame16CreateControlBarEv
_ZN14wxPreviewFrame16CreateControlBarEv.cold
_ZN14wxPreviewFrame17sm_eventHashTableE
_ZN14wxPreviewFrame20sm_eventTableEntriesE
_ZN14wxPreviewFrame22InitializeWithModalityE26wxPreviewFrameModalityKind
_ZN14wxPreviewFrame22InitializeWithModalityE26wxPreviewFrameModalityKind.cold
_ZN14wxPreviewFrame6OnCharER10wxKeyEvent
_ZN14wxPreviewFrameC1EP18wxPrintPreviewBaseP8wxWindowRK8wxStringRK7wxPointRK6wxSizelS6_
_ZN14wxPreviewFrameC2EP18wxPrintPreviewBaseP8wxWindowRK8wxStringRK7wxPointRK6wxSizelS6_
_ZN14wxPreviewFrameC2EP18wxPrintPreviewBaseP8wxWindowRK8wxStringRK7wxPointRK6wxSizelS6_.cold
_ZN14wxPreviewFrameD0Ev
_ZN14wxPreviewFrameD1Ev
_ZN14wxPreviewFrameD2Ev
_ZN14wxPrintFactory10GetFactoryEv
_ZN14wxPrintFactory15SetPrintFactoryEPS_
_ZN14wxPrintFactory9m_factoryE
_ZN14wxPrintPreview10RenderPageEi
_ZN14wxPrintPreview11SetPrintoutEP10wxPrintout
_ZN14wxPrintPreview12ms_classInfoE
_ZN14wxPrintPreview13DrawBlankPageEP15wxPreviewCanvasR4wxDC
_ZN14wxPrintPreview14SetCurrentPageEi
_ZN14wxPrintPreview16AdjustScrollbarsEP15wxPreviewCanvas
_ZN14wxPrintPreview16DetermineScalingEv
_ZN14wxPrintPreview16DetermineScalingEv.localalias
_ZN14wxPrintPreview18GetPrintDialogDataEv
_ZN14wxPrintPreview19UpdatePageRenderingEv
_ZN14wxPrintPreview5PrintEb
_ZN14wxPrintPreview5PrintEb.localalias
_ZN14wxPrintPreview5SetOkEb
_ZN14wxPrintPreview7SetZoomEi
_ZN14wxPrintPreview8SetFrameEP7wxFrame
_ZN14wxPrintPreview9PaintPageEP15wxPreviewCanvasR4wxDC
_ZN14wxPrintPreview9SetCanvasEP15wxPreviewCanvas
_ZN14wxPrintPreviewC1EP10wxPrintoutS1_P11wxPrintData
_ZN14wxPrintPreviewC1EP10wxPrintoutS1_P17wxPrintDialogData
_ZN14wxPrintPreviewC2EP10wxPrintoutS1_P11wxPrintData
_ZN14wxPrintPreviewC2EP10wxPrintoutS1_P11wxPrintData.cold
_ZN14wxPrintPreviewC2EP10wxPrintoutS1_P17wxPrintDialogData
_ZN14wxPrintPreviewC2EP10wxPrintoutS1_P17wxPrintDialogData.cold
_ZN14wxPrintPreviewD0Ev
_ZN14wxPrintPreviewD0Ev.localalias
_ZN14wxPrintPreviewD1Ev
_ZN14wxPrintPreviewD2Ev
_ZN14wxProcessEvent12ms_classInfoE
_ZN14wxProcessEvent14wxCreateObjectEv
_ZN14wxProcessEvent14wxCreateObjectEv.cold
_ZN14wxProcessEventD0Ev
_ZN14wxProcessEventD1Ev
_ZN14wxProcessEventD2Ev
_ZN14wxProcessEventD5Ev
_ZN14wxPropertyGrid10DoCollapseEP12wxPGPropertyb
_ZN14wxPropertyGrid10OnTLPCloseER12wxCloseEvent
_ZN14wxPropertyGrid11FreeEditorsEv
_ZN14wxPropertyGrid11OnMouseMoveER12wxMouseEvent
_ZN14wxPropertyGrid11SwitchStateEP23wxPropertyGridPageState
_ZN14wxPropertyGrid11SwitchStateEP23wxPropertyGridPageState.cold
_ZN14wxPropertyGrid12GetStatusBarEv
_ZN14wxPropertyGrid12ms_classInfoE
_ZN14wxPropertyGrid12OnDPIChangedER17wxDPIChangedEvent
_ZN14wxPropertyGrid12OnFocusEventER12wxFocusEvent
_ZN14wxPropertyGrid12OnMouseClickER12wxMouseEvent
_ZN14wxPropertyGrid12OnMouseEntryER12wxMouseEvent
_ZN14wxPropertyGrid12ResetColoursEv
_ZN14wxPropertyGrid12ScrollWindowEiiPK6wxRect
_ZN14wxPropertyGrid13EnsureVisibleERK14wxPGPropArgCls
_ZN14wxPropertyGrid13EnsureVisibleERK14wxPGPropArgCls.cold
_ZN14wxPropertyGrid13HandleMouseUpEijR12wxMouseEvent
_ZN14wxPropertyGrid13IsSmallScreenEv
_ZN14wxPropertyGrid13OnMouseCommonER12wxMouseEventPiS2_
_ZN14wxPropertyGrid13OnScrollEventER16wxScrollWinEvent
_ZN14wxPropertyGrid13OnTLPChangingEP8wxWindow
_ZN14wxPropertyGrid13OnTLPChangingEP8wxWindow.cold
_ZN14wxPropertyGrid13RefreshEditorEv
_ZN14wxPropertyGrid13RefreshEditorEv.cold
_ZN14wxPropertyGrid13RegainColoursEv
_ZN14wxPropertyGrid13RegainColoursEv.cold
_ZN14wxPropertyGrid13RescaleBitmapERK8wxBitmapdd
_ZN14wxPropertyGrid13RescaleBitmapERK8wxBitmapdd.cold
_ZN14wxPropertyGrid13SetExtraStyleEl
_ZN14wxPropertyGrid13SetLineColourERK8wxColour
_ZN14wxPropertyGrid13SetScrollbarsEiiiiiib
_ZN14wxPropertyGrid13sm_eventTableE
_ZN14wxPropertyGrid13UnfocusEditorEv
_ZN14wxPropertyGrid14CenterSplitterEb
_ZN14wxPropertyGrid14DoEndLabelEditEbi
_ZN14wxPropertyGrid14DoEndLabelEditEbi.cold
_ZN14wxPropertyGrid14DoHidePropertyEP12wxPGPropertybi
_ZN14wxPropertyGrid14DoHidePropertyEP12wxPGPropertybi.cold
_ZN14wxPropertyGrid14DoSetSelectionERK17wxArrayPGPropertyi
_ZN14wxPropertyGrid14DoubleToStringER8wxStringdibPS0_
_ZN14wxPropertyGrid14DoubleToStringER8wxStringdibPS0_.cold
_ZN14wxPropertyGrid14HandleKeyEventER10wxKeyEventb
_ZN14wxPropertyGrid14HandleKeyEventER10wxKeyEventb.cold
_ZN14wxPropertyGrid14OnChildKeyDownER10wxKeyEvent
_ZN14wxPropertyGrid14OnMouseUpChildER12wxMouseEvent
_ZN14wxPropertyGrid14SelectPropertyERK14wxPGPropArgClsb
_ZN14wxPropertyGrid14wxCreateObjectEv
_ZN14wxPropertyGrid14wxCreateObjectEv.cold
_ZN14wxPropertyGrid15CustomSetCursorEib
_ZN14wxPropertyGrid15CustomSetCursorEib.cold
_ZN14wxPropertyGrid15DoSelectAndEditEP12wxPGPropertyjj
_ZN14wxPropertyGrid15HandleMouseMoveEijR12wxMouseEvent
_ZN14wxPropertyGrid15HandleMouseMoveEijR12wxMouseEvent.cold
_ZN14wxPropertyGrid15OnCaptureChangeER26wxMouseCaptureChangedEvent
_ZN14wxPropertyGrid15RefreshPropertyEP12wxPGProperty
_ZN14wxPropertyGrid15RefreshPropertyEP12wxPGProperty.cold
_ZN14wxPropertyGrid15SetMarginColourERK8wxColour
_ZN14wxPropertyGrid15SetVirtualWidthEi
_ZN14wxPropertyGrid16AddActionTriggerEiii
_ZN14wxPropertyGrid16DestroyEditorWndEP8wxWindow
_ZN14wxPropertyGrid16DoAddToSelectionEP12wxPGPropertyi
_ZN14wxPropertyGrid16DoBeginLabelEditEji
_ZN14wxPropertyGrid16DoBeginLabelEditEji.cold
_ZN14wxPropertyGrid16DoEditorValidateEv
_ZN14wxPropertyGrid16DoEditorValidateEv.cold
_ZN14wxPropertyGrid16DoSelectPropertyEP12wxPGPropertyj
_ZN14wxPropertyGrid16DoSelectPropertyEP12wxPGPropertyj.cold
_ZN14wxPropertyGrid16EnableCategoriesEb
_ZN14wxPropertyGrid16HandleMouseClickEijR12wxMouseEvent
_ZN14wxPropertyGrid16OnComboItemPaintEPK12wxPGComboBoxiP4wxDCR6wxRecti
_ZN14wxPropertyGrid16OnComboItemPaintEPK12wxPGComboBoxiP4wxDCR6wxRecti.cold
_ZN14wxPropertyGrid16OnMouseMoveChildER12wxMouseEvent
_ZN14wxPropertyGrid16ResetColumnSizesEb
_ZN14wxPropertyGrid16SetFocusOnCanvasEv
_ZN14wxPropertyGrid17DoPropertyChangedEP12wxPGPropertyj
_ZN14wxPropertyGrid17DoPropertyChangedEP12wxPGPropertyj.cold
_ZN14wxPropertyGrid17FixPosForTextCtrlEP8wxWindowjRK7wxPoint
_ZN14wxPropertyGrid17HandleFocusChangeEP8wxWindow
_ZN14wxPropertyGrid17HandleFocusChangeEP8wxWindow.cold
_ZN14wxPropertyGrid17OnChildFocusEventER17wxChildFocusEvent
_ZN14wxPropertyGrid17OnMouseClickChildER12wxMouseEvent
_ZN14wxPropertyGrid17OnMouseRightClickER12wxMouseEvent
_ZN14wxPropertyGrid17PerformValidationEP12wxPGPropertyR9wxVarianti
_ZN14wxPropertyGrid17PerformValidationEP12wxPGPropertyR9wxVarianti.cold
_ZN14wxPropertyGrid17SetCellTextColourERK8wxColour
_ZN14wxPropertyGrid17sm_eventHashTableE
_ZN14wxPropertyGrid18AutoGetTranslationEb
_ZN14wxPropertyGrid18MakeColumnEditableEjb
_ZN14wxPropertyGrid18OnMouseChildCommonER12wxMouseEventPiS2_
_ZN14wxPropertyGrid18OnMouseDoubleClickER12wxMouseEvent
_ZN14wxPropertyGrid18OnSysColourChangedER23wxSysColourChangedEvent
_ZN14wxPropertyGrid18SetWindowStyleFlagEl
_ZN14wxPropertyGrid19ChangePropertyValueERK14wxPGPropArgCls9wxVariant
_ZN14wxPropertyGrid19ClearActionTriggersEi
_ZN14wxPropertyGrid19DoHidePropertyErrorEP12wxPGProperty
_ZN14wxPropertyGrid19DoHidePropertyErrorEP12wxPGProperty.cold
_ZN14wxPropertyGrid19DoShowPropertyErrorEP12wxPGPropertyRK8wxString
_ZN14wxPropertyGrid19DoShowPropertyErrorEP12wxPGPropertyRK8wxString.cold
_ZN14wxPropertyGrid19DrawItemAndChildrenEP12wxPGProperty
_ZN14wxPropertyGrid19OnValidationFailureEP12wxPGPropertyR9wxVariant
_ZN14wxPropertyGrid19OnValidationFailureEP12wxPGPropertyR9wxVariant.cold
_ZN14wxPropertyGrid19SetEditorAppearanceERK8wxPGCellb
_ZN14wxPropertyGrid19SetEmptySpaceColourERK8wxColour
_ZN14wxPropertyGrid20ButtonTriggerKeyTestEiR10wxKeyEvent
_ZN14wxPropertyGrid20ButtonTriggerKeyTestEiR10wxKeyEvent.cold
_ZN14wxPropertyGrid20DeletePendingObjectsEv
_ZN14wxPropertyGrid20GenerateEditorButtonERK7wxPointRK6wxSize
_ZN14wxPropertyGrid20GenerateEditorButtonERK7wxPointRK6wxSize.cold
_ZN14wxPropertyGrid20SetCaptionTextColourERK8wxColour
_ZN14wxPropertyGrid20sm_eventTableEntriesE
_ZN14wxPropertyGrid21CreateEscapeSequencesER8wxStringRKS0_
_ZN14wxPropertyGrid21DoOnValidationFailureEP12wxPGPropertyR9wxVariant
_ZN14wxPropertyGrid21DoOnValidationFailureEP12wxPGPropertyR9wxVariant.cold
_ZN14wxPropertyGrid21DoRegisterEditorClassEP10wxPGEditorRK8wxStringb
_ZN14wxPropertyGrid21DoRegisterEditorClassEP10wxPGEditorRK8wxStringb.cold
_ZN14wxPropertyGrid21DoRemoveFromSelectionEP12wxPGPropertyi
_ZN14wxPropertyGrid21DoSetSplitterPositionEiii
_ZN14wxPropertyGrid21ExpandEscapeSequencesER8wxStringRKS0_
_ZN14wxPropertyGrid21HandleMouseRightClickEijR12wxMouseEvent
_ZN14wxPropertyGrid21OnLabelEditorKeyPressER10wxKeyEvent
_ZN14wxPropertyGrid21SetCurControlBoldFontEv
_ZN14wxPropertyGrid22GenerateEditorTextCtrlERK7wxPointRK6wxSizeRK8wxStringP8wxWindowiij
_ZN14wxPropertyGrid22GenerateEditorTextCtrlERK7wxPointRK6wxSizeRK8wxStringP8wxWindowiij.cold
_ZN14wxPropertyGrid22HandleMouseDoubleClickEijR12wxMouseEvent
_ZN14wxPropertyGrid22OnMouseRightClickChildER12wxMouseEvent
_ZN14wxPropertyGrid22PrepareAfterItemsAddedEv
_ZN14wxPropertyGrid22RecalculateVirtualSizeEi
_ZN14wxPropertyGrid22RegisterDefaultEditorsEv
_ZN14wxPropertyGrid22RegisterDefaultEditorsEv.cold
_ZN14wxPropertyGrid22SetSelectionTextColourERK8wxColour
_ZN14wxPropertyGrid23CommitChangesFromEditorEj
_ZN14wxPropertyGrid23CommitChangesFromEditorEj.cold
_ZN14wxPropertyGrid23CorrectEditorWidgetPosYEv
_ZN14wxPropertyGrid23DrawItemAndValueRelatedEP12wxPGProperty
_ZN14wxPropertyGrid23HandleCustomEditorEventER7wxEvent
_ZN14wxPropertyGrid23HandleCustomEditorEventER7wxEvent.cold
_ZN14wxPropertyGrid23OnLabelEditorEnterPressER14wxCommandEvent
_ZN14wxPropertyGrid23SetCellBackgroundColourERK8wxColour
_ZN14wxPropertyGrid23SetupChildEventHandlingEP8wxWindow
_ZN14wxPropertyGrid23SetupChildEventHandlingEP8wxWindow.cold
_ZN14wxPropertyGrid24CorrectEditorWidgetSizeXEv
_ZN14wxPropertyGrid25SetCellDisabledTextColourERK8wxColour
_ZN14wxPropertyGrid26DoOnValidationFailureResetEP12wxPGProperty
_ZN14wxPropertyGrid26DoOnValidationFailureResetEP12wxPGProperty.cold
_ZN14wxPropertyGrid26SetCaptionBackgroundColourERK8wxColour
_ZN14wxPropertyGrid27CalculateFontAndBitmapStuffEi
_ZN14wxPropertyGrid27CalculateFontAndBitmapStuffEi.cold
_ZN14wxPropertyGrid27GetGoodEditorDialogPositionEP12wxPGPropertyRK6wxSize
_ZN14wxPropertyGrid27GetUncommittedPropertyValueEv
_ZN14wxPropertyGrid27GetUncommittedPropertyValueEv.cold
_ZN14wxPropertyGrid28AddToSelectionFromInputEventEP12wxPGPropertyjP12wxMouseEventi
_ZN14wxPropertyGrid28SetSelectionBackgroundColourERK8wxColour
_ZN14wxPropertyGrid31GenerateEditorTextCtrlAndButtonERK7wxPointRK6wxSizePP8wxWindowiP12wxPGProperty
_ZN14wxPropertyGrid31GenerateEditorTextCtrlAndButtonERK7wxPointRK6wxSizePP8wxWindowiP12wxPGProperty.cold
_ZN14wxPropertyGrid5ClearEv
_ZN14wxPropertyGrid5Init1Ev
_ZN14wxPropertyGrid5Init1Ev.cold
_ZN14wxPropertyGrid5Init2Ev
_ZN14wxPropertyGrid5Init2Ev.cold
_ZN14wxPropertyGrid5OnKeyER10wxKeyEvent
_ZN14wxPropertyGrid6CreateEP8wxWindowiRK7wxPointRK6wxSizelRK8wxString
_ZN14wxPropertyGrid6DoThawEv
_ZN14wxPropertyGrid6DoThawEv.cold
_ZN14wxPropertyGrid6OnIdleER11wxIdleEvent
_ZN14wxPropertyGrid6OnIdleER11wxIdleEvent.cold
_ZN14wxPropertyGrid7DestroyEv
_ZN14wxPropertyGrid7OnPaintER12wxPaintEvent
_ZN14wxPropertyGrid7OnPaintER12wxPaintEvent.cold
_ZN14wxPropertyGrid7RefreshEbPK6wxRect
_ZN14wxPropertyGrid7SetFontERK6wxFont
_ZN14wxPropertyGrid8DoEnableEb
_ZN14wxPropertyGrid8DoExpandEP12wxPGPropertyb
_ZN14wxPropertyGrid8OnResizeER11wxSizeEvent
_ZN14wxPropertyGrid8ReparentEP12wxWindowBase
_ZN14wxPropertyGrid9DrawItemsEPK12wxPGPropertyS2_
_ZN14wxPropertyGrid9DrawItemsER4wxDCjjPK6wxRect
_ZN14wxPropertyGrid9DrawItemsER4wxDCjjPK6wxRect.cold
_ZN14wxPropertyGrid9OnMouseUpER12wxMouseEvent
_ZN14wxPropertyGrid9SendEventEii
_ZN14wxPropertyGrid9SendEventEii.cold
_ZN14wxPropertyGrid9SendEventEiP12wxPGPropertyP9wxVariantjj
_ZN14wxPropertyGrid9SendEventEiP12wxPGPropertyP9wxVariantjj.cold
_ZN14wxPropertyGridC1EP8wxWindowiRK7wxPointRK6wxSizelRK8wxString
_ZN14wxPropertyGridC1Ev
_ZN14wxPropertyGridC2EP8wxWindowiRK7wxPointRK6wxSizelRK8wxString
_ZN14wxPropertyGridC2EP8wxWindowiRK7wxPointRK6wxSizelRK8wxString.cold
_ZN14wxPropertyGridC2Ev
_ZN14wxPropertyGridC2Ev.cold
_ZN14wxPropertyGridD0Ev
_ZN14wxPropertyGridD1Ev
_ZN14wxPropertyGridD2Ev
_ZN14wxRadioBoxBase11SetMajorDimEjl
_ZN14wxRadioBoxBase14SetItemToolTipEjRK8wxString
_ZN14wxRadioBoxBase14SetItemToolTipEjRK8wxString.cold
_ZN14wxRadioBoxBase15SetItemHelpTextEjRK8wxString
_ZN14wxRadioBoxBase15SetItemHelpTextEjRK8wxString.cold
_ZN14wxRadioBoxBase16DoSetItemToolTipEjP9wxToolTip
_ZN14wxRadioBoxBase16DoSetItemToolTipEjP9wxToolTip.localalias
_ZN14wxRadioBoxBaseD0Ev
_ZN14wxRadioBoxBaseD1Ev
_ZN14wxRadioBoxBaseD2Ev
_ZN14wxRect2DDouble11ConstrainToERKS_
_ZN14wxRect2DDouble5UnionERK15wxPoint2DDouble
_ZN14wxRect2DDouble5UnionERKS_S1_PS_
_ZN14wxRect2DDouble9IntersectERKS_S1_PS_
_ZN14wxRichTextAttr11RemoveStyleERKS_
_ZN14wxRichTextAttr23CollectCommonAttributesERKS_RS_S2_
_ZN14wxRichTextAttr4CopyERKS_
_ZN14wxRichTextAttr5ApplyERKS_PS0_
_ZN14wxRichTextAttrC1ERKS_
_ZN14wxRichTextAttrC1Ev
_ZN14wxRichTextAttrC2ERKS_
_ZN14wxRichTextAttrC2Ev
_ZN14wxRichTextAttrC5ERKS_
_ZN14wxRichTextAttrC5Ev
_ZN14wxRichTextCell10SetColSpanEi
_ZN14wxRichTextCell10SetColSpanEi.cold
_ZN14wxRichTextCell10SetRowSpanEi
_ZN14wxRichTextCell10SetRowSpanEi.cold
_ZN14wxRichTextCell12ms_classInfoE
_ZN14wxRichTextCell14EditPropertiesEP8wxWindowP16wxRichTextBuffer
_ZN14wxRichTextCell14EditPropertiesEP8wxWindowP16wxRichTextBuffer.cold
_ZN14wxRichTextCell14wxCreateObjectEv
_ZN14wxRichTextCell14wxCreateObjectEv.cold
_ZN14wxRichTextCell16AdjustAttributesER14wxRichTextAttrR24wxRichTextDrawingContext
_ZN14wxRichTextCell4CopyERKS_
_ZN14wxRichTextCell4DrawER4wxDCR24wxRichTextDrawingContextRK15wxRichTextRangeRK19wxRichTextSelectionRK6wxRectii
_ZN14wxRichTextCell7HitTestER4wxDCR24wxRichTextDrawingContextRK7wxPointRlPP16wxRichTextObjectSA_i
_ZN14wxRichTextCell7HitTestER4wxDCR24wxRichTextDrawingContextRK7wxPointRlPP16wxRichTextObjectSA_i.localalias
_ZN14wxRichTextCellC1EP16wxRichTextObject
_ZN14wxRichTextCellC2EP16wxRichTextObject
_ZN14wxRichTextCellD0Ev
_ZN14wxRichTextCellD1Ev
_ZN14wxRichTextCellD2Ev
_ZN14wxRichTextCellD5Ev
_ZN14wxRichTextCtrl10AppendTextERK8wxString
_ZN14wxRichTextCtrl10ApplyStyleEP25wxRichTextStyleDefinition
_ZN14wxRichTextCtrl10ApplyStyleEP25wxRichTextStyleDefinition.cold
_ZN14wxRichTextCtrl10BeginStyleERK14wxRichTextAttr
_ZN14wxRichTextCtrl10DoLoadFileERK8wxStringi
_ZN14wxRichTextCtrl10DoLoadFileERK8wxStringi.cold
_ZN14wxRichTextCtrl10DoSaveFileERK8wxStringi
_ZN14wxRichTextCtrl10DoSaveFileERK8wxStringi.cold
_ZN14wxRichTextCtrl10DoSetValueERK8wxStringi
_ZN14wxRichTextCtrl10NumberListERK15wxRichTextRangeP29wxRichTextListStyleDefinitioniii
_ZN14wxRichTextCtrl10NumberListERK15wxRichTextRangeP29wxRichTextListStyleDefinitioniii.localalias
_ZN14wxRichTextCtrl10NumberListERK15wxRichTextRangeRK8wxStringiii
_ZN14wxRichTextCtrl10OnSetFocusER12wxFocusEvent
_ZN14wxRichTextCtrl10SelectNoneEv
_ZN14wxRichTextCtrl10SelectNoneEv.cold
_ZN14wxRichTextCtrl10SelectWordEl
_ZN14wxRichTextCtrl10SetStyleExERK15wxRichTextRangeRK14wxRichTextAttri
_ZN14wxRichTextCtrl10SetStyleExERK15wxRichTextRangeRK14wxRichTextAttri.localalias
_ZN14wxRichTextCtrl10WriteFieldERK8wxStringRK20wxRichTextPropertiesRK14wxRichTextAttr
_ZN14wxRichTextCtrl10WriteImageERK20wxRichTextImageBlockRK14wxRichTextAttr
_ZN14wxRichTextCtrl10WriteImageERK20wxRichTextImageBlockRK14wxRichTextAttr.localalias
_ZN14wxRichTextCtrl10WriteImageERK7wxImage12wxBitmapTypeRK14wxRichTextAttr
_ZN14wxRichTextCtrl10WriteImageERK7wxImage12wxBitmapTypeRK14wxRichTextAttr.cold
_ZN14wxRichTextCtrl10WriteImageERK8wxBitmap12wxBitmapTypeRK14wxRichTextAttr
_ZN14wxRichTextCtrl10WriteImageERK8wxBitmap12wxBitmapTypeRK14wxRichTextAttr.cold
_ZN14wxRichTextCtrl10WriteImageERK8wxString12wxBitmapTypeRK14wxRichTextAttr
_ZN14wxRichTextCtrl10WriteImageERK8wxString12wxBitmapTypeRK14wxRichTextAttr.cold
_ZN14wxRichTextCtrl10WriteTableEiiRK14wxRichTextAttrS2_
_ZN14wxRichTextCtrl10WriteTableEiiRK14wxRichTextAttrS2_.cold
_ZN14wxRichTextCtrl11DoWriteTextERK8wxStringi
_ZN14wxRichTextCtrl11DoWriteTextERK8wxStringi.cold
_ZN14wxRichTextCtrl11OnDropFilesER16wxDropFilesEvent
_ZN14wxRichTextCtrl11OnKillFocusER12wxFocusEvent
_ZN14wxRichTextCtrl11OnLeftClickER12wxMouseEvent
_ZN14wxRichTextCtrl11OnLeftClickER12wxMouseEvent.cold
_ZN14wxRichTextCtrl11OnMoveMouseER12wxMouseEvent
_ZN14wxRichTextCtrl11OnMoveMouseER12wxMouseEvent.cold
_ZN14wxRichTextCtrl11OnSelectAllER14wxCommandEvent
_ZN14wxRichTextCtrl11OnUpdateCutER15wxUpdateUIEvent
_ZN14wxRichTextCtrl11PromoteListEiRK15wxRichTextRangeP29wxRichTextListStyleDefinitionii
_ZN14wxRichTextCtrl11PromoteListEiRK15wxRichTextRangeP29wxRichTextListStyleDefinitionii.localalias
_ZN14wxRichTextCtrl11PromoteListEiRK15wxRichTextRangeRK8wxStringii
_ZN14wxRichTextCtrl11SetEditableEb
_ZN14wxRichTextCtrl11SetEditableEb.localalias
_ZN14wxRichTextCtrl12AddParagraphERK8wxString
_ZN14wxRichTextCtrl12DiscardEditsEv
_ZN14wxRichTextCtrl12DoSetMarginsERK7wxPoint
_ZN14wxRichTextCtrl12EndAllStylesEv
_ZN14wxRichTextCtrl12EndBatchUndoEv
_ZN14wxRichTextCtrl12ms_classInfoE
_ZN14wxRichTextCtrl12OnLeftDClickER12wxMouseEvent
_ZN14wxRichTextCtrl12OnLeftDClickER12wxMouseEvent.cold
_ZN14wxRichTextCtrl12OnPropertiesER14wxCommandEvent
_ZN14wxRichTextCtrl12OnRightClickER12wxMouseEvent
_ZN14wxRichTextCtrl12OnRightClickER12wxMouseEvent.cold
_ZN14wxRichTextCtrl12OnUpdateCopyER15wxUpdateUIEvent
_ZN14wxRichTextCtrl12OnUpdateRedoER15wxUpdateUIEvent
_ZN14wxRichTextCtrl12OnUpdateRedoER15wxUpdateUIEvent.cold
_ZN14wxRichTextCtrl12OnUpdateUndoER15wxUpdateUIEvent
_ZN14wxRichTextCtrl12OnUpdateUndoER15wxUpdateUIEvent.cold
_ZN14wxRichTextCtrl12SetFontScaleEdb
_ZN14wxRichTextCtrl12SetListStyleERK15wxRichTextRangeP29wxRichTextListStyleDefinitioniii
_ZN14wxRichTextCtrl12SetListStyleERK15wxRichTextRangeP29wxRichTextListStyleDefinitioniii.localalias
_ZN14wxRichTextCtrl12SetListStyleERK15wxRichTextRangeRK8wxStringiii
_ZN14wxRichTextCtrl12SetMaxLengthEm
_ZN14wxRichTextCtrl12SetSelectionEll
_ZN14wxRichTextCtrl12SetSelectionEll.cold
_ZN14wxRichTextCtrl12ShowPositionEl
_ZN14wxRichTextCtrl12WriteTextBoxERK14wxRichTextAttr
_ZN14wxRichTextCtrl12WriteTextBoxERK14wxRichTextAttr.cold
_ZN14wxRichTextCtrl13LayoutContentEb
_ZN14wxRichTextCtrl13LayoutContentEb.cold
_ZN14wxRichTextCtrl13MoveCaretBackEl
_ZN14wxRichTextCtrl13MoveToLineEndEi
_ZN14wxRichTextCtrl13OnCaptureLostER23wxMouseCaptureLostEvent
_ZN14wxRichTextCtrl13OnContextMenuER18wxContextMenuEvent
_ZN14wxRichTextCtrl13OnMiddleClickER12wxMouseEvent
_ZN14wxRichTextCtrl13OnMiddleClickER12wxMouseEvent.cold
_ZN14wxRichTextCtrl13OnUpdateClearER15wxUpdateUIEvent
_ZN14wxRichTextCtrl13OnUpdatePasteER15wxUpdateUIEvent
_ZN14wxRichTextCtrl13PositionCaretEP28wxRichTextParagraphLayoutBox
_ZN14wxRichTextCtrl13PositionCaretEP28wxRichTextParagraphLayoutBox.localalias
_ZN14wxRichTextCtrl13PositionCaretEP28wxRichTextParagraphLayoutBox.part.0
_ZN14wxRichTextCtrl13SetBasicStyleERK14wxRichTextAttr
_ZN14wxRichTextCtrl13SetPropertiesERK15wxRichTextRangeRK20wxRichTextPropertiesi
_ZN14wxRichTextCtrl13sm_eventTableE
_ZN14wxRichTextCtrl14BeginBatchUndoERK8wxString
_ZN14wxRichTextCtrl14ClearListStyleERK15wxRichTextRangei
_ZN14wxRichTextCtrl14DoLayoutBufferER16wxRichTextBufferR4wxDCR24wxRichTextDrawingContextRK6wxRectS8_i
_ZN14wxRichTextCtrl14DoLayoutBufferER16wxRichTextBufferR4wxDCR24wxRichTextDrawingContextRK6wxRectS8_i.localalias
_ZN14wxRichTextCtrl14EditPropertiesEP16wxRichTextObjectP8wxWindow
_ZN14wxRichTextCtrl14PrepareContentER28wxRichTextParagraphLayoutBox
_ZN14wxRichTextCtrl14ProcessBackKeyER10wxKeyEventi
_ZN14wxRichTextCtrl14ProcessBackKeyER10wxKeyEventi.cold
_ZN14wxRichTextCtrl14ScrollIntoViewEli
_ZN14wxRichTextCtrl14ScrollIntoViewEli.cold
_ZN14wxRichTextCtrl14SetContextMenuEP6wxMenu
_ZN14wxRichTextCtrl14SetFocusObjectEP28wxRichTextParagraphLayoutBoxb
_ZN14wxRichTextCtrl14SetFocusObjectEP28wxRichTextParagraphLayoutBoxb.cold
_ZN14wxRichTextCtrl14wxCreateObjectEv
_ZN14wxRichTextCtrl14wxCreateObjectEv.cold
_ZN14wxRichTextCtrl15ApplyStyleSheetEP20wxRichTextStyleSheet
_ZN14wxRichTextCtrl15DeleteSelectionEv
_ZN14wxRichTextCtrl15EndSuppressUndoEv
_ZN14wxRichTextCtrl15ExtendSelectionElli
_ZN14wxRichTextCtrl15ExtendSelectionElli.cold
_ZN14wxRichTextCtrl15IsSelectionBoldEv
_ZN14wxRichTextCtrl15IsSelectionBoldEv.cold
_ZN14wxRichTextCtrl15MoveToLineStartEi
_ZN14wxRichTextCtrl15PaintBackgroundER4wxDC
_ZN14wxRichTextCtrl15PaintBackgroundER4wxDC.cold
_ZN14wxRichTextCtrl15SetDefaultStyleERK10wxTextAttr
_ZN14wxRichTextCtrl15SetDefaultStyleERK10wxTextAttr.cold
_ZN14wxRichTextCtrl15SetDefaultStyleERK14wxRichTextAttr
_ZN14wxRichTextCtrl15SetDefaultStyleERK14wxRichTextAttr.cold
_ZN14wxRichTextCtrl15SetupScrollbarsEbb
_ZN14wxRichTextCtrl15ShowContextMenuEP6wxMenuRK7wxPointb
_ZN14wxRichTextCtrl15ShowContextMenuEP6wxMenuRK7wxPointb.localalias
_ZN14wxRichTextCtrl16DoSetVirtualSizeEii
_ZN14wxRichTextCtrl16FindRangeForListElRb
_ZN14wxRichTextCtrl16FindRangeForListElRb.cold
_ZN14wxRichTextCtrl16GetStyleForRangeERK15wxRichTextRangeR10wxTextAttr
_ZN14wxRichTextCtrl16GetStyleForRangeERK15wxRichTextRangeR10wxTextAttr.cold
_ZN14wxRichTextCtrl16GetStyleForRangeERK15wxRichTextRangeR14wxRichTextAttr
_ZN14wxRichTextCtrl16GetStyleForRangeERK15wxRichTextRangeR14wxRichTextAttrP28wxRichTextParagraphLayoutBox
_ZN14wxRichTextCtrl16KeyboardNavigateEii
_ZN14wxRichTextCtrl16MoveCaretForwardEl
_ZN14wxRichTextCtrl16SetCaretPositionElb
_ZN14wxRichTextCtrl17BeginSuppressUndoEv
_ZN14wxRichTextCtrl17GetEditableWindowEv
_ZN14wxRichTextCtrl17OnEraseBackgroundER12wxEraseEvent
_ZN14wxRichTextCtrl17OnUpdateSelectAllER15wxUpdateUIEvent
_ZN14wxRichTextCtrl17PaintAboveContentER4wxDC
_ZN14wxRichTextCtrl17SetDimensionScaleEdb
_ZN14wxRichTextCtrl17SetInsertionPointEl
_ZN14wxRichTextCtrl17SetSelectionRangeERK15wxRichTextRange
_ZN14wxRichTextCtrl17sm_eventHashTableE
_ZN14wxRichTextCtrl18ForceDelayedLayoutEv
_ZN14wxRichTextCtrl18GetUncombinedStyleElR14wxRichTextAttr
_ZN14wxRichTextCtrl18GetUncombinedStyleElR14wxRichTextAttr.localalias
_ZN14wxRichTextCtrl18GetUncombinedStyleElR14wxRichTextAttrP28wxRichTextParagraphLayoutBox
_ZN14wxRichTextCtrl18IsSelectionAlignedE19wxTextAttrAlignment
_ZN14wxRichTextCtrl18IsSelectionAlignedE19wxTextAttrAlignment.cold
_ZN14wxRichTextCtrl18IsSelectionItalicsEv
_ZN14wxRichTextCtrl18IsSelectionItalicsEv.cold
_ZN14wxRichTextCtrl18MoveToParagraphEndEi
_ZN14wxRichTextCtrl18OnSysColourChangedER23wxSysColourChangedEvent
_ZN14wxRichTextCtrl18OnSysColourChangedER23wxSysColourChangedEvent.cold
_ZN14wxRichTextCtrl18OnUpdatePropertiesER15wxUpdateUIEvent
_ZN14wxRichTextCtrl18PrepareContextMenuEP6wxMenuRK7wxPointb
_ZN14wxRichTextCtrl18PrepareContextMenuEP6wxMenuRK7wxPointb.cold
_ZN14wxRichTextCtrl18StartCellSelectionEP15wxRichTextTableP28wxRichTextParagraphLayoutBox
_ZN14wxRichTextCtrl18StartCellSelectionEP15wxRichTextTableP28wxRichTextParagraphLayoutBox.cold
_ZN14wxRichTextCtrl19ExtendCellSelectionEP15wxRichTextTableii
_ZN14wxRichTextCtrl19ExtendCellSelectionEP15wxRichTextTableii.cold
_ZN14wxRichTextCtrl20ApplyBoldToSelectionEv
_ZN14wxRichTextCtrl20ApplyBoldToSelectionEv.cold
_ZN14wxRichTextCtrl20FindContainerAtPointERK7wxPointRlRiP16wxRichTextObjecti
_ZN14wxRichTextCtrl20FindContainerAtPointERK7wxPointRlRiP16wxRichTextObjecti.cold
_ZN14wxRichTextCtrl20MoveToParagraphStartEi
_ZN14wxRichTextCtrl20ProcessMouseMovementEP28wxRichTextParagraphLayoutBoxP16wxRichTextObjectlRK7wxPoint
_ZN14wxRichTextCtrl20ProcessMouseMovementEP28wxRichTextParagraphLayoutBoxP16wxRichTextObjectlRK7wxPoint.cold
_ZN14wxRichTextCtrl20SetInsertionPointEndEv
_ZN14wxRichTextCtrl20sm_eventTableEntriesE
_ZN14wxRichTextCtrl21DeleteSelectedContentEPl
_ZN14wxRichTextCtrl21GetAvailableFontNamesEv
_ZN14wxRichTextCtrl21GetAvailableFontNamesEv.cold
_ZN14wxRichTextCtrl21IsSelectionUnderlinedEv
_ZN14wxRichTextCtrl21IsSelectionUnderlinedEv.cold
_ZN14wxRichTextCtrl21sm_availableFontNamesE
_ZN14wxRichTextCtrl22ApplyItalicToSelectionEv
_ZN14wxRichTextCtrl22ApplyItalicToSelectionEv.cold
_ZN14wxRichTextCtrl22GetPropertiesMenuLabelEP16wxRichTextObject
_ZN14wxRichTextCtrl23ClearAvailableFontNamesEv
_ZN14wxRichTextCtrl23EnableVerticalScrollbarEb
_ZN14wxRichTextCtrl24GetCaretPositionForIndexElR6wxRectP28wxRichTextParagraphLayoutBox
_ZN14wxRichTextCtrl24GetCaretPositionForIndexElR6wxRectP28wxRichTextParagraphLayoutBox.cold
_ZN14wxRichTextCtrl25ApplyAlignmentToSelectionE19wxTextAttrAlignment
_ZN14wxRichTextCtrl25ApplyAlignmentToSelectionE19wxTextAttrAlignment.cold
_ZN14wxRichTextCtrl25ApplyUnderlineToSelectionEv
_ZN14wxRichTextCtrl25ApplyUnderlineToSelectionEv.cold
_ZN14wxRichTextCtrl25RefreshForSelectionChangeERK19wxRichTextSelectionS2_
_ZN14wxRichTextCtrl25RefreshForSelectionChangeERK19wxRichTextSelectionS2_.cold
_ZN14wxRichTextCtrl26ApplyTextEffectToSelectionEi
_ZN14wxRichTextCtrl26ApplyTextEffectToSelectionEi.cold
_ZN14wxRichTextCtrl26ProcessDelayedImageLoadingEb
_ZN14wxRichTextCtrl26ProcessDelayedImageLoadingERK6wxRectP28wxRichTextParagraphLayoutBoxRi
_ZN14wxRichTextCtrl26ProcessDelayedImageLoadingERK6wxRectP28wxRichTextParagraphLayoutBoxRi.cold
_ZN14wxRichTextCtrl26ProcessDelayedImageLoadingERK6wxRectP28wxRichTextParagraphLayoutBoxRi.localalias
_ZN14wxRichTextCtrl26SetCaretPositionAfterClickEP28wxRichTextParagraphLayoutBoxlib
_ZN14wxRichTextCtrl28SetDefaultStyleToCursorStyleEv
_ZN14wxRichTextCtrl28SetDefaultStyleToCursorStyleEv.cold
_ZN14wxRichTextCtrl29RequestDelayedImageProcessingEv
_ZN14wxRichTextCtrl31DoesSelectionHaveTextEffectFlagEi
_ZN14wxRichTextCtrl31DoesSelectionHaveTextEffectFlagEi.cold
_ZN14wxRichTextCtrl37FindCaretPositionForCharacterPositionEliP28wxRichTextParagraphLayoutBoxRb
_ZN14wxRichTextCtrl3CutEv
_ZN14wxRichTextCtrl4CopyEv
_ZN14wxRichTextCtrl4InitEv
_ZN14wxRichTextCtrl4RedoEv
_ZN14wxRichTextCtrl4UndoEv
_ZN14wxRichTextCtrl5ClearEv
_ZN14wxRichTextCtrl5OnCutER14wxCommandEvent
_ZN14wxRichTextCtrl5PasteEv
_ZN14wxRichTextCtrl5PasteEv.cold
_ZN14wxRichTextCtrl6CreateEP8wxWindowiRK8wxStringRK7wxPointRK6wxSizelRK11wxValidatorS4_
_ZN14wxRichTextCtrl6CreateEP8wxWindowiRK8wxStringRK7wxPointRK6wxSizelRK11wxValidatorS4_.cold
_ZN14wxRichTextCtrl6DeleteERK15wxRichTextRange
_ZN14wxRichTextCtrl6DoThawEv
_ZN14wxRichTextCtrl6LayoutEv
_ZN14wxRichTextCtrl6MoveUpEii
_ZN14wxRichTextCtrl6MoveUpEii.localalias
_ZN14wxRichTextCtrl6OnCharER10wxKeyEvent
_ZN14wxRichTextCtrl6OnCharER10wxKeyEvent.cold
_ZN14wxRichTextCtrl6OnCopyER14wxCommandEvent
_ZN14wxRichTextCtrl6OnDropEii12wxDragResultP12wxDataObject
_ZN14wxRichTextCtrl6OnIdleER11wxIdleEvent
_ZN14wxRichTextCtrl6OnRedoER14wxCommandEvent
_ZN14wxRichTextCtrl6OnSizeER11wxSizeEvent
_ZN14wxRichTextCtrl6OnUndoER14wxCommandEvent
_ZN14wxRichTextCtrl6PageUpEii
_ZN14wxRichTextCtrl6PageUpEii.localalias
_ZN14wxRichTextCtrl6RemoveEll
_ZN14wxRichTextCtrl7CommandER14wxCommandEvent
_ZN14wxRichTextCtrl7CommandER14wxCommandEvent.cold
_ZN14wxRichTextCtrl7MoveEndEi
_ZN14wxRichTextCtrl7NewlineEv
_ZN14wxRichTextCtrl7OnClearER14wxCommandEvent
_ZN14wxRichTextCtrl7OnPaintER12wxPaintEvent
_ZN14wxRichTextCtrl7OnPaintER12wxPaintEvent.cold
_ZN14wxRichTextCtrl7OnPasteER14wxCommandEvent
_ZN14wxRichTextCtrl7OnTimerER12wxTimerEvent
_ZN14wxRichTextCtrl7RefreshEbPK6wxRect
_ZN14wxRichTextCtrl7RefreshEbPK6wxRect.localalias
_ZN14wxRichTextCtrl7ReplaceEllRK8wxString
_ZN14wxRichTextCtrl7ReplaceEllRK8wxString.cold
_ZN14wxRichTextCtrl7SetFontERK6wxFont
_ZN14wxRichTextCtrl7SetFontERK6wxFont.cold
_ZN14wxRichTextCtrl8AddImageERK7wxImage
_ZN14wxRichTextCtrl8EndStyleEv
_ZN14wxRichTextCtrl8GetStyleElR10wxTextAttr
_ZN14wxRichTextCtrl8GetStyleElR10wxTextAttr.cold
_ZN14wxRichTextCtrl8GetStyleElR14wxRichTextAttr
_ZN14wxRichTextCtrl8GetStyleElR14wxRichTextAttr.localalias
_ZN14wxRichTextCtrl8GetStyleElR14wxRichTextAttrP28wxRichTextParagraphLayoutBox
_ZN14wxRichTextCtrl8GetStyleElR14wxRichTextAttrP28wxRichTextParagraphLayoutBox.cold
_ZN14wxRichTextCtrl8MoveDownEii
_ZN14wxRichTextCtrl8MoveDownEii.cold
_ZN14wxRichTextCtrl8MoveHomeEi
_ZN14wxRichTextCtrl8MoveLeftEii
_ZN14wxRichTextCtrl8MoveLeftEii.localalias
_ZN14wxRichTextCtrl8OnLeftUpER12wxMouseEvent
_ZN14wxRichTextCtrl8OnLeftUpER12wxMouseEvent.cold
_ZN14wxRichTextCtrl8OnScrollER16wxScrollWinEvent
_ZN14wxRichTextCtrl8PageDownEii
_ZN14wxRichTextCtrl8SetScaleEdb
_ZN14wxRichTextCtrl8SetStyleEllRK10wxTextAttr
_ZN14wxRichTextCtrl8SetStyleEllRK10wxTextAttr.cold
_ZN14wxRichTextCtrl8SetStyleEllRK14wxRichTextAttr
_ZN14wxRichTextCtrl8SetStyleEP16wxRichTextObjectRK14wxRichTextAttri
_ZN14wxRichTextCtrl8SetStyleEP16wxRichTextObjectRK14wxRichTextAttri.localalias
_ZN14wxRichTextCtrl8SetStyleERK15wxRichTextRangeRK10wxTextAttr
_ZN14wxRichTextCtrl8SetStyleERK15wxRichTextRangeRK10wxTextAttr.cold
_ZN14wxRichTextCtrl8SetStyleERK15wxRichTextRangeRK14wxRichTextAttr
_ZN14wxRichTextCtrl8SetStyleERK15wxRichTextRangeRK14wxRichTextAttr.localalias
_ZN14wxRichTextCtrl8WordLeftEii
_ZN14wxRichTextCtrl9LineBreakEv
_ZN14wxRichTextCtrl9LineBreakEv.cold
_ZN14wxRichTextCtrl9MarkDirtyEv
_ZN14wxRichTextCtrl9MoveCaretElbP28wxRichTextParagraphLayoutBox
_ZN14wxRichTextCtrl9MoveRightEii
_ZN14wxRichTextCtrl9MoveRightEii.cold
_ZN14wxRichTextCtrl9PrepareDCER4wxDC
_ZN14wxRichTextCtrl9WordRightEii
_ZN14wxRichTextCtrl9WriteTextERK8wxString
_ZN14wxRichTextCtrlC1EP8wxWindowiRK8wxStringRK7wxPointRK6wxSizelRK11wxValidatorS4_
_ZN14wxRichTextCtrlC1Ev
_ZN14wxRichTextCtrlC2EP8wxWindowiRK8wxStringRK7wxPointRK6wxSizelRK11wxValidatorS4_
_ZN14wxRichTextCtrlC2EP8wxWindowiRK8wxStringRK7wxPointRK6wxSizelRK11wxValidatorS4_.cold
_ZN14wxRichTextCtrlC2Ev
_ZN14wxRichTextCtrlC2Ev.cold
_ZN14wxRichTextCtrlD0Ev
_ZN14wxRichTextCtrlD1Ev
_ZN14wxRichTextCtrlD2Ev
_ZN14wxRichTextLine11SetPositionERK7wxPoint
_ZN14wxRichTextLine4CopyERKS_
_ZN14wxRichTextLine4InitEP19wxRichTextParagraph
_ZN14wxRichTextLine7SetSizeERK6wxSize
_ZN14wxRichTextLineC1EP19wxRichTextParagraph
_ZN14wxRichTextLineC2EP19wxRichTextParagraph
_ZN14wxRichTextLineD0Ev
_ZN14wxRichTextLineD1Ev
_ZN14wxRichTextLineD2Ev
_ZN14wxRichTextLineD5Ev
_ZN14wxScreenDCImplC1EP10wxScreenDC
_ZN14wxScreenDCImplC2EP10wxScreenDC
_ZN14wxScreenDCImplC2EP10wxScreenDC.cold
_ZN14wxScreenDCImplD0Ev
_ZN14wxScreenDCImplD1Ev
_ZN14wxScreenDCImplD2Ev
_ZN14wxScreenDCImplD5Ev
_ZN14wxScrollHelper13SetScrollbarsEiiiiiib
_ZN14wxScrollHelper14DoScrollOneDirEiiiPi
_ZN14wxScrollHelper16AdjustScrollbarsEv
_ZN14wxScrollHelper16DoShowScrollbarsE21wxScrollbarVisibilityS0_
_ZN14wxScrollHelper17DoAdjustScrollbarEP9_GtkRangeiiiPiS2_S2_
_ZN14wxScrollHelper8DoScrollEii
_ZN14wxScrollHelper8DoScrollEii.localalias
_ZN14wxScrollHelperD0Ev
_ZN14wxScrollHelperD1Ev
_ZN14wxScrollHelperD2Ev
_ZN14wxScrollHelperD5Ev
_ZN14wxSocketClient12ms_classInfoE
_ZN14wxSocketClient13WaitOnConnectEll
_ZN14wxSocketClient7ConnectERK13wxSockAddressb
_ZN14wxSocketClient7ConnectERK13wxSockAddressS2_b
_ZN14wxSocketClient9DoConnectERK13wxSockAddressPS1_b
_ZN14wxSocketClient9DoConnectERK13wxSockAddressPS1_b.cold
_ZN14wxSocketClientC1Ei
_ZN14wxSocketClientC2Ei
_ZN14wxSocketClientC2Ei.cold
_ZN14wxSocketClientD0Ev
_ZN14wxSocketClientD1Ev
_ZN14wxSocketClientD2Ev
_ZN14wxSocketClientD5Ev
_ZN14wxSocketModule12ms_classInfoE
_ZN14wxSocketModule14wxCreateObjectEv
_ZN14wxSocketModule6OnExitEv
_ZN14wxSocketModule6OnInitEv
_ZN14wxSocketModuleD0Ev
_ZN14wxSocketModuleD1Ev
_ZN14wxSocketModuleD2Ev
_ZN14wxSocketModuleD5Ev
_ZN14wxSocketServer10AcceptWithER12wxSocketBaseb
_ZN14wxSocketServer12ms_classInfoE
_ZN14wxSocketServer13WaitForAcceptEll
_ZN14wxSocketServer6AcceptEb
_ZN14wxSocketServer6AcceptEb.cold
_ZN14wxSocketServerC1ERK13wxSockAddressi
_ZN14wxSocketServerC2ERK13wxSockAddressi
_ZN14wxSocketServerC2ERK13wxSockAddressi.cold
_ZN14wxSocketServerD0Ev
_ZN14wxSocketServerD1Ev
_ZN14wxSocketServerD2Ev
_ZN14wxSocketServerD5Ev
_ZN14wxSocketStreamC1ER12wxSocketBase
_ZN14wxSocketStreamC2ER12wxSocketBase
_ZN14wxSocketStreamC2ER12wxSocketBase.cold
_ZN14wxSocketStreamD0Ev
_ZN14wxSocketStreamD1Ev
_ZN14wxSocketStreamD2Ev
_ZN14wxSpinCtrlImpl11FormatAsHexEll
_ZN14wxSpinCtrlImpl11FormatAsHexEll.cold
_ZN14wxSpinCtrlImpl11GetBestSizeEPK9wxControliii
_ZN14wxSpinCtrlImpl11GetBestSizeEPK9wxControliii.cold
_ZN14wxSpinCtrlImpl15DetermineDigitsEd
_ZN14wxSpinCtrlImpl17GetMaxValueLengthEiii
_ZN14wxSpinCtrlImpl17GetMaxValueLengthEiii.cold
_ZN14wxSpinCtrlImpl25IsBaseCompatibleWithRangeEiii
_ZN14wxSplashScreen11FilterEventER7wxEvent
_ZN14wxSplashScreen12ms_classInfoE
_ZN14wxSplashScreen13OnCloseWindowER12wxCloseEvent
_ZN14wxSplashScreen13sm_eventTableE
_ZN14wxSplashScreen14wxCreateObjectEv
_ZN14wxSplashScreen14wxCreateObjectEv.cold
_ZN14wxSplashScreen17sm_eventHashTableE
_ZN14wxSplashScreen20sm_eventTableEntriesE
_ZN14wxSplashScreen4InitEv
_ZN14wxSplashScreen8OnNotifyER12wxTimerEvent
_ZN14wxSplashScreenC1ERK8wxBitmapliP8wxWindowiRK7wxPointRK6wxSizel
_ZN14wxSplashScreenC2ERK8wxBitmapliP8wxWindowiRK7wxPointRK6wxSizel
_ZN14wxSplashScreenC2ERK8wxBitmapliP8wxWindowiRK7wxPointRK6wxSizel.cold
_ZN14wxSplashScreenD0Ev
_ZN14wxSplashScreenD1Ev
_ZN14wxSplashScreenD2Ev
_ZN14wxStaticBitmap12ms_classInfoE
_ZN14wxStaticBitmap14wxCreateObjectEv
_ZN14wxStaticBitmap14wxCreateObjectEv.cold
_ZN14wxStaticBitmap25GetClassDefaultAttributesE15wxWindowVariant
_ZN14wxStaticBitmap6CreateEP8wxWindowiRK14wxBitmapBundleRK7wxPointRK6wxSizelRK8wxString
_ZN14wxStaticBitmap9SetBitmapERK14wxBitmapBundle
_ZN14wxStaticBitmapC1EP8wxWindowiRK14wxBitmapBundleRK7wxPointRK6wxSizelRK8wxString
_ZN14wxStaticBitmapC1Ev
_ZN14wxStaticBitmapC2EP8wxWindowiRK14wxBitmapBundleRK7wxPointRK6wxSizelRK8wxString
_ZN14wxStaticBitmapC2EP8wxWindowiRK14wxBitmapBundleRK7wxPointRK6wxSizelRK8wxString.cold
_ZN14wxStaticBitmapC2Ev
_ZN14wxStaticBitmapC2Ev.cold
_ZN14wxStaticBitmapD0Ev
_ZN14wxStaticBitmapD1Ev
_ZN14wxStaticBitmapD2Ev
_ZN14wxStaticBitmapD5Ev
_ZN14wxSTCPopupBaseC1EP8wxWindow
_ZN14wxSTCPopupBaseC2EP8wxWindow
_ZN14wxSTCPopupBaseC2EP8wxWindow.cold
_ZN14wxSTCPopupBaseD0Ev
_ZN14wxSTCPopupBaseD1Ev
_ZN14wxSTCPopupBaseD2Ev
_ZN14wxStreamBuffer10FillBufferEv
_ZN14wxStreamBuffer10FreeBufferEv
_ZN14wxStreamBuffer10InitBufferEv
_ZN14wxStreamBuffer11FlushBufferEv
_ZN14wxStreamBuffer11GetDataLeftEv
_ZN14wxStreamBuffer11PutToBufferEPKvm
_ZN14wxStreamBuffer11ResetBufferEv
_ZN14wxStreamBuffer11SetBufferIOEm
_ZN14wxStreamBuffer11SetBufferIOEPvmb
_ZN14wxStreamBuffer11SetBufferIOEPvS0_b
_ZN14wxStreamBuffer13GetFromBufferEPvm
_ZN14wxStreamBuffer14InitWithStreamER12wxStreamBaseNS_7BufModeE
_ZN14wxStreamBuffer4InitEv
_ZN14wxStreamBuffer4PeekEv
_ZN14wxStreamBuffer4ReadEPS_
_ZN14wxStreamBuffer4ReadEPvm
_ZN14wxStreamBuffer4SeekEl10wxSeekMode
_ZN14wxStreamBuffer5WriteEPKvm
_ZN14wxStreamBuffer5WriteEPS_
_ZN14wxStreamBuffer7GetCharEv
_ZN14wxStreamBuffer7PutCharEc
_ZN14wxStreamBuffer8SetErrorE13wxStreamError
_ZN14wxStreamBuffer8TruncateEv
_ZN14wxStreamBufferC1ENS_7BufModeE
_ZN14wxStreamBufferC1ERKS_
_ZN14wxStreamBufferC2ENS_7BufModeE
_ZN14wxStreamBufferC2ERKS_
_ZN14wxStreamBufferD0Ev
_ZN14wxStreamBufferD0Ev.localalias
_ZN14wxStreamBufferD1Ev
_ZN14wxStreamBufferD2Ev
_ZN14wxTextAreaBase10DoLoadFileERK8wxStringi
_ZN14wxTextAreaBase10DoLoadFileERK8wxStringi.cold
_ZN14wxTextAreaBase10DoSaveFileERK8wxStringi
_ZN14wxTextAreaBase10DoSaveFileERK8wxStringi.cold
_ZN14wxTextAreaBase15EmptyUndoBufferEv
_ZN14wxTextAreaBase8SaveFileERK8wxStringi
_ZN14wxTextAreaBase8SaveFileERK8wxStringi.cold
_ZN14wxTextAreaBaseD0Ev
_ZN14wxTextAreaBaseD1Ev
_ZN14wxTextAreaBaseD2Ev
_ZN14wxTextAreaBaseD5Ev
_ZN14wxTextAttrSize11RemoveStyleERKS_
_ZN14wxTextAttrSize23CollectCommonAttributesERKS_RS_S2_
_ZN14wxTextAttrSize5ApplyERKS_PS0_
_ZN14wxTextCtrlBase12ms_classInfoE
_ZN14wxTextCtrlBase13OnDynamicBindER24wxDynamicEventTableEntry
_ZN14wxTextCtrlBase15EmulateKeyPressERK10wxKeyEvent
_ZN14wxTextCtrlBase15EmulateKeyPressERK10wxKeyEvent.cold
_ZN14wxTextCtrlBase15SetDefaultStyleERK10wxTextAttr
_ZN14wxTextCtrlBase15SetDefaultStyleERK10wxTextAttr.cold
_ZN14wxTextCtrlBase16DoUpdateWindowUIER15wxUpdateUIEvent
_ZN14wxTextCtrlBase16DoUpdateWindowUIER15wxUpdateUIEvent.cold
_ZN14wxTextCtrlBase17GetEditableWindowEv
_ZN14wxTextCtrlBase8GetStyleElR10wxTextAttr
_ZN14wxTextCtrlBase8overflowEi
_ZN14wxTextCtrlBase8overflowEi.cold
_ZN14wxTextCtrlBase8SetStyleEllRK10wxTextAttr
_ZN14wxTextCtrlBase8SetValueERK8wxString
_ZN14wxTextCtrlBaseC1Ev
_ZN14wxTextCtrlBaseC2Ev
_ZN14wxTextCtrlBaseC5Ev
_ZN14wxTextCtrlBaseD0Ev
_ZN14wxTextCtrlBaseD1Ev
_ZN14wxTextCtrlBaseD2Ev
_ZN14wxTextCtrlBaseD5Ev
_ZN14wxTextCtrlBaselsEd
_ZN14wxTextCtrlBaselsEd.cold
_ZN14wxTextCtrlBaselsEi
_ZN14wxTextCtrlBaselsEi.cold
_ZN14wxTextCtrlBaselsEl
_ZN14wxTextCtrlBaselsEl.cold
_ZN14wxTextCtrlBaselsERK8wxString
_ZN14wxTextUrlEvent12ms_classInfoE
_ZN14wxTextUrlEvent14wxCreateObjectEv
_ZN14wxTextUrlEvent14wxCreateObjectEv.cold
_ZN14wxTextUrlEventD0Ev
_ZN14wxTextUrlEventD1Ev
_ZN14wxTextUrlEventD2Ev
_ZN14wxTextUrlEventD5Ev
_ZN14wxThreadModule12ms_classInfoE
_ZN14wxThreadModule14wxCreateObjectEv
_ZN14wxThreadModule6OnExitEv
_ZN14wxThreadModule6OnExitEv.cold
_ZN14wxThreadModule6OnInitEv
_ZN14wxThreadModule6OnInitEv.cold
_ZN14wxThreadModuleD0Ev
_ZN14wxThreadModuleD1Ev
_ZN14wxThreadModuleD2Ev
_ZN14wxThreadModuleD5Ev
_ZN14wxToggleButton12ms_classInfoE
_ZN14wxToggleButton14wxCreateObjectEv
_ZN14wxToggleButton14wxCreateObjectEv.cold
_ZN14wxToggleButton15GTKEnableEventsEv
_ZN14wxToggleButton16DoSetLabelMarkupERK8wxString
_ZN14wxToggleButton16DoSetLabelMarkupERK8wxString.cold
_ZN14wxToggleButton16GTKDisableEventsEv
_ZN14wxToggleButton18DoApplyWidgetStyleEP11_GtkRcStyle
_ZN14wxToggleButton18DoApplyWidgetStyleEP11_GtkRcStyle.cold
_ZN14wxToggleButton25GetClassDefaultAttributesE15wxWindowVariant
_ZN14wxToggleButton6CreateEP8wxWindowiRK8wxStringRK7wxPointRK6wxSizelRK11wxValidatorS4_
_ZN14wxToggleButton8SetLabelERK8wxString
_ZN14wxToggleButton8SetLabelERK8wxString.cold
_ZN14wxToggleButton8SetValueEb
_ZN14wxToggleButton8SetValueEb.cold
_ZN14wxToggleButtonD0Ev
_ZN14wxToggleButtonD1Ev
_ZN14wxToggleButtonD2Ev
_ZN14wxToggleButtonD5Ev
_ZN14wxTranslations10AddCatalogERK8wxString10wxLanguage
_ZN14wxTranslations10AddCatalogERK8wxString10wxLanguage.cold
_ZN14wxTranslations11LoadCatalogERK8wxStringS2_S2_
_ZN14wxTranslations11LoadCatalogERK8wxStringS2_S2_.cold
_ZN14wxTranslations11SetLanguageE10wxLanguage
_ZN14wxTranslations11SetLanguageE10wxLanguage.cold
_ZN14wxTranslations11SetLanguageERK8wxString
_ZN14wxTranslations11SetNonOwnedEPS_
_ZN14wxTranslations13AddStdCatalogEv
_ZN14wxTranslations13AddStdCatalogEv.cold
_ZN14wxTranslations15wxMsgCatalogMapixERK8wxString
_ZN14wxTranslations18GetBestTranslationERK8wxString10wxLanguage
_ZN14wxTranslations18GetBestTranslationERK8wxString10wxLanguage.cold
_ZN14wxTranslations18GetBestTranslationERK8wxStringS2_
_ZN14wxTranslations18GetBestTranslationERK8wxStringS2_.cold
_ZN14wxTranslations21GetUntranslatedStringERK8wxString
_ZN14wxTranslations21GetUntranslatedStringERK8wxString.cold
_ZN14wxTranslations3GetEv
_ZN14wxTranslations3SetEPS_
_ZN14wxTranslations42wxMsgCatalogMap_wxImplementation_HashTable10DeleteNodeEP21_wxHashTable_NodeBase
_ZN14wxTranslations42wxMsgCatalogMap_wxImplementation_HashTable16GetBucketForNodeEPS0_PNS0_4NodeE
_ZN14wxTranslations9SetLoaderEP20wxTranslationsLoader
_ZN14wxTranslationsC1Ev
_ZN14wxTranslationsC2Ev
_ZN14wxTranslationsC2Ev.cold
_ZN14wxTranslationsD1Ev
_ZN14wxTranslationsD2Ev
_ZN14wxTreeCtrlBase10OnCharHookER10wxKeyEvent
_ZN14wxTreeCtrlBase11CollapseAllEv
_ZN14wxTreeCtrlBase12SetItemStateERK12wxTreeItemIdi
_ZN14wxTreeCtrlBase14OnCompareItemsERK12wxTreeItemIdS2_
_ZN14wxTreeCtrlBase17ExpandAllChildrenERK12wxTreeItemId
_ZN14wxTreeCtrlBase17ExpandAllChildrenERK12wxTreeItemId.localalias
_ZN14wxTreeCtrlBase19CollapseAllChildrenERK12wxTreeItemId
_ZN14wxTreeCtrlBase19CollapseAllChildrenERK12wxTreeItemId.localalias
_ZN14wxTreeCtrlBase19EnableBellOnNoMatchEb
_ZN14wxTreeCtrlBase9ExpandAllEv
_ZN14wxTreeCtrlBaseC1Ev
_ZN14wxTreeCtrlBaseC2Ev
_ZN14wxTreeCtrlBaseC2Ev.cold
_ZN14wxTreeCtrlBaseD0Ev
_ZN14wxTreeCtrlBaseD1Ev
_ZN14wxTreeCtrlBaseD2Ev
_ZN14wxTreeListCtrl10DeleteItemE14wxTreeListItem
_ZN14wxTreeListCtrl11SetItemDataE14wxTreeListItemP12wxClientData
_ZN14wxTreeListCtrl11SetItemTextE14wxTreeListItemjRK8wxString
_ZN14wxTreeListCtrl11UnselectAllEv
_ZN14wxTreeListCtrl12ClearColumnsEv
_ZN14wxTreeListCtrl12DeleteColumnEj
_ZN14wxTreeListCtrl12DoInsertItemE14wxTreeListItemS0_RK8wxStringiiP12wxClientData
_ZN14wxTreeListCtrl12SetItemImageE14wxTreeListItemii
_ZN14wxTreeListCtrl13EnsureVisibleE14wxTreeListItem
_ZN14wxTreeListCtrl13GetSortColumnEPjPb
_ZN14wxTreeListCtrl13OnItemToggledE14wxTreeListItem15wxCheckBoxState
_ZN14wxTreeListCtrl13OnItemToggledE14wxTreeListItem15wxCheckBoxState.cold
_ZN14wxTreeListCtrl13SendItemEventEiR15wxDataViewEvent
_ZN14wxTreeListCtrl13SendItemEventEiR15wxDataViewEvent.cold
_ZN14wxTreeListCtrl13SetSortColumnEjb
_ZN14wxTreeListCtrl13sm_eventTableE
_ZN14wxTreeListCtrl14DeleteAllItemsEv
_ZN14wxTreeListCtrl14DoInsertColumnERK8wxStringii11wxAlignmenti
_ZN14wxTreeListCtrl14DoInsertColumnERK8wxStringii11wxAlignmenti.cold
_ZN14wxTreeListCtrl14OnColumnSortedER15wxDataViewEvent
_ZN14wxTreeListCtrl14OnItemExpandedER15wxDataViewEvent
_ZN14wxTreeListCtrl14SetColumnWidthEji
_ZN14wxTreeListCtrl15OnItemActivatedER15wxDataViewEvent
_ZN14wxTreeListCtrl15OnItemExpandingER15wxDataViewEvent
_ZN14wxTreeListCtrl15SendColumnEventEiR15wxDataViewEvent
_ZN14wxTreeListCtrl15SendColumnEventEiR15wxDataViewEvent.cold
_ZN14wxTreeListCtrl17OnItemContextMenuER15wxDataViewEvent
_ZN14wxTreeListCtrl17SetItemComparatorEP24wxTreeListItemComparator
_ZN14wxTreeListCtrl17sm_eventHashTableE
_ZN14wxTreeListCtrl18OnSelectionChangedER15wxDataViewEvent
_ZN14wxTreeListCtrl20CheckItemRecursivelyE14wxTreeListItem15wxCheckBoxState
_ZN14wxTreeListCtrl20CheckItemRecursivelyE14wxTreeListItem15wxCheckBoxState.localalias
_ZN14wxTreeListCtrl20sm_eventTableEntriesE
_ZN14wxTreeListCtrl32UpdateItemParentStateRecursivelyE14wxTreeListItem
_ZN14wxTreeListCtrl4InitEv
_ZN14wxTreeListCtrl6CreateEP8wxWindowiRK7wxPointRK6wxSizelRK8wxString
_ZN14wxTreeListCtrl6CreateEP8wxWindowiRK7wxPointRK6wxSizelRK8wxString.cold
_ZN14wxTreeListCtrl6ExpandE14wxTreeListItem
_ZN14wxTreeListCtrl6OnSizeER11wxSizeEvent
_ZN14wxTreeListCtrl6SelectE14wxTreeListItem
_ZN14wxTreeListCtrl8CollapseE14wxTreeListItem
_ZN14wxTreeListCtrl8UnselectE14wxTreeListItem
_ZN14wxTreeListCtrl9CheckItemE14wxTreeListItem15wxCheckBoxState
_ZN14wxTreeListCtrl9SelectAllEv
_ZN14wxTreeListCtrlD0Ev
_ZN14wxTreeListCtrlD1Ev
_ZN14wxTreeListCtrlD2Ev
_ZN14wxTreeTextCtrl11OnKillFocusER12wxFocusEvent
_ZN14wxTreeTextCtrl13AcceptChangesEv
_ZN14wxTreeTextCtrl13AcceptChangesEv.cold
_ZN14wxTreeTextCtrl13sm_eventTableE
_ZN14wxTreeTextCtrl17sm_eventHashTableE
_ZN14wxTreeTextCtrl19IncreaseSizeForTextERK8wxString
_ZN14wxTreeTextCtrl20sm_eventTableEntriesE
_ZN14wxTreeTextCtrl6FinishEb
_ZN14wxTreeTextCtrl6OnCharER10wxKeyEvent
_ZN14wxTreeTextCtrl6OnCharER10wxKeyEvent.cold
_ZN14wxTreeTextCtrl7EndEditEb
_ZN14wxTreeTextCtrl7OnKeyUpER10wxKeyEvent
_ZN14wxTreeTextCtrlC1EP17wxGenericTreeCtrlP17wxGenericTreeItem
_ZN14wxTreeTextCtrlC2EP17wxGenericTreeCtrlP17wxGenericTreeItem
_ZN14wxTreeTextCtrlC2EP17wxGenericTreeCtrlP17wxGenericTreeItem.cold
_ZN14wxTreeTextCtrlD0Ev
_ZN14wxTreeTextCtrlD1Ev
_ZN14wxTreeTextCtrlD2Ev
_ZN14wxTreeTextCtrlD5Ev
_ZN14wxUILocaleImpl10CreateStdCEv
_ZN14wxUILocaleImpl10CreateStdCEv.cold
_ZN14wxUILocaleImpl15CreateForLocaleERK13wxLocaleIdent
_ZN14wxUILocaleImpl15CreateForLocaleERK13wxLocaleIdent.cold
_ZN14wxUILocaleImpl17CreateForLanguageERK14wxLanguageInfo
_ZN14wxUILocaleImpl17CreateForLanguageERK14wxLanguageInfo.cold
_ZN14wxUILocaleImpl17CreateUserDefaultEv
_ZN14wxUILocaleImpl17CreateUserDefaultEv.cold
_ZN14wxUILocaleImpl23GetPreferredUILanguagesEv
_ZN14wxUILocaleImpl23GetPreferredUILanguagesEv.cold
_ZN14wxUIntProperty12DoValidationEPK17wxNumericPropertyR17wxULongLongNativeP18wxPGValidationInfoi
_ZN14wxUIntProperty12DoValidationEPK17wxNumericPropertyRlP18wxPGValidationInfoi
_ZN14wxUIntProperty12DoValidationEPK17wxNumericPropertyRyP18wxPGValidationInfoi
_ZN14wxUIntProperty12ms_classInfoE
_ZN14wxUIntProperty14DoSetAttributeERK8wxStringR9wxVariant
_ZN14wxUIntProperty14wxCreateObjectEv
_ZN14wxUIntProperty14wxCreateObjectEv.cold
_ZN14wxUIntProperty4InitEv
_ZN14wxUIntPropertyC1ERK8wxStringS2_m
_ZN14wxUIntPropertyC1ERK8wxStringS2_RK17wxULongLongNative
_ZN14wxUIntPropertyC2ERK8wxStringS2_m
_ZN14wxUIntPropertyC2ERK8wxStringS2_m.cold
_ZN14wxUIntPropertyC2ERK8wxStringS2_RK17wxULongLongNative
_ZN14wxUIntPropertyC2ERK8wxStringS2_RK17wxULongLongNative.cold
_ZN14wxUIntPropertyD0Ev
_ZN14wxUIntPropertyD1Ev
_ZN14wxUIntPropertyD2Ev
_ZN14wxWakeUpPipeMT13OnReadWaitingEv
_ZN14wxWakeUpPipeMTD0Ev
_ZN14wxWakeUpPipeMTD1Ev
_ZN14wxWakeUpPipeMTD2Ev
_ZN14wxWakeUpPipeMTD5Ev
_ZN14wxWindowDCImplC1EP10wxWindowDCP8wxWindow
_ZN14wxWindowDCImplC2EP10wxWindowDCP8wxWindow
_ZN14wxWindowDCImplC2EP10wxWindowDCP8wxWindow.cold
_ZN14wxWindowDCImplD0Ev
_ZN14wxWindowDCImplD1Ev
_ZN14wxWindowDCImplD2Ev
_ZN14wxWindowDCImplD5Ev
_ZN14wxXmlAttributeD0Ev
_ZN14wxXmlAttributeD1Ev
_ZN14wxXmlAttributeD2Ev
_ZN14wxXmlAttributeD5Ev
_ZN14wxXPMColourMapixERK8wxString
_ZN14wxZipEntryPtr_5resetEP10wxZipEntry
_ZN14wxZipEntryPtr_D1Ev
_ZN14wxZipEntryPtr_D2Ev
_ZN14wxZipWeakLinks8AddEntryEP10wxZipEntryl
_ZN14XmlStackWalker12OnStackFrameERK12wxStackFrame
_ZN14XmlStackWalker12OnStackFrameERK12wxStackFrame.cold
_ZN14XmlStackWalkerD0Ev
_ZN14XmlStackWalkerD1Ev
_ZN14XmlStackWalkerD2Ev
_ZN14XmlStackWalkerD5Ev
_ZN15wxActivateEvent12ms_classInfoE
_ZN15wxActivateEvent14wxCreateObjectEv
_ZN15wxActivateEvent14wxCreateObjectEv.cold
_ZN15wxActivateEventD0Ev
_ZN15wxActivateEventD1Ev
_ZN15wxActivateEventD2Ev
_ZN15wxActivateEventD5Ev
_ZN15wxAddRemoveCtrl10SetAdaptorEP18wxAddRemoveAdaptor
_ZN15wxAddRemoveCtrl10SetAdaptorEP18wxAddRemoveAdaptor.cold
_ZN15wxAddRemoveCtrl18SetButtonsToolTipsERK8wxStringS2_
_ZN15wxAddRemoveCtrl6CreateEP8wxWindowiRK7wxPointRK6wxSizelRK8wxString
_ZN15wxAddRemoveCtrlD0Ev
_ZN15wxAddRemoveCtrlD1Ev
_ZN15wxAddRemoveCtrlD2Ev
_ZN15wxAddRemoveImpl14GetNamedBitmapERK8wxString
_ZN15wxAddRemoveImpl18SetButtonsToolTipsERK8wxStringS2_
_ZN15wxAddRemoveImplC1EP18wxAddRemoveAdaptorP15wxAddRemoveCtrlP8wxWindow
_ZN15wxAddRemoveImplC2EP18wxAddRemoveAdaptorP15wxAddRemoveCtrlP8wxWindow
_ZN15wxAddRemoveImplC5EP18wxAddRemoveAdaptorP15wxAddRemoveCtrlP8wxWindow
_ZN15wxAddRemoveImplD0Ev
_ZN15wxAddRemoveImplD1Ev
_ZN15wxAddRemoveImplD2Ev
_ZN15wxAddRemoveImplD5Ev
_ZN15wxAnimationCtrl12ms_classInfoE
_ZN15wxAnimationCtrl12SetAnimationERK11wxAnimation
_ZN15wxAnimationCtrl13sm_eventTableE
_ZN15wxAnimationCtrl14FitToAnimationEv
_ZN15wxAnimationCtrl14wxCreateObjectEv
_ZN15wxAnimationCtrl14wxCreateObjectEv.cold
_ZN15wxAnimationCtrl17sm_eventHashTableE
_ZN15wxAnimationCtrl18DisplayStaticImageEv
_ZN15wxAnimationCtrl19SetBackgroundColourERK8wxColour
_ZN15wxAnimationCtrl20sm_eventTableEntriesE
_ZN15wxAnimationCtrl22AnimationImplSetPixbufEP19_GdkPixbufAnimation
_ZN15wxAnimationCtrl23ClearToBackgroundColourEv
_ZN15wxAnimationCtrl23ClearToBackgroundColourEv.cold
_ZN15wxAnimationCtrl25CreateCompatibleAnimationEv
_ZN15wxAnimationCtrl4InitEv
_ZN15wxAnimationCtrl4LoadER13wxInputStream15wxAnimationType
_ZN15wxAnimationCtrl4LoadER13wxInputStream15wxAnimationType.cold
_ZN15wxAnimationCtrl4PlayEv
_ZN15wxAnimationCtrl4StopEv
_ZN15wxAnimationCtrl6CreateEP8wxWindowiRK11wxAnimationRK7wxPointRK6wxSizelRK8wxString
_ZN15wxAnimationCtrl7OnTimerER12wxTimerEvent
_ZN15wxAnimationCtrl8LoadFileERK8wxString15wxAnimationType
_ZN15wxAnimationCtrl8LoadFileERK8wxString15wxAnimationType.cold
_ZN15wxAnimationCtrl9ResetAnimEv
_ZN15wxAnimationCtrl9ResetIterEv
_ZN15wxAnimationCtrlD0Ev
_ZN15wxAnimationCtrlD1Ev
_ZN15wxAnimationCtrlD2Ev
_ZN15wxAnimationImpl13CreateDefaultEv
_ZN15wxAnyButtonBase14SetBitmapFocusERK14wxBitmapBundle
_ZN15wxAnyButtonBase15DoSetAuthNeededEb
_ZN15wxAnyButtonBase16SetBitmapCurrentERK14wxBitmapBundle
_ZN15wxAnyButtonBase16SetBitmapPressedERK14wxBitmapBundle
_ZN15wxAnyButtonBase17SetBitmapDisabledERK14wxBitmapBundle
_ZN15wxAnyButtonBase17SetBitmapPositionE11wxDirection
_ZN15wxAnyButtonBase18DoSetBitmapMarginsEii
_ZN15wxAppTraitsBase10ms_managerE
_ZN15wxAppTraitsBase12CreateConfigEv
_ZN15wxAppTraitsBase12CreateConfigEv.cold
_ZN15wxAppTraitsBase13MutexGuiEnterEv
_ZN15wxAppTraitsBase13MutexGuiEnterEv.localalias
_ZN15wxAppTraitsBase13MutexGuiLeaveEv
_ZN15wxAppTraitsBase13MutexGuiLeaveEv.localalias
_ZN15wxAppTraitsBase16GetSocketManagerEv
_ZN15wxAppTraitsBase16GetStandardPathsEv
_ZN15wxAppTraitsBase16GetStandardPathsEv.localalias
_ZN15wxAppTraitsBase16ShowAssertDialogERK8wxString
_ZN15wxAppTraitsBase16ShowAssertDialogERK8wxString.cold
_ZN15wxAppTraitsBase19GetAssertStackTraceEv
_ZN15wxAppTraitsBase19GetAssertStackTraceEv.cold
_ZN15wxAppTraitsBase20WXReservedAppTraits1EPv
_ZN15wxAppTraitsBase20WXReservedAppTraits2EPv
_ZN15wxArgNormalizerIdEC1EdPK14wxFormatStringj
_ZN15wxArgNormalizerIdEC2EdPK14wxFormatStringj
_ZN15wxArgNormalizerIdEC5EdPK14wxFormatStringj
_ZN15wxArgNormalizerIiEC1EiPK14wxFormatStringj
_ZN15wxArgNormalizerIiEC2EiPK14wxFormatStringj
_ZN15wxArgNormalizerIiEC5EiPK14wxFormatStringj
_ZN15wxAuiXmlHandler12ms_classInfoE
_ZN15wxAuiXmlHandler14wxCreateObjectEv
_ZN15wxAuiXmlHandler14wxCreateObjectEv.cold
_ZN15wxAuiXmlHandler16DoCreateResourceEv
_ZN15wxAuiXmlHandler16DoCreateResourceEv.cold
_ZN15wxAuiXmlHandler20OnManagedWindowCloseER20wxWindowDestroyEvent
_ZN15wxAuiXmlHandler9CanHandleEP9wxXmlNode
_ZN15wxAuiXmlHandler9CanHandleEP9wxXmlNode.cold
_ZN15wxAuiXmlHandlerC1Ev
_ZN15wxAuiXmlHandlerC2Ev
_ZN15wxAuiXmlHandlerC2Ev.cold
_ZN15wxAuiXmlHandlerD0Ev
_ZN15wxAuiXmlHandlerD1Ev
_ZN15wxAuiXmlHandlerD2Ev
_ZN15wxAuiXmlHandlerD5Ev
_ZN15wxBitmapHandler12ms_classInfoE
_ZN15wxBitmapHandler6CreateEP8wxBitmapPKv12wxBitmapTypeiii
_ZN15wxBitmapHandler8LoadFileEP8wxBitmapRK8wxString12wxBitmapTypeii
_ZN15wxBitmapHandlerD0Ev
_ZN15wxBitmapHandlerD1Ev
_ZN15wxBitmapHandlerD2Ev
_ZN15wxBitmapHandlerD5Ev
_ZN15wxBitmapHelpers14NewFromPNGDataEPKvm
_ZN15wxBitmapHelpers14NewFromPNGDataEPKvm.cold
_ZN15wxBitmapHelpers7RescaleER8wxBitmapRK6wxSize
_ZN15wxBitmapHelpers7RescaleER8wxBitmapRK6wxSize.cold
_ZN15wxBitmapRefDataC1Eiii
_ZN15wxBitmapRefDataC2Eiii
_ZN15wxBitmapRefDataD0Ev
_ZN15wxBitmapRefDataD1Ev
_ZN15wxBitmapRefDataD2Ev
_ZN15wxBookCtrlEvent12ms_classInfoE
_ZN15wxBookCtrlEvent14wxCreateObjectEv
_ZN15wxBookCtrlEvent14wxCreateObjectEv.cold
_ZN15wxBookCtrlEventD0Ev
_ZN15wxBookCtrlEventD1Ev
_ZN15wxBookCtrlEventD2Ev
_ZN15wxBookCtrlEventD5Ev
_ZN15wxBusyInfoFlagsD1Ev
_ZN15wxBusyInfoFlagsD2Ev
_ZN15wxBusyInfoFlagsD5Ev
_ZN15wxCairoFontData10InitColourERK8wxColour
_ZN15wxCairoFontData18InitFontComponentsERK8wxString17_cairo_font_slant18_cairo_font_weight
_ZN15wxCairoFontData18InitFontComponentsERK8wxString17_cairo_font_slant18_cairo_font_weight.cold
_ZN15wxCairoFontData5ApplyEP17wxGraphicsContext
_ZN15wxCairoFontDataC1EP18wxGraphicsRendererdRK8wxStringiRK8wxColour
_ZN15wxCairoFontDataC1EP18wxGraphicsRendererRK6wxFontRK11wxRealPointRK8wxColour
_ZN15wxCairoFontDataC2EP18wxGraphicsRendererdRK8wxStringiRK8wxColour
_ZN15wxCairoFontDataC2EP18wxGraphicsRendererdRK8wxStringiRK8wxColour.cold
_ZN15wxCairoFontDataC2EP18wxGraphicsRendererRK6wxFontRK11wxRealPointRK8wxColour
_ZN15wxCairoFontDataC2EP18wxGraphicsRendererRK6wxFontRK11wxRealPointRK8wxColour.cold
_ZN15wxCairoFontDataD0Ev
_ZN15wxCairoFontDataD1Ev
_ZN15wxCairoFontDataD2Ev
_ZN15wxCairoPathData10AddEllipseEdddd
_ZN15wxCairoPathData11MoveToPointEdd
_ZN15wxCairoPathData12AddRectangleEdddd
_ZN15wxCairoPathData12CloseSubpathEv
_ZN15wxCairoPathData14AddLineToPointEdd
_ZN15wxCairoPathData15AddCurveToPointEdddddd
_ZN15wxCairoPathData6AddArcEdddddb
_ZN15wxCairoPathData7AddPathEPK18wxGraphicsPathData
_ZN15wxCairoPathData9AddCircleEddd
_ZN15wxCairoPathData9TransformEPK20wxGraphicsMatrixData
_ZN15wxCairoPathDataC1EP18wxGraphicsRendererP6_cairo
_ZN15wxCairoPathDataC2EP18wxGraphicsRendererP6_cairo
_ZN15wxCairoPathDataD0Ev
_ZN15wxCairoPathDataD1Ev
_ZN15wxCairoPathDataD2Ev
_ZN15wxCairoRenderer10CreateFontEdRK8wxStringiRK8wxColour
_ZN15wxCairoRenderer10CreateFontEdRK8wxStringiRK8wxColour.cold
_ZN15wxCairoRenderer10CreateFontERK6wxFontRK8wxColour
_ZN15wxCairoRenderer10CreatePathEv
_ZN15wxCairoRenderer10CreatePathEv.cold
_ZN15wxCairoRenderer11CreateBrushERK7wxBrush
_ZN15wxCairoRenderer11CreateBrushERK7wxBrush.cold
_ZN15wxCairoRenderer12CreateBitmapERK8wxBitmap
_ZN15wxCairoRenderer12CreateBitmapERK8wxBitmap.cold
_ZN15wxCairoRenderer12CreateMatrixEdddddd
_ZN15wxCairoRenderer12CreateMatrixEdddddd.cold
_ZN15wxCairoRenderer12ms_classInfoE
_ZN15wxCairoRenderer13CreateContextEP8wxWindow
_ZN15wxCairoRenderer13CreateContextEP8wxWindow.cold
_ZN15wxCairoRenderer13CreateContextERK10wxMemoryDC
_ZN15wxCairoRenderer13CreateContextERK10wxMemoryDC.cold
_ZN15wxCairoRenderer13CreateContextERK10wxWindowDC
_ZN15wxCairoRenderer13CreateContextERK10wxWindowDC.cold
_ZN15wxCairoRenderer13CreateContextERK11wxPrinterDC
_ZN15wxCairoRenderer13CreateContextERK11wxPrinterDC.cold
_ZN15wxCairoRenderer14wxCreateObjectEv
_ZN15wxCairoRenderer15CreateFontAtDPIERK6wxFontRK11wxRealPointRK8wxColour
_ZN15wxCairoRenderer15CreateFontAtDPIERK6wxFontRK11wxRealPointRK8wxColour.cold
_ZN15wxCairoRenderer15CreateSubBitmapERK16wxGraphicsBitmapdddd
_ZN15wxCairoRenderer15CreateSubBitmapERK16wxGraphicsBitmapdddd.cold
_ZN15wxCairoRenderer21CreateBitmapFromImageERK7wxImage
_ZN15wxCairoRenderer21CreateBitmapFromImageERK7wxImage.cold
_ZN15wxCairoRenderer21CreateImageFromBitmapERK16wxGraphicsBitmap
_ZN15wxCairoRenderer21CreateImageFromBitmapERK16wxGraphicsBitmap.cold
_ZN15wxCairoRenderer22CreateContextFromImageER7wxImage
_ZN15wxCairoRenderer22CreateContextFromImageER7wxImage.cold
_ZN15wxCairoRenderer22CreateMeasuringContextEv
_ZN15wxCairoRenderer22CreateMeasuringContextEv.cold
_ZN15wxCairoRenderer25CreateLinearGradientBrushEddddRK23wxGraphicsGradientStopsRK16wxGraphicsMatrix
_ZN15wxCairoRenderer25CreateLinearGradientBrushEddddRK23wxGraphicsGradientStopsRK16wxGraphicsMatrix.cold
_ZN15wxCairoRenderer25CreateRadialGradientBrushEdddddRK23wxGraphicsGradientStopsRK16wxGraphicsMatrix
_ZN15wxCairoRenderer25CreateRadialGradientBrushEdddddRK23wxGraphicsGradientStopsRK16wxGraphicsMatrix.cold
_ZN15wxCairoRenderer28CreateBitmapFromNativeBitmapEPv
_ZN15wxCairoRenderer28CreateBitmapFromNativeBitmapEPv.cold
_ZN15wxCairoRenderer29CreateContextFromNativeWindowEPv
_ZN15wxCairoRenderer29CreateContextFromNativeWindowEPv.cold
_ZN15wxCairoRenderer29CreateContextFromNativeWindowEPv.localalias
_ZN15wxCairoRenderer30CreateContextFromNativeContextEPv
_ZN15wxCairoRenderer30CreateContextFromNativeContextEPv.cold
_ZN15wxCairoRenderer9CreatePenERK17wxGraphicsPenInfo
_ZN15wxCairoRenderer9CreatePenERK17wxGraphicsPenInfo.cold
_ZN15wxCairoRendererD0Ev
_ZN15wxCairoRendererD1Ev
_ZN15wxCairoRendererD2Ev
_ZN15wxCairoRendererD5Ev
_ZN15wxCalendarEvent12ms_classInfoE
_ZN15wxCalendarEvent14wxCreateObjectEv
_ZN15wxCalendarEvent14wxCreateObjectEv.cold
_ZN15wxCalendarEventD0Ev
_ZN15wxCalendarEventD1Ev
_ZN15wxCalendarEventD2Ev
_ZN15wxCalendarEventD5Ev
_ZN15wxClipboardBase16IsSupportedAsyncEP12wxEvtHandler
_ZN15wxClipboardBase16IsSupportedAsyncEP12wxEvtHandler.cold
_ZN15wxClipboardBase19UsePrimarySelectionEb
_ZN15wxClipboardBase3GetEv
_ZN15wxClipboardBase3GetEv.cold
_ZN15wxClipboardBase5FlushEv
_ZN15wxClipboardSync12ms_clipboardE
_ZN15wxClipboardSync18OnDoneIfInProgressEP11wxClipboard
_ZN15wxClipboardSync6OnDoneEP11wxClipboard
_ZN15wxClipboardSyncD1Ev
_ZN15wxClipboardSyncD2Ev
_ZN15wxClipboardSyncD5Ev
_ZN15wxCmdLineOptionD0Ev
_ZN15wxCmdLineOptionD1Ev
_ZN15wxCmdLineOptionD2Ev
_ZN15wxCmdLineOptionD5Ev
_ZN15wxCmdLineParser10SetCmdLineEiPPc
_ZN15wxCmdLineParser10SetCmdLineEiPPw
_ZN15wxCmdLineParser10SetCmdLineEiRK18wxCmdLineArgsArray
_ZN15wxCmdLineParser10SetCmdLineERK8wxString
_ZN15wxCmdLineParser12AddUsageTextERK8wxString
_ZN15wxCmdLineParser12AddUsageTextERK8wxString.cold
_ZN15wxCmdLineParser14SetSwitchCharsERK8wxString
_ZN15wxCmdLineParser17EnableLongOptionsEb
_ZN15wxCmdLineParser19ConvertStringToArgsERK8wxString18wxCmdLineSplitType
_ZN15wxCmdLineParser19ConvertStringToArgsERK8wxString18wxCmdLineSplitType.cold
_ZN15wxCmdLineParser4InitEv
_ZN15wxCmdLineParser4InitEv.cold
_ZN15wxCmdLineParser5ParseEb
_ZN15wxCmdLineParser5ParseEb.cold
_ZN15wxCmdLineParser5ResetEv
_ZN15wxCmdLineParser7SetDescEPK18wxCmdLineEntryDesc
_ZN15wxCmdLineParser7SetDescEPK18wxCmdLineEntryDesc.cold
_ZN15wxCmdLineParser7SetLogoERK8wxString
_ZN15wxCmdLineParser8AddParamERK8wxString18wxCmdLineParamTypei
_ZN15wxCmdLineParser8AddParamERK8wxString18wxCmdLineParamTypei.cold
_ZN15wxCmdLineParser9AddOptionERK8wxStringS2_S2_18wxCmdLineParamTypei
_ZN15wxCmdLineParser9AddOptionERK8wxStringS2_S2_18wxCmdLineParamTypei.cold
_ZN15wxCmdLineParser9AddSwitchERK8wxStringS2_S2_i
_ZN15wxCmdLineParser9AddSwitchERK8wxStringS2_S2_i.cold
_ZN15wxCmdLineParserD1Ev
_ZN15wxCmdLineParserD2Ev
_ZN15wxColourRefDataD0Ev
_ZN15wxColourRefDataD1Ev
_ZN15wxColourRefDataD2Ev
_ZN15wxColourRefDataD5Ev
_ZN15wxComboCtrlBase10AppendTextERK8wxString
_ZN15wxComboCtrlBase10DoSetValueERK8wxStringi
_ZN15wxComboCtrlBase10DrawButtonER4wxDCRK6wxRecti
_ZN15wxComboCtrlBase10DrawButtonER4wxDCRK6wxRecti.cold
_ZN15wxComboCtrlBase10OnKeyEventER10wxKeyEvent
_ZN15wxComboCtrlBase10OnPopupKeyER10wxKeyEvent
_ZN15wxComboCtrlBase10OnPopupKeyER10wxKeyEvent.cold
_ZN15wxComboCtrlBase10OnSetValueERK8wxString
_ZN15wxComboCtrlBase10OnSetValueERK8wxString.cold
_ZN15wxComboCtrlBase11AnimateShowERK6wxRecti
_ZN15wxComboCtrlBase11AnimateShowERK6wxRecti.localalias
_ZN15wxComboCtrlBase11ChangeValueERK8wxString
_ZN15wxComboCtrlBase11CreatePopupEv
_ZN15wxComboCtrlBase11CreatePopupEv.cold
_ZN15wxComboCtrlBase11DoShowPopupERK6wxRecti
_ZN15wxComboCtrlBase11OnCharEventER10wxKeyEvent
_ZN15wxComboCtrlBase11OnIdleEventER11wxIdleEvent
_ZN15wxComboCtrlBase11OnPopupSizeER11wxSizeEvent
_ZN15wxComboCtrlBase11OnPopupSizeER11wxSizeEvent.localalias
_ZN15wxComboCtrlBase11OnSizeEventER11wxSizeEvent
_ZN15wxComboCtrlBase11OnTextFocusER12wxFocusEvent
_ZN15wxComboCtrlBase11OnTextFocusER12wxFocusEvent.cold
_ZN15wxComboCtrlBase11SetEditableEb
_ZN15wxComboCtrlBase12DestroyPopupEv
_ZN15wxComboCtrlBase12DoSetMarginsERK7wxPoint
_ZN15wxComboCtrlBase12DoSetToolTipEP9wxToolTip
_ZN15wxComboCtrlBase12DoSetToolTipEP9wxToolTip.cold
_ZN15wxComboCtrlBase12ms_classInfoE
_ZN15wxComboCtrlBase12OnFocusEventER12wxFocusEvent
_ZN15wxComboCtrlBase12SetSelectionEll
_ZN15wxComboCtrlBase13GetButtonSizeEv
_ZN15wxComboCtrlBase13OnButtonClickEv
_ZN15wxComboCtrlBase13OnThemeChangeEv
_ZN15wxComboCtrlBase13OnThemeChangeEv.cold
_ZN15wxComboCtrlBase13sm_eventTableE
_ZN15wxComboCtrlBase14CalculateAreasEi
_ZN15wxComboCtrlBase14CreateTextCtrlEi
_ZN15wxComboCtrlBase14CreateTextCtrlEi.cold
_ZN15wxComboCtrlBase14OnPopupDismissEb
_ZN15wxComboCtrlBase14OnPopupDismissEb.cold
_ZN15wxComboCtrlBase14SetMainControlEP8wxWindow
_ZN15wxComboCtrlBase14SetValueByUserERK8wxString
_ZN15wxComboCtrlBase15OnTextCtrlEventER14wxCommandEvent
_ZN15wxComboCtrlBase15OnTextCtrlEventER14wxCommandEvent.cold
_ZN15wxComboCtrlBase16PositionTextCtrlEii
_ZN15wxComboCtrlBase16RecalcAndRefreshEv
_ZN15wxComboCtrlBase16RecalcAndRefreshEv.cold
_ZN15wxComboCtrlBase16SetButtonBitmapsERK14wxBitmapBundlebS2_S2_S2_
_ZN15wxComboCtrlBase16SetTextCtrlStyleEi
_ZN15wxComboCtrlBase17DoSetPopupControlEP12wxComboPopup
_ZN15wxComboCtrlBase17DoSetPopupControlEP12wxComboPopup.localalias
_ZN15wxComboCtrlBase17GetEditableWindowEv
_ZN15wxComboCtrlBase17OnPopupMouseEventER12wxMouseEvent
_ZN15wxComboCtrlBase17SetButtonPositionEiiii
_ZN15wxComboCtrlBase17SetInsertionPointEl
_ZN15wxComboCtrlBase17SetValueWithEventERK8wxStringb
_ZN15wxComboCtrlBase17sm_eventHashTableE
_ZN15wxComboCtrlBase18EnsurePopupControlEv
_ZN15wxComboCtrlBase18OnSysColourChangedER23wxSysColourChangedEvent
_ZN15wxComboCtrlBase18WXHandleDPIChangedER17wxDPIChangedEvent
_ZN15wxComboCtrlBase19SetBackgroundColourERK8wxColour
_ZN15wxComboCtrlBase19SetCustomPaintWidthEi
_ZN15wxComboCtrlBase19SetForegroundColourERK8wxColour
_ZN15wxComboCtrlBase20PreprocessMouseEventER12wxMouseEventi
_ZN15wxComboCtrlBase20sm_eventTableEntriesE
_ZN15wxComboCtrlBase22HandleButtonMouseEventER12wxMouseEventi
_ZN15wxComboCtrlBase22HandleNormalMouseEventER12wxMouseEvent
_ZN15wxComboCtrlBase22HandleNormalMouseEventER12wxMouseEvent.cold
_ZN15wxComboCtrlBase31GetMainWindowOfCompositeControlEv
_ZN15wxComboCtrlBase3CutEv
_ZN15wxComboCtrlBase4CopyEv
_ZN15wxComboCtrlBase4InitEv
_ZN15wxComboCtrlBase4RedoEv
_ZN15wxComboCtrlBase4ShowEb
_ZN15wxComboCtrlBase4UndoEv
_ZN15wxComboCtrlBase5PasteEv
_ZN15wxComboCtrlBase5PopupEv
_ZN15wxComboCtrlBase5PopupEv.cold
_ZN15wxComboCtrlBase6CreateEP8wxWindowiRK8wxStringRK7wxPointRK6wxSizelRK11wxValidatorS4_
_ZN15wxComboCtrlBase6CreateEP8wxWindowiRK8wxStringRK7wxPointRK6wxSizelRK11wxValidatorS4_.cold
_ZN15wxComboCtrlBase6EnableEb
_ZN15wxComboCtrlBase6RemoveEll
_ZN15wxComboCtrlBase6RemoveEll.cold
_ZN15wxComboCtrlBase7DismissEv
_ZN15wxComboCtrlBase7ReplaceEllRK8wxString
_ZN15wxComboCtrlBase7ReplaceEllRK8wxString.cold
_ZN15wxComboCtrlBase7SetFontERK6wxFont
_ZN15wxComboCtrlBase7SetHintERK8wxString
_ZN15wxComboCtrlBase7SetTextERK8wxString
_ZN15wxComboCtrlBase8SetValueERK8wxString
_ZN15wxComboCtrlBase9HidePopupEb
_ZN15wxComboCtrlBase9HidePopupEb.cold
_ZN15wxComboCtrlBase9OnTextKeyER10wxKeyEvent
_ZN15wxComboCtrlBase9OnTextKeyER10wxKeyEvent.cold
_ZN15wxComboCtrlBase9ShowPopupEv
_ZN15wxComboCtrlBase9ShowPopupEv.cold
_ZN15wxComboCtrlBase9WriteTextERK8wxString
_ZN15wxComboCtrlBase9WriteTextERK8wxString.cold
_ZN15wxComboCtrlBaseD0Ev
_ZN15wxComboCtrlBaseD1Ev
_ZN15wxComboCtrlBaseD2Ev
_ZN15wxCursorRefDataC1Ev
_ZN15wxCursorRefDataC2Ev
_ZN15wxCursorRefDataD0Ev
_ZN15wxCursorRefDataD1Ev
_ZN15wxCursorRefDataD2Ev
_ZN15wxDataViewEvent12ms_classInfoE
_ZN15wxDataViewEvent14wxCreateObjectEv
_ZN15wxDataViewEvent14wxCreateObjectEv.cold
_ZN15wxDataViewEvent4InitEP18wxDataViewCtrlBaseP16wxDataViewColumnRK14wxDataViewItem
_ZN15wxDataViewEvent8InitDataEP21wxDataObjectComposite12wxDataFormat
_ZN15wxDataViewEventD0Ev
_ZN15wxDataViewEventD1Ev
_ZN15wxDataViewEventD2Ev
_ZN15wxDataViewEventD5Ev
_ZN15wxDataViewModel10AfterResetEv
_ZN15wxDataViewModel10ItemsAddedERK14wxDataViewItemRK19wxDataViewItemArray
_ZN15wxDataViewModel11AddNotifierEP23wxDataViewModelNotifier
_ZN15wxDataViewModel11BeforeResetEv
_ZN15wxDataViewModel11ItemChangedERK14wxDataViewItem
_ZN15wxDataViewModel11ItemDeletedERK14wxDataViewItemS2_
_ZN15wxDataViewModel12ItemsChangedERK19wxDataViewItemArray
_ZN15wxDataViewModel12ItemsDeletedERK14wxDataViewItemRK19wxDataViewItemArray
_ZN15wxDataViewModel12ValueChangedERK14wxDataViewItemj
_ZN15wxDataViewModel14RemoveNotifierEP23wxDataViewModelNotifier
_ZN15wxDataViewModel6ResortEv
_ZN15wxDataViewModel7ClearedEv
_ZN15wxDataViewModel9ItemAddedERK14wxDataViewItemS2_
_ZN15wxDataViewModelC1Ev
_ZN15wxDataViewModelC2Ev
_ZN15wxDataViewModelD0Ev
_ZN15wxDataViewModelD1Ev
_ZN15wxDataViewModelD2Ev
_ZN15wxDCFontChangerD1Ev
_ZN15wxDCFontChangerD2Ev
_ZN15wxDCFontChangerD5Ev
_ZN15wxDialUpManager6CreateEv
_ZN15wxDialUpManager6CreateEv.cold
_ZN15wxDirDialogBase10SetMessageERK8wxString
_ZN15wxDirDialogBase7SetPathERK8wxString
_ZN15wxDirDialogBaseD0Ev
_ZN15wxDirDialogBaseD1Ev
_ZN15wxDirDialogBaseD2Ev
_ZN15wxDirDialogBaseD5Ev
_ZN15wxDirPickerCtrl12CreatePickerEP8wxWindowRK8wxStringS4_S4_
_ZN15wxDirPickerCtrl12ms_classInfoE
_ZN15wxDirPickerCtrl14wxCreateObjectEv
_ZN15wxDirPickerCtrl14wxCreateObjectEv.cold
_ZN15wxDirPickerCtrl6CreateEP8wxWindowiRK8wxStringS4_RK7wxPointRK6wxSizelRK11wxValidatorS4_
_ZN15wxDirPickerCtrl6CreateEP8wxWindowiRK8wxStringS4_RK7wxPointRK6wxSizelRK11wxValidatorS4_.cold
_ZN15wxDirPickerCtrl9DoConnectEP9wxControlP23wxFileDirPickerCtrlBase
_ZN15wxDirPickerCtrlD0Ev
_ZN15wxDirPickerCtrlD1Ev
_ZN15wxDirPickerCtrlD2Ev
_ZN15wxDirPickerCtrlD5Ev
_ZN15wxDisplayModule12ms_classInfoE
_ZN15wxDisplayModule14wxCreateObjectEv
_ZN15wxDisplayModule6OnExitEv
_ZN15wxDisplayModule6OnInitEv
_ZN15wxDisplayModuleD0Ev
_ZN15wxDisplayModuleD1Ev
_ZN15wxDisplayModuleD2Ev
_ZN15wxDisplayModuleD5Ev
_ZN15wxDocChildFrame12ms_classInfoE
_ZN15wxDocChildFrameD0Ev
_ZN15wxDocChildFrameD1Ev
_ZN15wxDocChildFrameD2Ev
_ZN15wxDocChildFrameD5Ev
_ZN15wxEventLoopBase10DoYieldForEl
_ZN15wxEventLoopBase11ProcessIdleEv
_ZN15wxEventLoopBase11ProcessIdleEv.localalias
_ZN15wxEventLoopBase13ms_activeLoopE
_ZN15wxEventLoopBase14AddSourceForFDEiP24wxEventLoopSourceHandleri
_ZN15wxEventLoopBase3RunEv
_ZN15wxEventLoopBase3RunEv.cold
_ZN15wxEventLoopBase4ExitEi
_ZN15wxEventLoopBase5YieldEb
_ZN15wxEventLoopBase6OnExitEv
_ZN15wxEventLoopBase6OnExitEv.localalias
_ZN15wxEventLoopBase8YieldForEl
_ZN15wxEventLoopBase8YieldForEl.cold
_ZN15wxEventLoopBase9SetActiveEPS_
_ZN15wxEventLoopBaseC1Ev
_ZN15wxEventLoopBaseC2Ev
_ZN15wxEventLoopBaseD0Ev
_ZN15wxEventLoopBaseD1Ev
_ZN15wxEventLoopBaseD2Ev
_ZN15wxExternalFieldI8wxWindowN12_GLOBAL__N_120wxWindowGesturesDataENS1_19wxWindowGesturesMapEE6ms_mapE
_ZN15wxFileCtrlEvent12ms_classInfoE
_ZN15wxFileCtrlEvent14wxCreateObjectEv
_ZN15wxFileCtrlEvent14wxCreateObjectEv.cold
_ZN15wxFileCtrlEventD0Ev
_ZN15wxFileCtrlEventD1Ev
_ZN15wxFileCtrlEventD2Ev
_ZN15wxFileCtrlEventD5Ev
_ZN15wxFileIconEntryD0Ev
_ZN15wxFileIconEntryD1Ev
_ZN15wxFileIconEntryD2Ev
_ZN15wxFileIconEntryD5Ev
_ZN15wxFlagsProperty10OnSetValueEv
_ZN15wxFlagsProperty12ms_classInfoE
_ZN15wxFlagsProperty14DoSetAttributeERK8wxStringR9wxVariant
_ZN15wxFlagsProperty14DoSetAttributeERK8wxStringR9wxVariant.cold
_ZN15wxFlagsProperty14wxCreateObjectEv
_ZN15wxFlagsProperty14wxCreateObjectEv.cold
_ZN15wxFlagsProperty15RefreshChildrenEv
_ZN15wxFlagsProperty15RefreshChildrenEv.cold
_ZN15wxFlagsProperty4InitEv
_ZN15wxFlagsProperty4InitEv.cold
_ZN15wxFlagsPropertyC1ERK8wxStringS2_PKPKwPKll
_ZN15wxFlagsPropertyC1ERK8wxStringS2_R11wxPGChoicesl
_ZN15wxFlagsPropertyC1ERK8wxStringS2_RK13wxArrayStringRK10wxArrayInti
_ZN15wxFlagsPropertyC2ERK8wxStringS2_PKPKwPKll
_ZN15wxFlagsPropertyC2ERK8wxStringS2_PKPKwPKll.cold
_ZN15wxFlagsPropertyC2ERK8wxStringS2_R11wxPGChoicesl
_ZN15wxFlagsPropertyC2ERK8wxStringS2_R11wxPGChoicesl.cold
_ZN15wxFlagsPropertyC2ERK8wxStringS2_RK13wxArrayStringRK10wxArrayInti
_ZN15wxFlagsPropertyC2ERK8wxStringS2_RK13wxArrayStringRK10wxArrayInti.cold
_ZN15wxFlagsPropertyD0Ev
_ZN15wxFlagsPropertyD1Ev
_ZN15wxFlagsPropertyD2Ev
_ZN15wxFlexGridSizer12ms_classInfoE
_ZN15wxFlexGridSizer13IsColGrowableEm
_ZN15wxFlexGridSizer13IsRowGrowableEm
_ZN15wxFlexGridSizer14AddGrowableColEmi
_ZN15wxFlexGridSizer14AddGrowableRowEmi
_ZN15wxFlexGridSizer17RemoveGrowableColEm
_ZN15wxFlexGridSizer17RemoveGrowableRowEm
_ZN15wxFlexGridSizer18AdjustForGrowablesERK6wxSizeS2_
_ZN15wxFlexGridSizer18RepositionChildrenERK6wxSize
_ZN15wxFlexGridSizer20FindWidthsAndHeightsEii
_ZN15wxFlexGridSizer22AdjustForFlexDirectionEv
_ZN15wxFlexGridSizer7CalcMinEv
_ZN15wxFlexGridSizerC1Eiii
_ZN15wxFlexGridSizerC1Eiiii
_ZN15wxFlexGridSizerC1EiiRK6wxSize
_ZN15wxFlexGridSizerC1EiRK6wxSize
_ZN15wxFlexGridSizerC2Eiii
_ZN15wxFlexGridSizerC2Eiiii
_ZN15wxFlexGridSizerC2EiiRK6wxSize
_ZN15wxFlexGridSizerC2EiRK6wxSize
_ZN15wxFlexGridSizerD0Ev
_ZN15wxFlexGridSizerD1Ev
_ZN15wxFlexGridSizerD2Ev
_ZN15wxFloatProperty12DoValidationEPK17wxNumericPropertyRdP18wxPGValidationInfoi
_ZN15wxFloatProperty12ms_classInfoE
_ZN15wxFloatProperty14DoSetAttributeERK8wxStringR9wxVariant
_ZN15wxFloatProperty14wxCreateObjectEv
_ZN15wxFloatProperty14wxCreateObjectEv.cold
_ZN15wxFloatProperty17GetClassValidatorEv
_ZN15wxFloatProperty17GetClassValidatorEv.cold
_ZN15wxFloatPropertyC1ERK8wxStringS2_d
_ZN15wxFloatPropertyC2ERK8wxStringS2_d
_ZN15wxFloatPropertyC2ERK8wxStringS2_d.cold
_ZN15wxFloatPropertyD0Ev
_ZN15wxFloatPropertyD1Ev
_ZN15wxFloatPropertyD2Ev
_ZN15wxFSInputStreamC1ERK8wxStringi
_ZN15wxFSInputStreamC2ERK8wxStringi
_ZN15wxFSInputStreamC2ERK8wxStringi.cold
_ZN15wxFSInputStreamD0Ev
_ZN15wxFSInputStreamD1Ev
_ZN15wxFSInputStreamD2Ev
_ZN15wxFSWatcherImpl3AddERK13wxFSWatchInfo
_ZN15wxFSWatcherImpl6RemoveERK13wxFSWatchInfo
_ZN15wxFSWatcherImpl9RemoveAllEv
_ZN15wxFSWatcherImplD0Ev
_ZN15wxFSWatcherImplD1Ev
_ZN15wxFSWatcherImplD2Ev
_ZN15wxFSWatcherImplD5Ev
_ZN15wxGraphicsBrush12ms_classInfoE
_ZN15wxGraphicsBrush14wxCreateObjectEv
_ZN15wxGraphicsBrush14wxCreateObjectEv.cold
_ZN15wxGraphicsBrushD0Ev
_ZN15wxGraphicsBrushD1Ev
_ZN15wxGraphicsBrushD2Ev
_ZN15wxGraphicsBrushD5Ev
_ZN15wxGridSelection10UpdateColsEmi
_ZN15wxGridSelection10UpdateRowsEmi
_ZN15wxGridSelection11IsSelectionEv
_ZN15wxGridSelection11SelectBlockEiiiiRK15wxKeyboardStatei
_ZN15wxGridSelection12EndSelectingEv
_ZN15wxGridSelection12EndSelectingEv.cold
_ZN15wxGridSelection13DeselectBlockERK17wxGridBlockCoordsRK15wxKeyboardStatei
_ZN15wxGridSelection13DeselectBlockERK17wxGridBlockCoordsRK15wxKeyboardStatei.cold
_ZN15wxGridSelection14ClearSelectionEv
_ZN15wxGridSelection14ClearSelectionEv.cold
_ZN15wxGridSelection15CancelSelectingEv
_ZN15wxGridSelection15MergeOrAddBlockER8wxVectorI17wxGridBlockCoordsERKS1_
_ZN15wxGridSelection16SetSelectionModeEN6wxGrid20wxGridSelectionModesE
_ZN15wxGridSelection18ExtendCurrentBlockERK16wxGridCellCoordsS2_RK15wxKeyboardStatei
_ZN15wxGridSelection18ExtendCurrentBlockERK16wxGridCellCoordsS2_RK15wxKeyboardStatei.cold
_ZN15wxGridSelection6SelectERK17wxGridBlockCoordsRK15wxKeyboardStatei
_ZN15wxGridSelection6SelectERK17wxGridBlockCoordsRK15wxKeyboardStatei.cold
_ZN15wxGridSelection9SelectAllEv
_ZN15wxGridSelection9SelectColEiRK15wxKeyboardState
_ZN15wxGridSelection9SelectRowEiRK15wxKeyboardState
_ZN15wxGridSelectionC1EP6wxGridNS0_20wxGridSelectionModesE
_ZN15wxGridSelectionC2EP6wxGridNS0_20wxGridSelectionModesE
_ZN15wxGridSizeEvent12ms_classInfoE
_ZN15wxGridSizeEvent14wxCreateObjectEv
_ZN15wxGridSizeEvent14wxCreateObjectEv.cold
_ZN15wxGridSizeEventC1EiiP8wxObjectiiibbbb
_ZN15wxGridSizeEventC2EiiP8wxObjectiiibbbb
_ZN15wxGridSizeEventD0Ev
_ZN15wxGridSizeEventD1Ev
_ZN15wxGridSizeEventD2Ev
_ZN15wxGridSizeEventD5Ev
_ZN15wxGridSizesInfoC1EiRK10wxArrayInt
_ZN15wxGridSizesInfoC2EiRK10wxArrayInt
_ZN15wxGridSizesInfoC2EiRK10wxArrayInt.cold
_ZN15wxGridSubwindow13sm_eventTableE
_ZN15wxGridSubwindow17sm_eventHashTableE
_ZN15wxGridSubwindow18OnMouseCaptureLostER23wxMouseCaptureLostEvent
_ZN15wxGridSubwindow20sm_eventTableEntriesE
_ZN15wxGridSubwindow31GetMainWindowOfCompositeControlEv
_ZN15wxGridSubwindowD0Ev
_ZN15wxGridSubwindowD1Ev
_ZN15wxGridSubwindowD2Ev
_ZN15wxGridSubwindowD5Ev
_ZN15wxGridTableBase10AppendColsEm
_ZN15wxGridTableBase10AppendRowsEm
_ZN15wxGridTableBase10DeleteColsEmm
_ZN15wxGridTableBase10DeleteRowsEmm
_ZN15wxGridTableBase10InsertColsEmm
_ZN15wxGridTableBase10InsertRowsEmm
_ZN15wxGridTableBase10SetColAttrEP14wxGridCellAttri
_ZN15wxGridTableBase10SetRowAttrEP14wxGridCellAttri
_ZN15wxGridTableBase11GetTypeNameEii
_ZN15wxGridTableBase11GetTypeNameEii.localalias
_ZN15wxGridTableBase11IsEmptyCellEii
_ZN15wxGridTableBase12ms_classInfoE
_ZN15wxGridTableBase13CanGetValueAsEiiRK8wxString
_ZN15wxGridTableBase13CanGetValueAsEiiRK8wxString.localalias
_ZN15wxGridTableBase13CanSetValueAsEiiRK8wxString
_ZN15wxGridTableBase14GetValueAsBoolEii
_ZN15wxGridTableBase14GetValueAsLongEii
_ZN15wxGridTableBase14SetValueAsBoolEiib
_ZN15wxGridTableBase14SetValueAsLongEiil
_ZN15wxGridTableBase15SetAttrProviderEP22wxGridCellAttrProvider
_ZN15wxGridTableBase16GetColLabelValueEi
_ZN15wxGridTableBase16GetColLabelValueEi.cold
_ZN15wxGridTableBase16GetRowLabelValueEi
_ZN15wxGridTableBase16GetRowLabelValueEi.cold
_ZN15wxGridTableBase16GetValueAsCustomEiiRK8wxString
_ZN15wxGridTableBase16GetValueAsDoubleEii
_ZN15wxGridTableBase16SetColLabelValueEiRK8wxString
_ZN15wxGridTableBase16SetRowLabelValueEiRK8wxString
_ZN15wxGridTableBase16SetValueAsCustomEiiRK8wxStringPv
_ZN15wxGridTableBase16SetValueAsDoubleEiid
_ZN15wxGridTableBase17CanHaveAttributesEv
_ZN15wxGridTableBase17CanHaveAttributesEv.cold
_ZN15wxGridTableBase17CanHaveAttributesEv.localalias
_ZN15wxGridTableBase19SetCornerLabelValueERK8wxString
_ZN15wxGridTableBase5ClearEv
_ZN15wxGridTableBase7GetAttrEiiN14wxGridCellAttr10wxAttrKindE
_ZN15wxGridTableBase7GetAttrEiiN14wxGridCellAttr10wxAttrKindE.localalias
_ZN15wxGridTableBase7SetAttrEP14wxGridCellAttrii
_ZN15wxGridTableBase7SetViewEP6wxGrid
_ZN15wxGridTableBaseC1Ev
_ZN15wxGridTableBaseC2Ev
_ZN15wxGridTableBaseC2Ev.cold
_ZN15wxGridTableBaseD0Ev
_ZN15wxGridTableBaseD1Ev
_ZN15wxGridTableBaseD2Ev
_ZN15wxHashTableBase12DoInsertNodeEmP20wxHashTableBase_Node
_ZN15wxHashTableBase12DoRemoveNodeEP20wxHashTableBase_Node
_ZN15wxHashTableBase12DoUnlinkNodeEmP20wxHashTableBase_NodeS1_
_ZN15wxHashTableBase13DoDestroyNodeEP20wxHashTableBase_Node
_ZN15wxHashTableBase5ClearEv
_ZN15wxHashTableBase5DoPutEllPv
_ZN15wxHashTableBase5DoPutEllPv.cold
_ZN15wxHashTableBase5DoPutERK8wxStringlPv
_ZN15wxHashTableBase5DoPutERK8wxStringlPv.cold
_ZN15wxHashTableBase6CreateE9wxKeyTypem
_ZN15wxHashTableBase6CreateE9wxKeyTypem.cold
_ZN15wxHashTableBase7DestroyEv
_ZN15wxHashTableBase7MakeKeyERK8wxString
_ZN15wxHashTableBase8DoDeleteEll
_ZN15wxHashTableBase8DoDeleteERK8wxStringl
_ZN15wxHashTableBaseC1Ev
_ZN15wxHashTableBaseC2Ev
_ZN15wxHtmlCellEvent12ms_classInfoE
_ZN15wxHtmlCellEvent14wxCreateObjectEv
_ZN15wxHtmlCellEvent14wxCreateObjectEv.cold
_ZN15wxHtmlCellEventD0Ev
_ZN15wxHtmlCellEventD1Ev
_ZN15wxHtmlCellEventD2Ev
_ZN15wxHtmlCellEventD5Ev
_ZN15wxHtmlHelpFrame10OnActivateER15wxActivateEvent
_ZN15wxHtmlHelpFrame12ms_classInfoE
_ZN15wxHtmlHelpFrame13OnCloseWindowER12wxCloseEvent
_ZN15wxHtmlHelpFrame13SetControllerEP20wxHtmlHelpController
_ZN15wxHtmlHelpFrame13sm_eventTableE
_ZN15wxHtmlHelpFrame14SetTitleFormatERK8wxString
_ZN15wxHtmlHelpFrame14wxCreateObjectEv
_ZN15wxHtmlHelpFrame14wxCreateObjectEv.cold
_ZN15wxHtmlHelpFrame15AddGrabIfNeededEv
_ZN15wxHtmlHelpFrame17AddToolbarButtonsEP9wxToolBari
_ZN15wxHtmlHelpFrame17sm_eventHashTableE
_ZN15wxHtmlHelpFrame20sm_eventTableEntriesE
_ZN15wxHtmlHelpFrame23SetShouldPreventAppExitEb
_ZN15wxHtmlHelpFrame4InitEP14wxHtmlHelpData
_ZN15wxHtmlHelpFrame6CreateEP8wxWindowiRK8wxStringiP12wxConfigBaseS4_
_ZN15wxHtmlHelpFrame6CreateEP8wxWindowiRK8wxStringiP12wxConfigBaseS4_.cold
_ZN15wxHtmlHelpFrame9UseConfigEP12wxConfigBaseRK8wxString
_ZN15wxHtmlHelpFrameC1EP8wxWindowiRK8wxStringiP14wxHtmlHelpDataP12wxConfigBaseS4_
_ZN15wxHtmlHelpFrameC2EP8wxWindowiRK8wxStringiP14wxHtmlHelpDataP12wxConfigBaseS4_
_ZN15wxHtmlHelpFrameC2EP8wxWindowiRK8wxStringiP14wxHtmlHelpDataP12wxConfigBaseS4_.cold
_ZN15wxHtmlHelpFrameD0Ev
_ZN15wxHtmlHelpFrameD1Ev
_ZN15wxHtmlHelpFrameD2Ev
_ZN15wxHtmlImageCell16AdvanceAnimationEP7wxTimer
_ZN15wxHtmlImageCell16AdvanceAnimationEP7wxTimer.cold
_ZN15wxHtmlImageCell4DrawER4wxDCiiiiR19wxHtmlRenderingInfo
_ZN15wxHtmlImageCell6LayoutEi
_ZN15wxHtmlImageCell6SetAltERK8wxString
_ZN15wxHtmlImageCell8SetImageERK7wxImaged
_ZN15wxHtmlImageCell8SetImageERK7wxImaged.cold
_ZN15wxHtmlImageCellC1EP21wxHtmlWindowInterfaceP8wxFSFiledibibdiRK8wxString
_ZN15wxHtmlImageCellC2EP21wxHtmlWindowInterfaceP8wxFSFiledibibdiRK8wxString
_ZN15wxHtmlImageCellC2EP21wxHtmlWindowInterfaceP8wxFSFiledibibdiRK8wxString.cold
_ZN15wxHtmlImageCellD0Ev
_ZN15wxHtmlImageCellD1Ev
_ZN15wxHtmlImageCellD2Ev
_ZN15wxHtmlLinkEvent12ms_classInfoE
_ZN15wxHtmlLinkEvent14wxCreateObjectEv
_ZN15wxHtmlLinkEvent14wxCreateObjectEv.cold
_ZN15wxHtmlLinkEventD0Ev
_ZN15wxHtmlLinkEventD1Ev
_ZN15wxHtmlLinkEventD2Ev
_ZN15wxHtmlLinkEventD5Ev
_ZN15wxHtmlModalHelpC1EP8wxWindowRK8wxStringS4_i
_ZN15wxHtmlModalHelpC2EP8wxWindowRK8wxStringS4_i
_ZN15wxHtmlModalHelpC2EP8wxWindowRK8wxStringS4_i.cold
_ZN15wxHtmlProcessor12ms_classInfoE
_ZN15wxHtmlProcessor6EnableEb
_ZN15wxHtmlSelection3SetEPK10wxHtmlCellS2_
_ZN15wxHtmlSelection3SetERK7wxPointPK10wxHtmlCellS2_S5_
_ZN15wxHtmlTableCell11ReallocColsEi
_ZN15wxHtmlTableCell11ReallocRowsEi
_ZN15wxHtmlTableCell18RemoveExtraSpacingEbb
_ZN15wxHtmlTableCell19ComputeMinMaxWidthsEv
_ZN15wxHtmlTableCell6AddRowERK9wxHtmlTag
_ZN15wxHtmlTableCell6AddRowERK9wxHtmlTag.cold
_ZN15wxHtmlTableCell6LayoutEi
_ZN15wxHtmlTableCell6LayoutEi.cold
_ZN15wxHtmlTableCell7AddCellEP19wxHtmlContainerCellRK9wxHtmlTag
_ZN15wxHtmlTableCell7AddCellEP19wxHtmlContainerCellRK9wxHtmlTag.cold
_ZN15wxHtmlTableCellC1EP19wxHtmlContainerCellRK9wxHtmlTagd
_ZN15wxHtmlTableCellC2EP19wxHtmlContainerCellRK9wxHtmlTagd
_ZN15wxHtmlTableCellC2EP19wxHtmlContainerCellRK9wxHtmlTagd.cold
_ZN15wxHtmlTableCellD0Ev
_ZN15wxHtmlTableCellD1Ev
_ZN15wxHtmlTableCellD2Ev
_ZN15wxHtmlTagsCache8QueryTagERKN8wxString14const_iteratorES3_PS1_S4_Pb
_ZN15wxHtmlTagsCacheC1ERK8wxString
_ZN15wxHtmlTagsCacheC2ERK8wxString
_ZN15wxHtmlTagsCacheD0Ev
_ZN15wxHtmlTagsCacheD1Ev
_ZN15wxHtmlTagsCacheD2Ev
_ZN15wxHtmlWinModule12ms_classInfoE
_ZN15wxHtmlWinModule14wxCreateObjectEv
_ZN15wxHtmlWinModule6OnExitEv
_ZN15wxHtmlWinModule6OnInitEv
_ZN15wxHtmlWinModuleD0Ev
_ZN15wxHtmlWinModuleD1Ev
_ZN15wxHtmlWinModuleD2Ev
_ZN15wxHtmlWinModuleD5Ev
_ZN15wxHtmlWinParser10DoneParserEv
_ZN15wxHtmlWinParser10GetProductEv
_ZN15wxHtmlWinParser10InitParserERK8wxString
_ZN15wxHtmlWinParser10InitParserERK8wxString.cold
_ZN15wxHtmlWinParser11AddPreBlockERK8wxString
_ZN15wxHtmlWinParser11AddPreBlockERK8wxString.cold
_ZN15wxHtmlWinParser11SetFontFaceERK8wxString
_ZN15wxHtmlWinParser11SetFontSizeEi
_ZN15wxHtmlWinParser12FlushWordBufEPwRi
_ZN15wxHtmlWinParser12FlushWordBufEPwRi.cold
_ZN15wxHtmlWinParser12ms_classInfoE
_ZN15wxHtmlWinParser12RemoveModuleEP16wxHtmlTagsModule
_ZN15wxHtmlWinParser12SetContainerEP19wxHtmlContainerCell
_ZN15wxHtmlWinParser13OpenContainerEv
_ZN15wxHtmlWinParser13OpenContainerEv.cold
_ZN15wxHtmlWinParser14CloseContainerEv
_ZN15wxHtmlWinParser16ApplyStateToCellEP10wxHtmlCell
_ZN15wxHtmlWinParser16SetFontPointSizeEi
_ZN15wxHtmlWinParser16SetStandardFontsEiRK8wxStringS2_
_ZN15wxHtmlWinParser16SetStandardFontsEiRK8wxStringS2_.cold
_ZN15wxHtmlWinParser17CreateCurrentFontEv
_ZN15wxHtmlWinParser17CreateCurrentFontEv.cold
_ZN15wxHtmlWinParser5SetDCEP4wxDCd
_ZN15wxHtmlWinParser5SetDCEP4wxDCdd
_ZN15wxHtmlWinParser7AddTextERK8wxString
_ZN15wxHtmlWinParser7AddTextERK8wxString.cold
_ZN15wxHtmlWinParser7AddWordEP14wxHtmlWordCell
_ZN15wxHtmlWinParser7SetLinkERK14wxHtmlLinkInfo
_ZN15wxHtmlWinParser8SetFontsERK8wxStringS2_PKi
_ZN15wxHtmlWinParser9AddModuleEP16wxHtmlTagsModule
_ZN15wxHtmlWinParser9m_ModulesE
_ZN15wxHtmlWinParserC1EP21wxHtmlWindowInterface
_ZN15wxHtmlWinParserC2EP21wxHtmlWindowInterface
_ZN15wxHtmlWinParserC2EP21wxHtmlWindowInterface.cold
_ZN15wxHtmlWinParserD0Ev
_ZN15wxHtmlWinParserD1Ev
_ZN15wxHtmlWinParserD2Ev
_ZN15wxHyperlinkCtrl10SetVisitedEb
_ZN15wxHyperlinkCtrl10SetVisitedEb.localalias
_ZN15wxHyperlinkCtrl12ms_classInfoE
_ZN15wxHyperlinkCtrl14SetHoverColourERK8wxColour
_ZN15wxHyperlinkCtrl14wxCreateObjectEv
_ZN15wxHyperlinkCtrl14wxCreateObjectEv.cold
_ZN15wxHyperlinkCtrl15SetNormalColourERK8wxColour
_ZN15wxHyperlinkCtrl16SetVisitedColourERK8wxColour
_ZN15wxHyperlinkCtrl6CreateEP8wxWindowiRK8wxStringS4_RK7wxPointRK6wxSizelS4_
_ZN15wxHyperlinkCtrl6CreateEP8wxWindowiRK8wxStringS4_RK7wxPointRK6wxSizelS4_.cold
_ZN15wxHyperlinkCtrl6SetURLERK8wxString
_ZN15wxHyperlinkCtrl6SetURLERK8wxString.cold
_ZN15wxHyperlinkCtrl8SetLabelERK8wxString
_ZN15wxHyperlinkCtrl8SetLabelERK8wxString.cold
_ZN15wxHyperlinkCtrlC1EP8wxWindowiRK8wxStringS4_RK7wxPointRK6wxSizelS4_
_ZN15wxHyperlinkCtrlC1Ev
_ZN15wxHyperlinkCtrlC2EP8wxWindowiRK8wxStringS4_RK7wxPointRK6wxSizelS4_
_ZN15wxHyperlinkCtrlC2EP8wxWindowiRK8wxStringS4_RK7wxPointRK6wxSizelS4_.cold
_ZN15wxHyperlinkCtrlC2Ev
_ZN15wxHyperlinkCtrlC2Ev.cold
_ZN15wxHyperlinkCtrlD0Ev
_ZN15wxHyperlinkCtrlD1Ev
_ZN15wxHyperlinkCtrlD2Ev
_ZN15wxItemContainer13DoAppendItemsERK21wxArrayStringsAdapterPPv16wxClientDataType
_ZN15wxItemContainer13SetClientDataEjPv
_ZN15wxItemContainer15DoInsertOneItemERK8wxStringj
_ZN15wxItemContainer15DoInsertOneItemERK8wxStringj.localalias
_ZN15wxItemContainer15SetClientObjectEjP12wxClientData
_ZN15wxItemContainer17SetClientDataTypeE16wxClientDataType
_ZN15wxItemContainer18DetachClientObjectEj
_ZN15wxItemContainer19DoInsertItemsInLoopERK21wxArrayStringsAdapterjPPv16wxClientDataType
_ZN15wxItemContainer20DoInitItemClientDataEv
_ZN15wxItemContainer21ResetItemClientObjectEj
_ZN15wxItemContainer23AssignNewItemClientDataEjPPvj16wxClientDataType
_ZN15wxItemContainer5ClearEv
_ZN15wxItemContainer6AppendERK8wxString
_ZN15wxItemContainer6DeleteEj
_ZN15wxItemContainerD0Ev
_ZN15wxItemContainerD1Ev
_ZN15wxItemContainerD2Ev
_ZN15wxJoystickEvent12ms_classInfoE
_ZN15wxJoystickEvent14wxCreateObjectEv
_ZN15wxJoystickEvent14wxCreateObjectEv.cold
_ZN15wxJoystickEventD0Ev
_ZN15wxJoystickEventD1Ev
_ZN15wxJoystickEventD2Ev
_ZN15wxJoystickEventD5Ev
_ZN15wxListFindTimer6NotifyEv
_ZN15wxListFindTimerD0Ev
_ZN15wxListFindTimerD1Ev
_ZN15wxListFindTimerD2Ev
_ZN15wxListFindTimerD5Ev
_ZN15wxLogInterposerC1Ev
_ZN15wxLogInterposerC2Ev
_ZN15wxLogInterposerD0Ev
_ZN15wxLogInterposerD1Ev
_ZN15wxLogInterposerD2Ev
_ZN15wxLogInterposerD5Ev
_ZN15wxLogRecordInfo10StoreValueERK8wxStringm
_ZN15wxLogRecordInfo4CopyERKS_
_ZN15wxLogRecordInfoD1Ev
_ZN15wxLogRecordInfoD2Ev
_ZN15wxLogRecordInfoD5Ev
_ZN15wxMaximizeEvent12ms_classInfoE
_ZN15wxMaximizeEvent14wxCreateObjectEv
_ZN15wxMaximizeEvent14wxCreateObjectEv.cold
_ZN15wxMaximizeEventD0Ev
_ZN15wxMaximizeEventD1Ev
_ZN15wxMaximizeEventD2Ev
_ZN15wxMaximizeEventD5Ev
_ZN15wxMBConvUTF16BED0Ev
_ZN15wxMBConvUTF16BED1Ev
_ZN15wxMBConvUTF16BED2Ev
_ZN15wxMBConvUTF16BED5Ev
_ZN15wxMBConvUTF16LED0Ev
_ZN15wxMBConvUTF16LED1Ev
_ZN15wxMBConvUTF16LED2Ev
_ZN15wxMBConvUTF16LED5Ev
_ZN15wxMBConvUTF32BED0Ev
_ZN15wxMBConvUTF32BED1Ev
_ZN15wxMBConvUTF32BED2Ev
_ZN15wxMBConvUTF32BED5Ev
_ZN15wxMBConvUTF32LED0Ev
_ZN15wxMBConvUTF32LED1Ev
_ZN15wxMBConvUTF32LED2Ev
_ZN15wxMBConvUTF32LED5Ev
_ZN15wxMDIChildFrame10OnActivateER15wxActivateEvent
_ZN15wxMDIChildFrame10SetMenuBarEP9wxMenuBar
_ZN15wxMDIChildFrame12ms_classInfoE
_ZN15wxMDIChildFrame13sm_eventTableE
_ZN15wxMDIChildFrame14wxCreateObjectEv
_ZN15wxMDIChildFrame14wxCreateObjectEv.cold
_ZN15wxMDIChildFrame15OnMenuHighlightER11wxMenuEvent
_ZN15wxMDIChildFrame17GTKHandleRealizedEv
_ZN15wxMDIChildFrame17sm_eventHashTableE
_ZN15wxMDIChildFrame20sm_eventTableEntriesE
_ZN15wxMDIChildFrame4InitEv
_ZN15wxMDIChildFrame6CreateEP16wxMDIParentFrameiRK8wxStringRK7wxPointRK6wxSizelS4_
_ZN15wxMDIChildFrame8ActivateEv
_ZN15wxMDIChildFrame8SetTitleERK8wxString
_ZN15wxMDIChildFrame8SetTitleERK8wxString.cold
_ZN15wxMDIChildFrameD0Ev
_ZN15wxMDIChildFrameD1Ev
_ZN15wxMDIChildFrameD2Ev
_ZN15wxMdiXmlHandler11CreateFrameEv
_ZN15wxMdiXmlHandler11CreateFrameEv.cold
_ZN15wxMdiXmlHandler12ms_classInfoE
_ZN15wxMdiXmlHandler14wxCreateObjectEv
_ZN15wxMdiXmlHandler14wxCreateObjectEv.cold
_ZN15wxMdiXmlHandler16DoCreateResourceEv
_ZN15wxMdiXmlHandler16DoCreateResourceEv.cold
_ZN15wxMdiXmlHandler9CanHandleEP9wxXmlNode
_ZN15wxMdiXmlHandler9CanHandleEP9wxXmlNode.cold
_ZN15wxMdiXmlHandlerC1Ev
_ZN15wxMdiXmlHandlerC2Ev
_ZN15wxMdiXmlHandlerC2Ev.cold
_ZN15wxMdiXmlHandlerD0Ev
_ZN15wxMdiXmlHandlerD1Ev
_ZN15wxMdiXmlHandlerD2Ev
_ZN15wxMdiXmlHandlerD5Ev
_ZN15wxMessageDialog12DoMoveWindowEiiii
_ZN15wxMessageDialog12ms_classInfoE
_ZN15wxMessageDialog16DoSetCustomLabelER8wxStringRKN19wxMessageDialogBase11ButtonLabelE
_ZN15wxMessageDialog16DoSetCustomLabelER8wxStringRKN19wxMessageDialogBase11ButtonLabelE.cold
_ZN15wxMessageDialog18GTKCreateMsgDialogEv
_ZN15wxMessageDialog18GTKCreateMsgDialogEv.cold
_ZN15wxMessageDialog4ShowEb
_ZN15wxMessageDialog9DoSetSizeEiiiii
_ZN15wxMessageDialog9ShowModalEv
_ZN15wxMessageDialog9ShowModalEv.cold
_ZN15wxMessageDialogC1EP8wxWindowRK8wxStringS4_lRK7wxPoint
_ZN15wxMessageDialogC2EP8wxWindowRK8wxStringS4_lRK7wxPoint
_ZN15wxMessageDialogC2EP8wxWindowRK8wxStringS4_lRK7wxPoint.cold
_ZN15wxMessageDialogD0Ev
_ZN15wxMessageDialogD1Ev
_ZN15wxMessageDialogD2Ev
_ZN15wxMessageDialogD5Ev
_ZN15wxMessageOutput13DoPrintfWcharEPKwz
_ZN15wxMessageOutput13DoPrintfWcharEPKwz.cold
_ZN15wxMessageOutput3GetEv
_ZN15wxMessageOutput3SetEPS_
_ZN15wxMessageOutput6PrintfI8wxStringPKcEEvRK14wxFormatStringT_T0_
_ZN15wxMessageOutput9ms_msgOutE
_ZN15wxMetaTagParser10GetProductEv
_ZN15wxMetaTagParser7AddTextERK8wxString
_ZN15wxMetaTagParserD0Ev
_ZN15wxMetaTagParserD1Ev
_ZN15wxMetaTagParserD2Ev
_ZN15wxMetaTagParserD5Ev
_ZN15wxMutexInternal16HandleLockResultEi
_ZN15wxMutexInternal16HandleLockResultEi.cold
_ZN15wxMutexInternal4LockEm
_ZN15wxMutexInternal4LockEv
_ZN15wxMutexInternal6UnlockEv
_ZN15wxMutexInternal6UnlockEv.cold
_ZN15wxMutexInternal7TryLockEv
_ZN15wxMutexInternal7TryLockEv.cold
_ZN15wxMutexInternalC1E11wxMutexType
_ZN15wxMutexInternalC2E11wxMutexType
_ZN15wxMutexInternalC2E11wxMutexType.cold
_ZN15wxMutexInternalD1Ev
_ZN15wxMutexInternalD2Ev
_ZN15wxMutexInternalD2Ev.cold
_ZN15wxPGChoiceEntryC1Ev
_ZN15wxPGChoiceEntryC2Ev
_ZN15wxPGChoiceEntryD0Ev
_ZN15wxPGChoiceEntryD1Ev
_ZN15wxPGChoiceEntryD2Ev
_ZN15wxPGChoiceEntryD5Ev
_ZN15wxPGChoicesData12CopyDataFromEPS_
_ZN15wxPGChoicesData5ClearEv
_ZN15wxPGChoicesData6InsertEiRK15wxPGChoiceEntry
_ZN15wxPGChoicesDataC1Ev
_ZN15wxPGChoicesDataC2Ev
_ZN15wxPGChoicesDataD0Ev
_ZN15wxPGChoicesDataD1Ev
_ZN15wxPGChoicesDataD2Ev
_ZN15wxPGCommonValueD0Ev
_ZN15wxPGCommonValueD1Ev
_ZN15wxPGCommonValueD2Ev
_ZN15wxPGCommonValueD5Ev
_ZN15wxPGMultiButton11DoAddButtonEP8wxWindowRK6wxSize
_ZN15wxPGMultiButton3AddERK14wxBitmapBundlei
_ZN15wxPGMultiButton3AddERK14wxBitmapBundlei.cold
_ZN15wxPGMultiButton3AddERK8wxStringi
_ZN15wxPGMultiButton3AddERK8wxStringi.cold
_ZN15wxPGMultiButton8FinalizeEP14wxPropertyGridRK7wxPoint
_ZN15wxPGMultiButtonC1EP14wxPropertyGridRK6wxSize
_ZN15wxPGMultiButtonC2EP14wxPropertyGridRK6wxSize
_ZN15wxPGMultiButtonC2EP14wxPropertyGridRK6wxSize.cold
_ZN15wxPGMultiButtonD0Ev
_ZN15wxPGMultiButtonD1Ev
_ZN15wxPGMultiButtonD2Ev
_ZN15wxPGMultiButtonD5Ev
_ZN15wxPluginLibrary10ms_classesE
_ZN15wxPluginLibrary13UpdateClassesEv
_ZN15wxPluginLibrary13UpdateClassesEv.cold
_ZN15wxPluginLibrary14RestoreClassesEv
_ZN15wxPluginLibrary14RestoreClassesEv.cold
_ZN15wxPluginLibrary15RegisterModulesEv
_ZN15wxPluginLibrary15RegisterModulesEv.cold
_ZN15wxPluginLibrary17UnregisterModulesEv
_ZN15wxPluginLibrary6RefLibEv
_ZN15wxPluginLibrary8UnrefLibEv
_ZN15wxPluginLibraryC1ERK8wxStringi
_ZN15wxPluginLibraryC2ERK8wxStringi
_ZN15wxPluginLibraryC2ERK8wxStringi.cold
_ZN15wxPluginLibraryD1Ev
_ZN15wxPluginLibraryD2Ev
_ZN15wxPluginManager11LoadLibraryERK8wxStringi
_ZN15wxPluginManager11LoadLibraryERK8wxStringi.cold
_ZN15wxPluginManager11ms_manifestE
_ZN15wxPluginManager13UnloadLibraryERK8wxString
_ZN15wxPluginManager13UnloadLibraryERK8wxString.cold
_ZN15wxPluginManager4LoadERK8wxStringi
_ZN15wxPluginManager6UnloadEv
_ZN15wxPoint2DDouble14SetVectorAngleEd
_ZN15wxPowerResource7AcquireE19wxPowerResourceKindRK8wxString
_ZN15wxPowerResource7ReleaseE19wxPowerResourceKind
_ZN15wxPreviewCanvas12ms_classInfoE
_ZN15wxPreviewCanvas12OnMouseWheelER12wxMouseEvent
_ZN15wxPreviewCanvas13sm_eventTableE
_ZN15wxPreviewCanvas17sm_eventHashTableE
_ZN15wxPreviewCanvas18OnSysColourChangedER23wxSysColourChangedEvent
_ZN15wxPreviewCanvas18OnSysColourChangedER23wxSysColourChangedEvent.cold
_ZN15wxPreviewCanvas20sm_eventTableEntriesE
_ZN15wxPreviewCanvas6OnCharER10wxKeyEvent
_ZN15wxPreviewCanvas6OnIdleER11wxIdleEvent
_ZN15wxPreviewCanvas7OnPaintER12wxPaintEvent
_ZN15wxPreviewCanvas7OnPaintER12wxPaintEvent.cold
_ZN15wxPreviewCanvasC1EP18wxPrintPreviewBaseP8wxWindowRK7wxPointRK6wxSizelRK8wxString
_ZN15wxPreviewCanvasC2EP18wxPrintPreviewBaseP8wxWindowRK7wxPointRK6wxSizelRK8wxString
_ZN15wxPreviewCanvasC2EP18wxPrintPreviewBaseP8wxWindowRK7wxPointRK6wxSizelRK8wxString.cold
_ZN15wxPreviewCanvasD0Ev
_ZN15wxPreviewCanvasD1Ev
_ZN15wxPreviewCanvasD2Ev
_ZN15wxRearrangeCtrl13sm_eventTableE
_ZN15wxRearrangeCtrl16OnUpdateButtonUIER15wxUpdateUIEvent
_ZN15wxRearrangeCtrl17sm_eventHashTableE
_ZN15wxRearrangeCtrl20sm_eventTableEntriesE
_ZN15wxRearrangeCtrl4InitEv
_ZN15wxRearrangeCtrl6CreateEP8wxWindowiRK7wxPointRK6wxSizeRK10wxArrayIntRK13wxArrayStringlRK11wxValidatorRK8wxString
_ZN15wxRearrangeCtrl6CreateEP8wxWindowiRK7wxPointRK6wxSizeRK10wxArrayIntRK13wxArrayStringlRK11wxValidatorRK8wxString.cold
_ZN15wxRearrangeCtrl8OnButtonER14wxCommandEvent
_ZN15wxRearrangeCtrlD0Ev
_ZN15wxRearrangeCtrlD1Ev
_ZN15wxRearrangeCtrlD2Ev
_ZN15wxRearrangeCtrlD5Ev
_ZN15wxRearrangeList13DoInsertItemsERK21wxArrayStringsAdapterjPPv16wxClientDataType
_ZN15wxRearrangeList13MoveCurrentUpEv
_ZN15wxRearrangeList13sm_eventTableE
_ZN15wxRearrangeList15DoDeleteOneItemEj
_ZN15wxRearrangeList15MoveCurrentDownEv
_ZN15wxRearrangeList17sm_eventHashTableE
_ZN15wxRearrangeList20sm_eventTableEntriesE
_ZN15wxRearrangeList4SwapEii
_ZN15wxRearrangeList4SwapEii.cold
_ZN15wxRearrangeList5CheckEjb
_ZN15wxRearrangeList6CreateEP8wxWindowiRK7wxPointRK6wxSizeRK10wxArrayIntRK13wxArrayStringlRK11wxValidatorRK8wxString
_ZN15wxRearrangeList6CreateEP8wxWindowiRK7wxPointRK6wxSizeRK10wxArrayIntRK13wxArrayStringlRK11wxValidatorRK8wxString.cold
_ZN15wxRearrangeList7DoClearEv
_ZN15wxRearrangeList7OnCheckER14wxCommandEvent
_ZN15wxRearrangeListD0Ev
_ZN15wxRearrangeListD1Ev
_ZN15wxRearrangeListD2Ev
_ZN15wxRearrangeListD5Ev
_ZN15wxRegionRefDataD0Ev
_ZN15wxRegionRefDataD1Ev
_ZN15wxRegionRefDataD2Ev
_ZN15wxRegionRefDataD5Ev
_ZN15wxResourceCacheD0Ev
_ZN15wxResourceCacheD1Ev
_ZN15wxResourceCacheD2Ev
_ZN15wxRibbonControl12ms_classInfoE
_ZN15wxRibbonControl14SetArtProviderEP19wxRibbonArtProvider
_ZN15wxRibbonControl6CreateEP8wxWindowiRK7wxPointRK6wxSizelRK11wxValidatorRK8wxString
_ZN15wxRibbonControl7RealizeEv
_ZN15wxRibbonControlD0Ev
_ZN15wxRibbonControlD1Ev
_ZN15wxRibbonControlD2Ev
_ZN15wxRibbonControlD5Ev
_ZN15wxRibbonGallery10CommonInitEl
_ZN15wxRibbonGallery11OnMouseDownER12wxMouseEvent
_ZN15wxRibbonGallery11OnMouseMoveER12wxMouseEvent
_ZN15wxRibbonGallery11OnMouseMoveER12wxMouseEvent.cold
_ZN15wxRibbonGallery11ScrollLinesEi
_ZN15wxRibbonGallery11ScrollLinesEi.localalias
_ZN15wxRibbonGallery12ms_classInfoE
_ZN15wxRibbonGallery12OnMouseEnterER12wxMouseEvent
_ZN15wxRibbonGallery12OnMouseLeaveER12wxMouseEvent
_ZN15wxRibbonGallery12OnMouseLeaveER12wxMouseEvent.cold
_ZN15wxRibbonGallery12ScrollPixelsEi
_ZN15wxRibbonGallery12SetSelectionEP19wxRibbonGalleryItem
_ZN15wxRibbonGallery13EnsureVisibleEPK19wxRibbonGalleryItem
_ZN15wxRibbonGallery13OnMouseDClickER12wxMouseEvent
_ZN15wxRibbonGallery13sm_eventTableE
_ZN15wxRibbonGallery15TestButtonHoverERK6wxRect7wxPointP26wxRibbonGalleryButtonState
_ZN15wxRibbonGallery16CalculateMinSizeEv
_ZN15wxRibbonGallery16CalculateMinSizeEv.cold
_ZN15wxRibbonGallery17OnEraseBackgroundER12wxEraseEvent
_ZN15wxRibbonGallery17SetItemClientDataEP19wxRibbonGalleryItemPv
_ZN15wxRibbonGallery17sm_eventHashTableE
_ZN15wxRibbonGallery19SetItemClientObjectEP19wxRibbonGalleryItemP12wxClientData
_ZN15wxRibbonGallery20sm_eventTableEntriesE
_ZN15wxRibbonGallery5ClearEv
_ZN15wxRibbonGallery6AppendERK8wxBitmapi
_ZN15wxRibbonGallery6AppendERK8wxBitmapi.cold
_ZN15wxRibbonGallery6AppendERK8wxBitmapiP12wxClientData
_ZN15wxRibbonGallery6AppendERK8wxBitmapiPv
_ZN15wxRibbonGallery6CreateEP8wxWindowiRK7wxPointRK6wxSizel
_ZN15wxRibbonGallery6CreateEP8wxWindowiRK7wxPointRK6wxSizel.cold
_ZN15wxRibbonGallery6LayoutEv
_ZN15wxRibbonGallery6LayoutEv.cold
_ZN15wxRibbonGallery6OnSizeER11wxSizeEvent
_ZN15wxRibbonGallery7GetItemEj
_ZN15wxRibbonGallery7OnPaintER12wxPaintEvent
_ZN15wxRibbonGallery7OnPaintER12wxPaintEvent.cold
_ZN15wxRibbonGallery7RealizeEv
_ZN15wxRibbonGallery9OnMouseUpER12wxMouseEvent
_ZN15wxRibbonGallery9OnMouseUpER12wxMouseEvent.cold
_ZN15wxRibbonGalleryC1EP8wxWindowiRK7wxPointRK6wxSizel
_ZN15wxRibbonGalleryC1Ev
_ZN15wxRibbonGalleryC2EP8wxWindowiRK7wxPointRK6wxSizel
_ZN15wxRibbonGalleryC2EP8wxWindowiRK7wxPointRK6wxSizel.cold
_ZN15wxRibbonGalleryC2Ev
_ZN15wxRibbonGalleryD0Ev
_ZN15wxRibbonGalleryD1Ev
_ZN15wxRibbonGalleryD2Ev
_ZN15wxRibbonToolBar10ClearToolsEv
_ZN15wxRibbonToolBar10CommonInitEl
_ZN15wxRibbonToolBar10DeleteToolEi
_ZN15wxRibbonToolBar10EnableToolEib
_ZN15wxRibbonToolBar10InsertToolEmiRK8wxBitmapRK8wxString18wxRibbonButtonKind
_ZN15wxRibbonToolBar10InsertToolEmiRK8wxBitmapS2_RK8wxString18wxRibbonButtonKindP8wxObject
_ZN15wxRibbonToolBar10InsertToolEmiRK8wxBitmapS2_RK8wxString18wxRibbonButtonKindP8wxObject.cold
_ZN15wxRibbonToolBar10ToggleToolEib
_ZN15wxRibbonToolBar11AppendGroupEv
_ZN15wxRibbonToolBar11InsertGroupEm
_ZN15wxRibbonToolBar11OnMouseDownER12wxMouseEvent
_ZN15wxRibbonToolBar11OnMouseMoveER12wxMouseEvent
_ZN15wxRibbonToolBar12AddSeparatorEv
_ZN15wxRibbonToolBar12ms_classInfoE
_ZN15wxRibbonToolBar12OnMouseEnterER12wxMouseEvent
_ZN15wxRibbonToolBar12OnMouseLeaveER12wxMouseEvent
_ZN15wxRibbonToolBar13AddHybridToolEiRK8wxBitmapRK8wxString
_ZN15wxRibbonToolBar13AddToggleToolEiRK8wxBitmapRK8wxString
_ZN15wxRibbonToolBar13sm_eventTableE
_ZN15wxRibbonToolBar14UpdateWindowUIEl
_ZN15wxRibbonToolBar14UpdateWindowUIEl.cold
_ZN15wxRibbonToolBar15AddDropdownToolEiRK8wxBitmapRK8wxString
_ZN15wxRibbonToolBar15DeleteToolByPosEm
_ZN15wxRibbonToolBar15InsertSeparatorEm
_ZN15wxRibbonToolBar16InsertHybridToolEmiRK8wxBitmapRK8wxString
_ZN15wxRibbonToolBar16InsertToggleToolEmiRK8wxBitmapRK8wxString
_ZN15wxRibbonToolBar17OnEraseBackgroundER12wxEraseEvent
_ZN15wxRibbonToolBar17SetToolClientDataEiP8wxObject
_ZN15wxRibbonToolBar17SetToolHelpStringEiRK8wxString
_ZN15wxRibbonToolBar17sm_eventHashTableE
_ZN15wxRibbonToolBar18InsertDropdownToolEmiRK8wxBitmapRK8wxString
_ZN15wxRibbonToolBar18MakeDisabledBitmapERK8wxBitmap
_ZN15wxRibbonToolBar18MakeDisabledBitmapERK8wxBitmap.cold
_ZN15wxRibbonToolBar19SetToolNormalBitmapEiRK8wxBitmap
_ZN15wxRibbonToolBar20sm_eventTableEntriesE
_ZN15wxRibbonToolBar21SetToolDisabledBitmapEiRK8wxBitmap
_ZN15wxRibbonToolBar6CreateEP8wxWindowiRK7wxPointRK6wxSizel
_ZN15wxRibbonToolBar6CreateEP8wxWindowiRK7wxPointRK6wxSizel.cold
_ZN15wxRibbonToolBar6OnSizeER11wxSizeEvent
_ZN15wxRibbonToolBar6OnSizeER11wxSizeEvent.cold
_ZN15wxRibbonToolBar7AddToolEiRK8wxBitmapRK8wxString18wxRibbonButtonKind
_ZN15wxRibbonToolBar7AddToolEiRK8wxBitmapS2_RK8wxString18wxRibbonButtonKindP8wxObject
_ZN15wxRibbonToolBar7OnPaintER12wxPaintEvent
_ZN15wxRibbonToolBar7OnPaintER12wxPaintEvent.cold
_ZN15wxRibbonToolBar7RealizeEv
_ZN15wxRibbonToolBar7RealizeEv.cold
_ZN15wxRibbonToolBar7SetRowsEii
_ZN15wxRibbonToolBar7SetRowsEii.cold
_ZN15wxRibbonToolBar9OnMouseUpER12wxMouseEvent
_ZN15wxRibbonToolBar9OnMouseUpER12wxMouseEvent.cold
_ZN15wxRibbonToolBarC1EP8wxWindowiRK7wxPointRK6wxSizel
_ZN15wxRibbonToolBarC1Ev
_ZN15wxRibbonToolBarC2EP8wxWindowiRK7wxPointRK6wxSizel
_ZN15wxRibbonToolBarC2EP8wxWindowiRK7wxPointRK6wxSizel.cold
_ZN15wxRibbonToolBarC2Ev
_ZN15wxRibbonToolBarD0Ev
_ZN15wxRibbonToolBarD1Ev
_ZN15wxRibbonToolBarD2Ev
_ZN15wxRichTextCaret10OnSetFocusEv
_ZN15wxRichTextCaret11OnKillFocusEv
_ZN15wxRichTextCaret4InitEv
_ZN15wxRichTextCaret6DoDrawEP4wxDC
_ZN15wxRichTextCaret6DoDrawEP4wxDC.cold
_ZN15wxRichTextCaret6DoHideEv
_ZN15wxRichTextCaret6DoHideEv.localalias
_ZN15wxRichTextCaret6DoMoveEv
_ZN15wxRichTextCaret6DoShowEv
_ZN15wxRichTextCaret6DoSizeEv
_ZN15wxRichTextCaret6NotifyEv
_ZN15wxRichTextCaret7RefreshEv
_ZN15wxRichTextCaretD0Ev
_ZN15wxRichTextCaretD1Ev
_ZN15wxRichTextCaretD2Ev
_ZN15wxRichTextEvent12ms_classInfoE
_ZN15wxRichTextEvent14wxCreateObjectEv
_ZN15wxRichTextEvent14wxCreateObjectEv.cold
_ZN15wxRichTextEventD0Ev
_ZN15wxRichTextEventD1Ev
_ZN15wxRichTextEventD2Ev
_ZN15wxRichTextEventD5Ev
_ZN15wxRichTextField11UpdateFieldEP16wxRichTextBuffer
_ZN15wxRichTextField11UpdateFieldEP16wxRichTextBuffer.cold
_ZN15wxRichTextField12ms_classInfoE
_ZN15wxRichTextField14CalculateRangeElRl
_ZN15wxRichTextField14EditPropertiesEP8wxWindowP16wxRichTextBuffer
_ZN15wxRichTextField14EditPropertiesEP8wxWindowP16wxRichTextBuffer.cold
_ZN15wxRichTextField14wxCreateObjectEv
_ZN15wxRichTextField14wxCreateObjectEv.cold
_ZN15wxRichTextField4CopyERKS_
_ZN15wxRichTextField4DrawER4wxDCR24wxRichTextDrawingContextRK15wxRichTextRangeRK19wxRichTextSelectionRK6wxRectii
_ZN15wxRichTextField4DrawER4wxDCR24wxRichTextDrawingContextRK15wxRichTextRangeRK19wxRichTextSelectionRK6wxRectii.cold
_ZN15wxRichTextField6LayoutER4wxDCR24wxRichTextDrawingContextRK6wxRectS6_i
_ZN15wxRichTextField6LayoutER4wxDCR24wxRichTextDrawingContextRK6wxRectS6_i.cold
_ZN15wxRichTextFieldC1ERK8wxStringP16wxRichTextObject
_ZN15wxRichTextFieldC2ERK8wxStringP16wxRichTextObject
_ZN15wxRichTextFieldC2ERK8wxStringP16wxRichTextObject.cold
_ZN15wxRichTextFieldD0Ev
_ZN15wxRichTextFieldD1Ev
_ZN15wxRichTextFieldD2Ev
_ZN15wxRichTextFieldD5Ev
_ZN15wxRichTextImage12ms_classInfoE
_ZN15wxRichTextImage13ImportFromXMLEP16wxRichTextBufferP9wxXmlNodeP20wxRichTextXMLHandlerPb
_ZN15wxRichTextImage13ImportFromXMLEP16wxRichTextBufferP9wxXmlNodeP20wxRichTextXMLHandlerPb.cold
_ZN15wxRichTextImage14EditPropertiesEP8wxWindowP16wxRichTextBuffer
_ZN15wxRichTextImage14EditPropertiesEP8wxWindowP16wxRichTextBuffer.cold
_ZN15wxRichTextImage14LoadImageCacheER4wxDCR24wxRichTextDrawingContextR6wxSizebRKS4_
_ZN15wxRichTextImage14LoadImageCacheER4wxDCR24wxRichTextDrawingContextR6wxSizebRKS4_.cold
_ZN15wxRichTextImage14wxCreateObjectEv
_ZN15wxRichTextImage14wxCreateObjectEv.cold
_ZN15wxRichTextImage22LoadAndScaleImageCacheER7wxImageRK6wxSizeR24wxRichTextDrawingContextRb
_ZN15wxRichTextImage22LoadAndScaleImageCacheER7wxImageRK6wxSizeR24wxRichTextDrawingContextRb.cold
_ZN15wxRichTextImage4CopyERKS_
_ZN15wxRichTextImage4DrawER4wxDCR24wxRichTextDrawingContextRK15wxRichTextRangeRK19wxRichTextSelectionRK6wxRectii
_ZN15wxRichTextImage4DrawER4wxDCR24wxRichTextDrawingContextRK15wxRichTextRangeRK19wxRichTextSelectionRK6wxRectii.cold
_ZN15wxRichTextImage4InitEv
_ZN15wxRichTextImage6LayoutER4wxDCR24wxRichTextDrawingContextRK6wxRectS6_i
_ZN15wxRichTextImage6LayoutER4wxDCR24wxRichTextDrawingContextRK6wxRectS6_i.cold
_ZN15wxRichTextImage9ExportXMLEP9wxXmlNodeP20wxRichTextXMLHandler
_ZN15wxRichTextImage9ExportXMLEP9wxXmlNodeP20wxRichTextXMLHandler.cold
_ZN15wxRichTextImage9ExportXMLER14wxOutputStreamiP20wxRichTextXMLHandler
_ZN15wxRichTextImage9ExportXMLER14wxOutputStreamiP20wxRichTextXMLHandler.cold
_ZN15wxRichTextImageC1ERK20wxRichTextImageBlockP16wxRichTextObjectP14wxRichTextAttr
_ZN15wxRichTextImageC1ERK7wxImageP16wxRichTextObjectP14wxRichTextAttr
_ZN15wxRichTextImageC2ERK20wxRichTextImageBlockP16wxRichTextObjectP14wxRichTextAttr
_ZN15wxRichTextImageC2ERK20wxRichTextImageBlockP16wxRichTextObjectP14wxRichTextAttr.cold
_ZN15wxRichTextImageC2ERK7wxImageP16wxRichTextObjectP14wxRichTextAttr
_ZN15wxRichTextImageC2ERK7wxImageP16wxRichTextObjectP14wxRichTextAttr.cold
_ZN15wxRichTextImageD0Ev
_ZN15wxRichTextImageD1Ev
_ZN15wxRichTextImageD2Ev
_ZN15wxRichTextRange7LimitToERKS_
_ZN15wxRichTextTable10AddColumnsEiiRK14wxRichTextAttr
_ZN15wxRichTextTable10AddColumnsEiiRK14wxRichTextAttr.cold
_ZN15wxRichTextTable10ClearTableEv
_ZN15wxRichTextTable10DeleteRowsEii
_ZN15wxRichTextTable10DeleteRowsEii.cold
_ZN15wxRichTextTable11CreateTableEii
_ZN15wxRichTextTable11CreateTableEii.cold
_ZN15wxRichTextTable11DeleteRangeERK15wxRichTextRange
_ZN15wxRichTextTable12FindPositionER4wxDCR24wxRichTextDrawingContextlR7wxPointPib
_ZN15wxRichTextTable12ms_classInfoE
_ZN15wxRichTextTable12SetCellStyleERK19wxRichTextSelectionRK14wxRichTextAttri
_ZN15wxRichTextTable12SetCellStyleERK19wxRichTextSelectionRK14wxRichTextAttri.cold
_ZN15wxRichTextTable13DeleteColumnsEii
_ZN15wxRichTextTable13DeleteColumnsEii.cold
_ZN15wxRichTextTable13ImportFromXMLEP16wxRichTextBufferP9wxXmlNodeP20wxRichTextXMLHandlerPb
_ZN15wxRichTextTable13ImportFromXMLEP16wxRichTextBufferP9wxXmlNodeP20wxRichTextXMLHandlerPb.cold
_ZN15wxRichTextTable14CalculateRangeElRl
_ZN15wxRichTextTable14EditPropertiesEP8wxWindowP16wxRichTextBuffer
_ZN15wxRichTextTable14EditPropertiesEP8wxWindowP16wxRichTextBuffer.cold
_ZN15wxRichTextTable14wxCreateObjectEv
_ZN15wxRichTextTable14wxCreateObjectEv.cold
_ZN15wxRichTextTable16AdjustAttributesER14wxRichTextAttrR24wxRichTextDrawingContext
_ZN15wxRichTextTable16AdjustAttributesER14wxRichTextAttrR24wxRichTextDrawingContext.localalias
_ZN15wxRichTextTable4CopyERKS_
_ZN15wxRichTextTable4CopyERKS_.cold
_ZN15wxRichTextTable4DrawER4wxDCR24wxRichTextDrawingContextRK15wxRichTextRangeRK19wxRichTextSelectionRK6wxRectii
_ZN15wxRichTextTable4DrawER4wxDCR24wxRichTextDrawingContextRK15wxRichTextRangeRK19wxRichTextSelectionRK6wxRectii.cold
_ZN15wxRichTextTable6LayoutER4wxDCR24wxRichTextDrawingContextRK6wxRectS6_i
_ZN15wxRichTextTable6LayoutER4wxDCR24wxRichTextDrawingContextRK6wxRectS6_i.cold
_ZN15wxRichTextTable7AddRowsEiiRK14wxRichTextAttr
_ZN15wxRichTextTable7AddRowsEiiRK14wxRichTextAttr.cold
_ZN15wxRichTextTable7HitTestER4wxDCR24wxRichTextDrawingContextRK7wxPointRlPP16wxRichTextObjectSA_i
_ZN15wxRichTextTable9ExportXMLEP9wxXmlNodeP20wxRichTextXMLHandler
_ZN15wxRichTextTable9ExportXMLEP9wxXmlNodeP20wxRichTextXMLHandler.cold
_ZN15wxRichTextTable9ExportXMLER14wxOutputStreamiP20wxRichTextXMLHandler
_ZN15wxRichTextTable9ExportXMLER14wxOutputStreamiP20wxRichTextXMLHandler.cold
_ZN15wxRichTextTableC1EP16wxRichTextObject
_ZN15wxRichTextTableC2EP16wxRichTextObject
_ZN15wxRichTextTableD0Ev
_ZN15wxRichTextTableD1Ev
_ZN15wxRichTextTableD2Ev
_ZN15wxRichTextTableD5Ev
_ZN15wxSizerItemList10CreateNodeEP10wxNodeBaseS1_PvRK9wxListKey
_ZN15wxSizerItemListD0Ev
_ZN15wxSizerItemListD1Ev
_ZN15wxSizerItemListD2Ev
_ZN15wxSizerItemListD5Ev
_ZN15wxSocketManager10ms_managerE
_ZN15wxSocketManager3SetEPS_
_ZN15wxSocketManager4InitEv
_ZN15wxSplitterEvent12ms_classInfoE
_ZN15wxSplitterEvent14wxCreateObjectEv
_ZN15wxSplitterEvent14wxCreateObjectEv.cold
_ZN15wxSplitterEventD0Ev
_ZN15wxSplitterEventD1Ev
_ZN15wxSplitterEventD2Ev
_ZN15wxSplitterEventD5Ev
_ZN15wxStandardPaths12DetectPrefixEv
_ZN15wxStandardPaths12DetectPrefixEv.cold
_ZN15wxStandardPaths16SetInstallPrefixERK8wxString
_ZN15wxStandardPathsD0Ev
_ZN15wxStandardPathsD1Ev
_ZN15wxStandardPathsD2Ev
_ZN15wxStandardPathsD5Ev
_ZN15wxStaticBoxBase24HasTransparentBackgroundEv
_ZN15wxStaticBoxBase24WXDestroyWithoutChildrenEv
_ZN15wxStaticBoxBase24WXDestroyWithoutChildrenEv.cold
_ZN15wxStaticBoxBase6EnableEb
_ZN15wxStaticBoxBaseC1Ev
_ZN15wxStaticBoxBaseC2Ev
_ZN15wxStaticBoxBaseD0Ev
_ZN15wxStaticBoxBaseD1Ev
_ZN15wxStaticBoxBaseD2Ev
_ZN15wxStaticBoxBaseD5Ev
_ZN15wxStatusBarBase12DoSetToolTipEP9wxToolTip
_ZN15wxStatusBarBase13PopStatusTextEi
_ZN15wxStatusBarBase13SetStatusTextERK8wxStringi
_ZN15wxStatusBarBase14PushStatusTextERK8wxStringi
_ZN15wxStatusBarBase14SetFieldsCountEiPKi
_ZN15wxStatusBarBase14SetFieldsCountEiPKi.cold
_ZN15wxStatusBarBase15SetStatusStylesEiPKi
_ZN15wxStatusBarBase15SetStatusWidthsEiPKi
_ZN15wxStatusBarBase17SetEllipsizedFlagEib
_ZN15wxStatusBarBaseC1Ev
_ZN15wxStatusBarBaseC2Ev
_ZN15wxStatusBarBaseD0Ev
_ZN15wxStatusBarBaseD1Ev
_ZN15wxStatusBarBaseD2Ev
_ZN15wxStatusBarPane7PopTextEv
_ZN15wxStatusBarPane7PopTextEv.cold
_ZN15wxStatusBarPane7SetTextERK8wxString
_ZN15wxStatusBarPane8PushTextERK8wxString
_ZN15wxSTCDropTarget10OnDragOverEii12wxDragResult
_ZN15wxSTCDropTarget10OnDropTextEiiRK8wxString
_ZN15wxSTCDropTarget7OnEnterEii12wxDragResult
_ZN15wxSTCDropTarget7OnLeaveEv
_ZN15wxSTCDropTargetD0Ev
_ZN15wxSTCDropTargetD1Ev
_ZN15wxSTCDropTargetD2Ev
_ZN15wxSTCDropTargetD5Ev
_ZN15wxSTCListBoxWin7OnPaintER12wxPaintEvent
_ZN15wxSTCListBoxWin7OnPaintER12wxPaintEvent.cold
_ZN15wxSTCListBoxWinC1EP8wxWindowPP12wxSTCListBoxP22wxSTCListBoxVisualDataii
_ZN15wxSTCListBoxWinC2EP8wxWindowPP12wxSTCListBoxP22wxSTCListBoxVisualDataii
_ZN15wxSTCListBoxWinC2EP8wxWindowPP12wxSTCListBoxP22wxSTCListBoxVisualDataii.cold
_ZN15wxSTCListBoxWinD0Ev
_ZN15wxSTCListBoxWinD1Ev
_ZN15wxSTCListBoxWinD2Ev
_ZN15wxSTCListBoxWinD5Ev
_ZN15wxSVGFileDCImpl10DoDrawIconERK6wxIconii
_ZN15wxSVGFileDCImpl10DoDrawIconERK6wxIconii.cold
_ZN15wxSVGFileDCImpl10DoDrawLineEiiii
_ZN15wxSVGFileDCImpl10DoDrawLineEiiii.cold
_ZN15wxSVGFileDCImpl10DoDrawTextERK8wxStringii
_ZN15wxSVGFileDCImpl10SetPaletteERK9wxPalette
_ZN15wxSVGFileDCImpl11DoCrossHairEii
_ZN15wxSVGFileDCImpl11DoDrawLinesEiPK7wxPointii
_ZN15wxSVGFileDCImpl11DoDrawLinesEiPK7wxPointii.cold
_ZN15wxSVGFileDCImpl11DoDrawPointEii
_ZN15wxSVGFileDCImpl11DoDrawPointEii.cold
_ZN15wxSVGFileDCImpl11DoFloodFillEiiRK8wxColour16wxFloodFillStyle
_ZN15wxSVGFileDCImpl12DoDrawBitmapERK8wxBitmapiib
_ZN15wxSVGFileDCImpl12DoDrawBitmapERK8wxBitmapiib.cold
_ZN15wxSVGFileDCImpl12DoDrawSplineEPK11wxPointList
_ZN15wxSVGFileDCImpl12DoDrawSplineEPK11wxPointList.cold
_ZN15wxSVGFileDCImpl12ms_classInfoE
_ZN15wxSVGFileDCImpl13DoDrawEllipseEiiii
_ZN15wxSVGFileDCImpl13DoDrawEllipseEiiii.cold
_ZN15wxSVGFileDCImpl13DoDrawPolygonEiPK7wxPointii17wxPolygonFillMode
_ZN15wxSVGFileDCImpl13DoDrawPolygonEiPK7wxPointii17wxPolygonFillMode.cold
_ZN15wxSVGFileDCImpl13SetBackgroundERK7wxBrush
_ZN15wxSVGFileDCImpl15DoDrawRectangleEiiii
_ZN15wxSVGFileDCImpl15DoDrawRectangleEiiii.localalias
_ZN15wxSVGFileDCImpl16SetBitmapHandlerEP18wxSVGBitmapHandler
